
AirQualityDetectorRTOS.elf:     file format elf32-littlearm

Sections:
Idx Name          Size      VMA       LMA       File off  Algn
  0 .isr_vector   000001c8  08000000  08000000  00001000  2**0
                  CONTENTS, ALLOC, LOAD, READONLY, DATA
  1 .text         00007e44  080001d0  080001d0  000011d0  2**4
                  CONTENTS, ALLOC, LOAD, READONLY, CODE
  2 .rodata       00000188  08008014  08008014  00009014  2**2
                  CONTENTS, ALLOC, LOAD, READONLY, DATA
  3 .ARM.extab    00000000  0800819c  0800819c  0000a060  2**0
                  CONTENTS
  4 .ARM          00000008  0800819c  0800819c  0000919c  2**2
                  CONTENTS, ALLOC, LOAD, READONLY, DATA
  5 .preinit_array 00000000  080081a4  080081a4  0000a060  2**0
                  CONTENTS, ALLOC, LOAD, DATA
  6 .init_array   00000004  080081a4  080081a4  000091a4  2**2
                  CONTENTS, ALLOC, LOAD, READONLY, DATA
  7 .fini_array   00000004  080081a8  080081a8  000091a8  2**2
                  CONTENTS, ALLOC, LOAD, READONLY, DATA
  8 .data         00000060  20000000  080081ac  0000a000  2**2
                  CONTENTS, ALLOC, LOAD, DATA
  9 .bss          00004ca4  20000060  0800820c  0000a060  2**2
                  ALLOC
 10 ._user_heap_stack 00000604  20004d04  0800820c  0000ad04  2**0
                  ALLOC
 11 .ARM.attributes 00000030  00000000  00000000  0000a060  2**0
                  CONTENTS, READONLY
 12 .debug_info   0001db74  00000000  00000000  0000a090  2**0
                  CONTENTS, READONLY, DEBUGGING, OCTETS
 13 .debug_abbrev 00003fba  00000000  00000000  00027c04  2**0
                  CONTENTS, READONLY, DEBUGGING, OCTETS
 14 .debug_aranges 00001740  00000000  00000000  0002bbc0  2**3
                  CONTENTS, READONLY, DEBUGGING, OCTETS
 15 .debug_rnglists 00001212  00000000  00000000  0002d300  2**0
                  CONTENTS, READONLY, DEBUGGING, OCTETS
 16 .debug_macro  000042f8  00000000  00000000  0002e512  2**0
                  CONTENTS, READONLY, DEBUGGING, OCTETS
 17 .debug_line   0001dabb  00000000  00000000  0003280a  2**0
                  CONTENTS, READONLY, DEBUGGING, OCTETS
 18 .debug_str    00104864  00000000  00000000  000502c5  2**0
                  CONTENTS, READONLY, DEBUGGING, OCTETS
 19 .comment      00000043  00000000  00000000  00154b29  2**0
                  CONTENTS, READONLY
 20 .debug_frame  000063dc  00000000  00000000  00154b6c  2**2
                  CONTENTS, READONLY, DEBUGGING, OCTETS
 21 .debug_line_str 0000008a  00000000  00000000  0015af48  2**0
                  CONTENTS, READONLY, DEBUGGING, OCTETS

Disassembly of section .text:

080001d0 <__do_global_dtors_aux>:
 80001d0:	b510      	push	{r4, lr}
 80001d2:	4c05      	ldr	r4, [pc, #20]	@ (80001e8 <__do_global_dtors_aux+0x18>)
 80001d4:	7823      	ldrb	r3, [r4, #0]
 80001d6:	b933      	cbnz	r3, 80001e6 <__do_global_dtors_aux+0x16>
 80001d8:	4b04      	ldr	r3, [pc, #16]	@ (80001ec <__do_global_dtors_aux+0x1c>)
 80001da:	b113      	cbz	r3, 80001e2 <__do_global_dtors_aux+0x12>
 80001dc:	4804      	ldr	r0, [pc, #16]	@ (80001f0 <__do_global_dtors_aux+0x20>)
 80001de:	f3af 8000 	nop.w
 80001e2:	2301      	movs	r3, #1
 80001e4:	7023      	strb	r3, [r4, #0]
 80001e6:	bd10      	pop	{r4, pc}
 80001e8:	20000060 	.word	0x20000060
 80001ec:	00000000 	.word	0x00000000
 80001f0:	08007ffc 	.word	0x08007ffc

080001f4 <frame_dummy>:
 80001f4:	b508      	push	{r3, lr}
 80001f6:	4b03      	ldr	r3, [pc, #12]	@ (8000204 <frame_dummy+0x10>)
 80001f8:	b11b      	cbz	r3, 8000202 <frame_dummy+0xe>
 80001fa:	4903      	ldr	r1, [pc, #12]	@ (8000208 <frame_dummy+0x14>)
 80001fc:	4803      	ldr	r0, [pc, #12]	@ (800020c <frame_dummy+0x18>)
 80001fe:	f3af 8000 	nop.w
 8000202:	bd08      	pop	{r3, pc}
 8000204:	00000000 	.word	0x00000000
 8000208:	20000064 	.word	0x20000064
 800020c:	08007ffc 	.word	0x08007ffc

08000210 <strlen>:
 8000210:	4603      	mov	r3, r0
 8000212:	f813 2b01 	ldrb.w	r2, [r3], #1
 8000216:	2a00      	cmp	r2, #0
 8000218:	d1fb      	bne.n	8000212 <strlen+0x2>
 800021a:	1a18      	subs	r0, r3, r0
 800021c:	3801      	subs	r0, #1
 800021e:	4770      	bx	lr

08000220 <__aeabi_uldivmod>:
 8000220:	b953      	cbnz	r3, 8000238 <__aeabi_uldivmod+0x18>
 8000222:	b94a      	cbnz	r2, 8000238 <__aeabi_uldivmod+0x18>
 8000224:	2900      	cmp	r1, #0
 8000226:	bf08      	it	eq
 8000228:	2800      	cmpeq	r0, #0
 800022a:	bf1c      	itt	ne
 800022c:	f04f 31ff 	movne.w	r1, #4294967295
 8000230:	f04f 30ff 	movne.w	r0, #4294967295
 8000234:	f000 b96a 	b.w	800050c <__aeabi_idiv0>
 8000238:	f1ad 0c08 	sub.w	ip, sp, #8
 800023c:	e96d ce04 	strd	ip, lr, [sp, #-16]!
 8000240:	f000 f806 	bl	8000250 <__udivmoddi4>
 8000244:	f8dd e004 	ldr.w	lr, [sp, #4]
 8000248:	e9dd 2302 	ldrd	r2, r3, [sp, #8]
 800024c:	b004      	add	sp, #16
 800024e:	4770      	bx	lr

08000250 <__udivmoddi4>:
 8000250:	e92d 47f0 	stmdb	sp!, {r4, r5, r6, r7, r8, r9, sl, lr}
 8000254:	9d08      	ldr	r5, [sp, #32]
 8000256:	460c      	mov	r4, r1
 8000258:	2b00      	cmp	r3, #0
 800025a:	d14e      	bne.n	80002fa <__udivmoddi4+0xaa>
 800025c:	4694      	mov	ip, r2
 800025e:	458c      	cmp	ip, r1
 8000260:	4686      	mov	lr, r0
 8000262:	fab2 f282 	clz	r2, r2
 8000266:	d962      	bls.n	800032e <__udivmoddi4+0xde>
 8000268:	b14a      	cbz	r2, 800027e <__udivmoddi4+0x2e>
 800026a:	f1c2 0320 	rsb	r3, r2, #32
 800026e:	4091      	lsls	r1, r2
 8000270:	fa20 f303 	lsr.w	r3, r0, r3
 8000274:	fa0c fc02 	lsl.w	ip, ip, r2
 8000278:	4319      	orrs	r1, r3
 800027a:	fa00 fe02 	lsl.w	lr, r0, r2
 800027e:	ea4f 471c 	mov.w	r7, ip, lsr #16
 8000282:	fa1f f68c 	uxth.w	r6, ip
 8000286:	fbb1 f4f7 	udiv	r4, r1, r7
 800028a:	ea4f 431e 	mov.w	r3, lr, lsr #16
 800028e:	fb07 1114 	mls	r1, r7, r4, r1
 8000292:	ea43 4301 	orr.w	r3, r3, r1, lsl #16
 8000296:	fb04 f106 	mul.w	r1, r4, r6
 800029a:	4299      	cmp	r1, r3
 800029c:	d90a      	bls.n	80002b4 <__udivmoddi4+0x64>
 800029e:	eb1c 0303 	adds.w	r3, ip, r3
 80002a2:	f104 30ff 	add.w	r0, r4, #4294967295
 80002a6:	f080 8112 	bcs.w	80004ce <__udivmoddi4+0x27e>
 80002aa:	4299      	cmp	r1, r3
 80002ac:	f240 810f 	bls.w	80004ce <__udivmoddi4+0x27e>
 80002b0:	3c02      	subs	r4, #2
 80002b2:	4463      	add	r3, ip
 80002b4:	1a59      	subs	r1, r3, r1
 80002b6:	fa1f f38e 	uxth.w	r3, lr
 80002ba:	fbb1 f0f7 	udiv	r0, r1, r7
 80002be:	fb07 1110 	mls	r1, r7, r0, r1
 80002c2:	ea43 4301 	orr.w	r3, r3, r1, lsl #16
 80002c6:	fb00 f606 	mul.w	r6, r0, r6
 80002ca:	429e      	cmp	r6, r3
 80002cc:	d90a      	bls.n	80002e4 <__udivmoddi4+0x94>
 80002ce:	eb1c 0303 	adds.w	r3, ip, r3
 80002d2:	f100 31ff 	add.w	r1, r0, #4294967295
 80002d6:	f080 80fc 	bcs.w	80004d2 <__udivmoddi4+0x282>
 80002da:	429e      	cmp	r6, r3
 80002dc:	f240 80f9 	bls.w	80004d2 <__udivmoddi4+0x282>
 80002e0:	4463      	add	r3, ip
 80002e2:	3802      	subs	r0, #2
 80002e4:	1b9b      	subs	r3, r3, r6
 80002e6:	ea40 4004 	orr.w	r0, r0, r4, lsl #16
 80002ea:	2100      	movs	r1, #0
 80002ec:	b11d      	cbz	r5, 80002f6 <__udivmoddi4+0xa6>
 80002ee:	40d3      	lsrs	r3, r2
 80002f0:	2200      	movs	r2, #0
 80002f2:	e9c5 3200 	strd	r3, r2, [r5]
 80002f6:	e8bd 87f0 	ldmia.w	sp!, {r4, r5, r6, r7, r8, r9, sl, pc}
 80002fa:	428b      	cmp	r3, r1
 80002fc:	d905      	bls.n	800030a <__udivmoddi4+0xba>
 80002fe:	b10d      	cbz	r5, 8000304 <__udivmoddi4+0xb4>
 8000300:	e9c5 0100 	strd	r0, r1, [r5]
 8000304:	2100      	movs	r1, #0
 8000306:	4608      	mov	r0, r1
 8000308:	e7f5      	b.n	80002f6 <__udivmoddi4+0xa6>
 800030a:	fab3 f183 	clz	r1, r3
 800030e:	2900      	cmp	r1, #0
 8000310:	d146      	bne.n	80003a0 <__udivmoddi4+0x150>
 8000312:	42a3      	cmp	r3, r4
 8000314:	d302      	bcc.n	800031c <__udivmoddi4+0xcc>
 8000316:	4290      	cmp	r0, r2
 8000318:	f0c0 80f0 	bcc.w	80004fc <__udivmoddi4+0x2ac>
 800031c:	1a86      	subs	r6, r0, r2
 800031e:	eb64 0303 	sbc.w	r3, r4, r3
 8000322:	2001      	movs	r0, #1
 8000324:	2d00      	cmp	r5, #0
 8000326:	d0e6      	beq.n	80002f6 <__udivmoddi4+0xa6>
 8000328:	e9c5 6300 	strd	r6, r3, [r5]
 800032c:	e7e3      	b.n	80002f6 <__udivmoddi4+0xa6>
 800032e:	2a00      	cmp	r2, #0
 8000330:	f040 8090 	bne.w	8000454 <__udivmoddi4+0x204>
 8000334:	eba1 040c 	sub.w	r4, r1, ip
 8000338:	ea4f 481c 	mov.w	r8, ip, lsr #16
 800033c:	fa1f f78c 	uxth.w	r7, ip
 8000340:	2101      	movs	r1, #1
 8000342:	fbb4 f6f8 	udiv	r6, r4, r8
 8000346:	ea4f 431e 	mov.w	r3, lr, lsr #16
 800034a:	fb08 4416 	mls	r4, r8, r6, r4
 800034e:	ea43 4304 	orr.w	r3, r3, r4, lsl #16
 8000352:	fb07 f006 	mul.w	r0, r7, r6
 8000356:	4298      	cmp	r0, r3
 8000358:	d908      	bls.n	800036c <__udivmoddi4+0x11c>
 800035a:	eb1c 0303 	adds.w	r3, ip, r3
 800035e:	f106 34ff 	add.w	r4, r6, #4294967295
 8000362:	d202      	bcs.n	800036a <__udivmoddi4+0x11a>
 8000364:	4298      	cmp	r0, r3
 8000366:	f200 80cd 	bhi.w	8000504 <__udivmoddi4+0x2b4>
 800036a:	4626      	mov	r6, r4
 800036c:	1a1c      	subs	r4, r3, r0
 800036e:	fa1f f38e 	uxth.w	r3, lr
 8000372:	fbb4 f0f8 	udiv	r0, r4, r8
 8000376:	fb08 4410 	mls	r4, r8, r0, r4
 800037a:	ea43 4304 	orr.w	r3, r3, r4, lsl #16
 800037e:	fb00 f707 	mul.w	r7, r0, r7
 8000382:	429f      	cmp	r7, r3
 8000384:	d908      	bls.n	8000398 <__udivmoddi4+0x148>
 8000386:	eb1c 0303 	adds.w	r3, ip, r3
 800038a:	f100 34ff 	add.w	r4, r0, #4294967295
 800038e:	d202      	bcs.n	8000396 <__udivmoddi4+0x146>
 8000390:	429f      	cmp	r7, r3
 8000392:	f200 80b0 	bhi.w	80004f6 <__udivmoddi4+0x2a6>
 8000396:	4620      	mov	r0, r4
 8000398:	1bdb      	subs	r3, r3, r7
 800039a:	ea40 4006 	orr.w	r0, r0, r6, lsl #16
 800039e:	e7a5      	b.n	80002ec <__udivmoddi4+0x9c>
 80003a0:	f1c1 0620 	rsb	r6, r1, #32
 80003a4:	408b      	lsls	r3, r1
 80003a6:	fa22 f706 	lsr.w	r7, r2, r6
 80003aa:	431f      	orrs	r7, r3
 80003ac:	fa20 fc06 	lsr.w	ip, r0, r6
 80003b0:	fa04 f301 	lsl.w	r3, r4, r1
 80003b4:	ea43 030c 	orr.w	r3, r3, ip
 80003b8:	40f4      	lsrs	r4, r6
 80003ba:	fa00 f801 	lsl.w	r8, r0, r1
 80003be:	0c38      	lsrs	r0, r7, #16
 80003c0:	ea4f 4913 	mov.w	r9, r3, lsr #16
 80003c4:	fbb4 fef0 	udiv	lr, r4, r0
 80003c8:	fa1f fc87 	uxth.w	ip, r7
 80003cc:	fb00 441e 	mls	r4, r0, lr, r4
 80003d0:	ea49 4404 	orr.w	r4, r9, r4, lsl #16
 80003d4:	fb0e f90c 	mul.w	r9, lr, ip
 80003d8:	45a1      	cmp	r9, r4
 80003da:	fa02 f201 	lsl.w	r2, r2, r1
 80003de:	d90a      	bls.n	80003f6 <__udivmoddi4+0x1a6>
 80003e0:	193c      	adds	r4, r7, r4
 80003e2:	f10e 3aff 	add.w	sl, lr, #4294967295
 80003e6:	f080 8084 	bcs.w	80004f2 <__udivmoddi4+0x2a2>
 80003ea:	45a1      	cmp	r9, r4
 80003ec:	f240 8081 	bls.w	80004f2 <__udivmoddi4+0x2a2>
 80003f0:	f1ae 0e02 	sub.w	lr, lr, #2
 80003f4:	443c      	add	r4, r7
 80003f6:	eba4 0409 	sub.w	r4, r4, r9
 80003fa:	fa1f f983 	uxth.w	r9, r3
 80003fe:	fbb4 f3f0 	udiv	r3, r4, r0
 8000402:	fb00 4413 	mls	r4, r0, r3, r4
 8000406:	ea49 4404 	orr.w	r4, r9, r4, lsl #16
 800040a:	fb03 fc0c 	mul.w	ip, r3, ip
 800040e:	45a4      	cmp	ip, r4
 8000410:	d907      	bls.n	8000422 <__udivmoddi4+0x1d2>
 8000412:	193c      	adds	r4, r7, r4
 8000414:	f103 30ff 	add.w	r0, r3, #4294967295
 8000418:	d267      	bcs.n	80004ea <__udivmoddi4+0x29a>
 800041a:	45a4      	cmp	ip, r4
 800041c:	d965      	bls.n	80004ea <__udivmoddi4+0x29a>
 800041e:	3b02      	subs	r3, #2
 8000420:	443c      	add	r4, r7
 8000422:	ea43 400e 	orr.w	r0, r3, lr, lsl #16
 8000426:	fba0 9302 	umull	r9, r3, r0, r2
 800042a:	eba4 040c 	sub.w	r4, r4, ip
 800042e:	429c      	cmp	r4, r3
 8000430:	46ce      	mov	lr, r9
 8000432:	469c      	mov	ip, r3
 8000434:	d351      	bcc.n	80004da <__udivmoddi4+0x28a>
 8000436:	d04e      	beq.n	80004d6 <__udivmoddi4+0x286>
 8000438:	b155      	cbz	r5, 8000450 <__udivmoddi4+0x200>
 800043a:	ebb8 030e 	subs.w	r3, r8, lr
 800043e:	eb64 040c 	sbc.w	r4, r4, ip
 8000442:	fa04 f606 	lsl.w	r6, r4, r6
 8000446:	40cb      	lsrs	r3, r1
 8000448:	431e      	orrs	r6, r3
 800044a:	40cc      	lsrs	r4, r1
 800044c:	e9c5 6400 	strd	r6, r4, [r5]
 8000450:	2100      	movs	r1, #0
 8000452:	e750      	b.n	80002f6 <__udivmoddi4+0xa6>
 8000454:	f1c2 0320 	rsb	r3, r2, #32
 8000458:	fa20 f103 	lsr.w	r1, r0, r3
 800045c:	fa0c fc02 	lsl.w	ip, ip, r2
 8000460:	fa24 f303 	lsr.w	r3, r4, r3
 8000464:	4094      	lsls	r4, r2
 8000466:	430c      	orrs	r4, r1
 8000468:	ea4f 481c 	mov.w	r8, ip, lsr #16
 800046c:	fa00 fe02 	lsl.w	lr, r0, r2
 8000470:	fa1f f78c 	uxth.w	r7, ip
 8000474:	fbb3 f0f8 	udiv	r0, r3, r8
 8000478:	fb08 3110 	mls	r1, r8, r0, r3
 800047c:	0c23      	lsrs	r3, r4, #16
 800047e:	ea43 4301 	orr.w	r3, r3, r1, lsl #16
 8000482:	fb00 f107 	mul.w	r1, r0, r7
 8000486:	4299      	cmp	r1, r3
 8000488:	d908      	bls.n	800049c <__udivmoddi4+0x24c>
 800048a:	eb1c 0303 	adds.w	r3, ip, r3
 800048e:	f100 36ff 	add.w	r6, r0, #4294967295
 8000492:	d22c      	bcs.n	80004ee <__udivmoddi4+0x29e>
 8000494:	4299      	cmp	r1, r3
 8000496:	d92a      	bls.n	80004ee <__udivmoddi4+0x29e>
 8000498:	3802      	subs	r0, #2
 800049a:	4463      	add	r3, ip
 800049c:	1a5b      	subs	r3, r3, r1
 800049e:	b2a4      	uxth	r4, r4
 80004a0:	fbb3 f1f8 	udiv	r1, r3, r8
 80004a4:	fb08 3311 	mls	r3, r8, r1, r3
 80004a8:	ea44 4403 	orr.w	r4, r4, r3, lsl #16
 80004ac:	fb01 f307 	mul.w	r3, r1, r7
 80004b0:	42a3      	cmp	r3, r4
 80004b2:	d908      	bls.n	80004c6 <__udivmoddi4+0x276>
 80004b4:	eb1c 0404 	adds.w	r4, ip, r4
 80004b8:	f101 36ff 	add.w	r6, r1, #4294967295
 80004bc:	d213      	bcs.n	80004e6 <__udivmoddi4+0x296>
 80004be:	42a3      	cmp	r3, r4
 80004c0:	d911      	bls.n	80004e6 <__udivmoddi4+0x296>
 80004c2:	3902      	subs	r1, #2
 80004c4:	4464      	add	r4, ip
 80004c6:	1ae4      	subs	r4, r4, r3
 80004c8:	ea41 4100 	orr.w	r1, r1, r0, lsl #16
 80004cc:	e739      	b.n	8000342 <__udivmoddi4+0xf2>
 80004ce:	4604      	mov	r4, r0
 80004d0:	e6f0      	b.n	80002b4 <__udivmoddi4+0x64>
 80004d2:	4608      	mov	r0, r1
 80004d4:	e706      	b.n	80002e4 <__udivmoddi4+0x94>
 80004d6:	45c8      	cmp	r8, r9
 80004d8:	d2ae      	bcs.n	8000438 <__udivmoddi4+0x1e8>
 80004da:	ebb9 0e02 	subs.w	lr, r9, r2
 80004de:	eb63 0c07 	sbc.w	ip, r3, r7
 80004e2:	3801      	subs	r0, #1
 80004e4:	e7a8      	b.n	8000438 <__udivmoddi4+0x1e8>
 80004e6:	4631      	mov	r1, r6
 80004e8:	e7ed      	b.n	80004c6 <__udivmoddi4+0x276>
 80004ea:	4603      	mov	r3, r0
 80004ec:	e799      	b.n	8000422 <__udivmoddi4+0x1d2>
 80004ee:	4630      	mov	r0, r6
 80004f0:	e7d4      	b.n	800049c <__udivmoddi4+0x24c>
 80004f2:	46d6      	mov	lr, sl
 80004f4:	e77f      	b.n	80003f6 <__udivmoddi4+0x1a6>
 80004f6:	4463      	add	r3, ip
 80004f8:	3802      	subs	r0, #2
 80004fa:	e74d      	b.n	8000398 <__udivmoddi4+0x148>
 80004fc:	4606      	mov	r6, r0
 80004fe:	4623      	mov	r3, r4
 8000500:	4608      	mov	r0, r1
 8000502:	e70f      	b.n	8000324 <__udivmoddi4+0xd4>
 8000504:	3e02      	subs	r6, #2
 8000506:	4463      	add	r3, ip
 8000508:	e730      	b.n	800036c <__udivmoddi4+0x11c>
 800050a:	bf00      	nop

0800050c <__aeabi_idiv0>:
 800050c:	4770      	bx	lr
 800050e:	bf00      	nop

08000510 <UART_TransmitString>:


extern UART_HandleTypeDef huart1;

void UART_TransmitString(char* str)
{
 8000510:	b580      	push	{r7, lr}
 8000512:	b084      	sub	sp, #16
 8000514:	af00      	add	r7, sp, #0
 8000516:	6078      	str	r0, [r7, #4]
	HAL_UART_Transmit(&huart1, (uint8_t*)str, strlen(str), HAL_MAX_DELAY);
 8000518:	6878      	ldr	r0, [r7, #4]
 800051a:	f7ff fe79 	bl	8000210 <strlen>
 800051e:	4603      	mov	r3, r0
 8000520:	b29a      	uxth	r2, r3
 8000522:	f04f 33ff 	mov.w	r3, #4294967295
 8000526:	6879      	ldr	r1, [r7, #4]
 8000528:	480e      	ldr	r0, [pc, #56]	@ (8000564 <UART_TransmitString+0x54>)
 800052a:	f003 fba1 	bl	8003c70 <HAL_UART_Transmit>
	char newLine[] = "\r\n";
 800052e:	4a0e      	ldr	r2, [pc, #56]	@ (8000568 <UART_TransmitString+0x58>)
 8000530:	f107 030c 	add.w	r3, r7, #12
 8000534:	6812      	ldr	r2, [r2, #0]
 8000536:	4611      	mov	r1, r2
 8000538:	8019      	strh	r1, [r3, #0]
 800053a:	3302      	adds	r3, #2
 800053c:	0c12      	lsrs	r2, r2, #16
 800053e:	701a      	strb	r2, [r3, #0]
	HAL_UART_Transmit(&huart1, (uint8_t*)newLine, strlen(newLine), HAL_MAX_DELAY);
 8000540:	f107 030c 	add.w	r3, r7, #12
 8000544:	4618      	mov	r0, r3
 8000546:	f7ff fe63 	bl	8000210 <strlen>
 800054a:	4603      	mov	r3, r0
 800054c:	b29a      	uxth	r2, r3
 800054e:	f107 010c 	add.w	r1, r7, #12
 8000552:	f04f 33ff 	mov.w	r3, #4294967295
 8000556:	4803      	ldr	r0, [pc, #12]	@ (8000564 <UART_TransmitString+0x54>)
 8000558:	f003 fb8a 	bl	8003c70 <HAL_UART_Transmit>
}
 800055c:	bf00      	nop
 800055e:	3710      	adds	r7, #16
 8000560:	46bd      	mov	sp, r7
 8000562:	bd80      	pop	{r7, pc}
 8000564:	200000e8 	.word	0x200000e8
 8000568:	08008014 	.word	0x08008014

0800056c <main>:
/**
  * @brief  The application entry point.
  * @retval int
  */
int main(void)
{
 800056c:	b580      	push	{r7, lr}
 800056e:	af00      	add	r7, sp, #0
  /* USER CODE END 1 */

  /* MCU Configuration--------------------------------------------------------*/

  /* Reset of all peripherals, Initializes the Flash interface and the Systick. */
  HAL_Init();
 8000570:	f001 f85f 	bl	8001632 <HAL_Init>
  /* USER CODE BEGIN Init */

  /* USER CODE END Init */

  /* Configure the system clock */
  SystemClock_Config();
 8000574:	f000 f884 	bl	8000680 <SystemClock_Config>
  /* USER CODE BEGIN SysInit */

  /* USER CODE END SysInit */

  /* Initialize all configured peripherals */
  MX_GPIO_Init();
 8000578:	f000 f996 	bl	80008a8 <MX_GPIO_Init>
  MX_ADC3_Init();
 800057c:	f000 f8f0 	bl	8000760 <MX_ADC3_Init>
  MX_CRC_Init();
 8000580:	f000 f940 	bl	8000804 <MX_CRC_Init>
  MX_USART1_UART_Init();
 8000584:	f000 f960 	bl	8000848 <MX_USART1_UART_Init>
  /* USER CODE BEGIN 2 */

  /* USER CODE END 2 */

  /* Init scheduler */
  osKernelInitialize();
 8000588:	f004 fb96 	bl	8004cb8 <osKernelInitialize>
  /* Create the mutex(es) */
  /* creation of RegimeMutex */
  RegimeMutexHandle = osMutexNew(&RegimeMutex_attributes);
 800058c:	4824      	ldr	r0, [pc, #144]	@ (8000620 <main+0xb4>)
 800058e:	f004 fd6b 	bl	8005068 <osMutexNew>
 8000592:	4603      	mov	r3, r0
 8000594:	4a23      	ldr	r2, [pc, #140]	@ (8000624 <main+0xb8>)
 8000596:	6013      	str	r3, [r2, #0]

  /* creation of RefRateMutex */
  RefRateMutexHandle = osMutexNew(&RefRateMutex_attributes);
 8000598:	4823      	ldr	r0, [pc, #140]	@ (8000628 <main+0xbc>)
 800059a:	f004 fd65 	bl	8005068 <osMutexNew>
 800059e:	4603      	mov	r3, r0
 80005a0:	4a22      	ldr	r2, [pc, #136]	@ (800062c <main+0xc0>)
 80005a2:	6013      	str	r3, [r2, #0]

  /* creation of UARTMutex */
  UARTMutexHandle = osMutexNew(&UARTMutex_attributes);
 80005a4:	4822      	ldr	r0, [pc, #136]	@ (8000630 <main+0xc4>)
 80005a6:	f004 fd5f 	bl	8005068 <osMutexNew>
 80005aa:	4603      	mov	r3, r0
 80005ac:	4a21      	ldr	r2, [pc, #132]	@ (8000634 <main+0xc8>)
 80005ae:	6013      	str	r3, [r2, #0]
  /* add semaphores, ... */
  /* USER CODE END RTOS_SEMAPHORES */

  /* Create the timer(s) */
  /* creation of LEDTimer */
  LEDTimerHandle = osTimerNew(LEDTimerCallback, osTimerPeriodic, NULL, &LEDTimer_attributes);
 80005b0:	4b21      	ldr	r3, [pc, #132]	@ (8000638 <main+0xcc>)
 80005b2:	2200      	movs	r2, #0
 80005b4:	2101      	movs	r1, #1
 80005b6:	4821      	ldr	r0, [pc, #132]	@ (800063c <main+0xd0>)
 80005b8:	f004 fcd2 	bl	8004f60 <osTimerNew>
 80005bc:	4603      	mov	r3, r0
 80005be:	4a20      	ldr	r2, [pc, #128]	@ (8000640 <main+0xd4>)
 80005c0:	6013      	str	r3, [r2, #0]

  /* creation of TransmitTimer */
  TransmitTimerHandle = osTimerNew(TransmitTimerCallback, osTimerPeriodic, NULL, &TransmitTimer_attributes);
 80005c2:	4b20      	ldr	r3, [pc, #128]	@ (8000644 <main+0xd8>)
 80005c4:	2200      	movs	r2, #0
 80005c6:	2101      	movs	r1, #1
 80005c8:	481f      	ldr	r0, [pc, #124]	@ (8000648 <main+0xdc>)
 80005ca:	f004 fcc9 	bl	8004f60 <osTimerNew>
 80005ce:	4603      	mov	r3, r0
 80005d0:	4a1e      	ldr	r2, [pc, #120]	@ (800064c <main+0xe0>)
 80005d2:	6013      	str	r3, [r2, #0]

  /* creation of ButtonTimer */
  ButtonTimerHandle = osTimerNew(ButtonTimerCallback, osTimerOnce, NULL, &ButtonTimer_attributes);
 80005d4:	4b1e      	ldr	r3, [pc, #120]	@ (8000650 <main+0xe4>)
 80005d6:	2200      	movs	r2, #0
 80005d8:	2100      	movs	r1, #0
 80005da:	481e      	ldr	r0, [pc, #120]	@ (8000654 <main+0xe8>)
 80005dc:	f004 fcc0 	bl	8004f60 <osTimerNew>
 80005e0:	4603      	mov	r3, r0
 80005e2:	4a1d      	ldr	r2, [pc, #116]	@ (8000658 <main+0xec>)
 80005e4:	6013      	str	r3, [r2, #0]
  /* add queues, ... */
  /* USER CODE END RTOS_QUEUES */

  /* Create the thread(s) */
  /* creation of MainTask */
  MainTaskHandle = osThreadNew(StartMainTask, NULL, &MainTask_attributes);
 80005e6:	4a1d      	ldr	r2, [pc, #116]	@ (800065c <main+0xf0>)
 80005e8:	2100      	movs	r1, #0
 80005ea:	481d      	ldr	r0, [pc, #116]	@ (8000660 <main+0xf4>)
 80005ec:	f004 fbce 	bl	8004d8c <osThreadNew>
 80005f0:	4603      	mov	r3, r0
 80005f2:	4a1c      	ldr	r2, [pc, #112]	@ (8000664 <main+0xf8>)
 80005f4:	6013      	str	r3, [r2, #0]

  /* creation of TerminalTask */
  TerminalTaskHandle = osThreadNew(StartTerminalTask, NULL, &TerminalTask_attributes);
 80005f6:	4a1c      	ldr	r2, [pc, #112]	@ (8000668 <main+0xfc>)
 80005f8:	2100      	movs	r1, #0
 80005fa:	481c      	ldr	r0, [pc, #112]	@ (800066c <main+0x100>)
 80005fc:	f004 fbc6 	bl	8004d8c <osThreadNew>
 8000600:	4603      	mov	r3, r0
 8000602:	4a1b      	ldr	r2, [pc, #108]	@ (8000670 <main+0x104>)
 8000604:	6013      	str	r3, [r2, #0]

  /* creation of ButtonTask */
  ButtonTaskHandle = osThreadNew(StartButtonTask, NULL, &ButtonTask_attributes);
 8000606:	4a1b      	ldr	r2, [pc, #108]	@ (8000674 <main+0x108>)
 8000608:	2100      	movs	r1, #0
 800060a:	481b      	ldr	r0, [pc, #108]	@ (8000678 <main+0x10c>)
 800060c:	f004 fbbe 	bl	8004d8c <osThreadNew>
 8000610:	4603      	mov	r3, r0
 8000612:	4a1a      	ldr	r2, [pc, #104]	@ (800067c <main+0x110>)
 8000614:	6013      	str	r3, [r2, #0]
  /* USER CODE BEGIN RTOS_EVENTS */
  /* add events, ... */
  /* USER CODE END RTOS_EVENTS */

  /* Start scheduler */
  osKernelStart();
 8000616:	f004 fb83 	bl	8004d20 <osKernelStart>

  /* We should never get here as control is now taken by the scheduler */

  /* Infinite loop */
  /* USER CODE BEGIN WHILE */
  while (1)
 800061a:	bf00      	nop
 800061c:	e7fd      	b.n	800061a <main+0xae>
 800061e:	bf00      	nop
 8000620:	08008154 	.word	0x08008154
 8000624:	20000188 	.word	0x20000188
 8000628:	08008164 	.word	0x08008164
 800062c:	2000018c 	.word	0x2000018c
 8000630:	08008174 	.word	0x08008174
 8000634:	20000190 	.word	0x20000190
 8000638:	08008124 	.word	0x08008124
 800063c:	080011a5 	.word	0x080011a5
 8000640:	2000017c 	.word	0x2000017c
 8000644:	08008134 	.word	0x08008134
 8000648:	080011b9 	.word	0x080011b9
 800064c:	20000180 	.word	0x20000180
 8000650:	08008144 	.word	0x08008144
 8000654:	080011cd 	.word	0x080011cd
 8000658:	20000184 	.word	0x20000184
 800065c:	080080b8 	.word	0x080080b8
 8000660:	08001161 	.word	0x08001161
 8000664:	20000170 	.word	0x20000170
 8000668:	080080dc 	.word	0x080080dc
 800066c:	08001185 	.word	0x08001185
 8000670:	20000174 	.word	0x20000174
 8000674:	08008100 	.word	0x08008100
 8000678:	08001195 	.word	0x08001195
 800067c:	20000178 	.word	0x20000178

08000680 <SystemClock_Config>:
/**
  * @brief System Clock Configuration
  * @retval None
  */
void SystemClock_Config(void)
{
 8000680:	b580      	push	{r7, lr}
 8000682:	b094      	sub	sp, #80	@ 0x50
 8000684:	af00      	add	r7, sp, #0
  RCC_OscInitTypeDef RCC_OscInitStruct = {0};
 8000686:	f107 0320 	add.w	r3, r7, #32
 800068a:	2230      	movs	r2, #48	@ 0x30
 800068c:	2100      	movs	r1, #0
 800068e:	4618      	mov	r0, r3
 8000690:	f007 fbcc 	bl	8007e2c <memset>
  RCC_ClkInitTypeDef RCC_ClkInitStruct = {0};
 8000694:	f107 030c 	add.w	r3, r7, #12
 8000698:	2200      	movs	r2, #0
 800069a:	601a      	str	r2, [r3, #0]
 800069c:	605a      	str	r2, [r3, #4]
 800069e:	609a      	str	r2, [r3, #8]
 80006a0:	60da      	str	r2, [r3, #12]
 80006a2:	611a      	str	r2, [r3, #16]

  /** Configure LSE Drive Capability
  */
  HAL_PWR_EnableBkUpAccess();
 80006a4:	f001 feaa 	bl	80023fc <HAL_PWR_EnableBkUpAccess>

  /** Configure the main internal regulator output voltage
  */
  __HAL_RCC_PWR_CLK_ENABLE();
 80006a8:	4b2b      	ldr	r3, [pc, #172]	@ (8000758 <SystemClock_Config+0xd8>)
 80006aa:	6c1b      	ldr	r3, [r3, #64]	@ 0x40
 80006ac:	4a2a      	ldr	r2, [pc, #168]	@ (8000758 <SystemClock_Config+0xd8>)
 80006ae:	f043 5380 	orr.w	r3, r3, #268435456	@ 0x10000000
 80006b2:	6413      	str	r3, [r2, #64]	@ 0x40
 80006b4:	4b28      	ldr	r3, [pc, #160]	@ (8000758 <SystemClock_Config+0xd8>)
 80006b6:	6c1b      	ldr	r3, [r3, #64]	@ 0x40
 80006b8:	f003 5380 	and.w	r3, r3, #268435456	@ 0x10000000
 80006bc:	60bb      	str	r3, [r7, #8]
 80006be:	68bb      	ldr	r3, [r7, #8]
  __HAL_PWR_VOLTAGESCALING_CONFIG(PWR_REGULATOR_VOLTAGE_SCALE1);
 80006c0:	4b26      	ldr	r3, [pc, #152]	@ (800075c <SystemClock_Config+0xdc>)
 80006c2:	681b      	ldr	r3, [r3, #0]
 80006c4:	4a25      	ldr	r2, [pc, #148]	@ (800075c <SystemClock_Config+0xdc>)
 80006c6:	f443 4340 	orr.w	r3, r3, #49152	@ 0xc000
 80006ca:	6013      	str	r3, [r2, #0]
 80006cc:	4b23      	ldr	r3, [pc, #140]	@ (800075c <SystemClock_Config+0xdc>)
 80006ce:	681b      	ldr	r3, [r3, #0]
 80006d0:	f403 4340 	and.w	r3, r3, #49152	@ 0xc000
 80006d4:	607b      	str	r3, [r7, #4]
 80006d6:	687b      	ldr	r3, [r7, #4]

  /** Initializes the RCC Oscillators according to the specified parameters
  * in the RCC_OscInitTypeDef structure.
  */
  RCC_OscInitStruct.OscillatorType = RCC_OSCILLATORTYPE_HSE;
 80006d8:	2301      	movs	r3, #1
 80006da:	623b      	str	r3, [r7, #32]
  RCC_OscInitStruct.HSEState = RCC_HSE_ON;
 80006dc:	f44f 3380 	mov.w	r3, #65536	@ 0x10000
 80006e0:	627b      	str	r3, [r7, #36]	@ 0x24
  RCC_OscInitStruct.PLL.PLLState = RCC_PLL_ON;
 80006e2:	2302      	movs	r3, #2
 80006e4:	63bb      	str	r3, [r7, #56]	@ 0x38
  RCC_OscInitStruct.PLL.PLLSource = RCC_PLLSOURCE_HSE;
 80006e6:	f44f 0380 	mov.w	r3, #4194304	@ 0x400000
 80006ea:	63fb      	str	r3, [r7, #60]	@ 0x3c
  RCC_OscInitStruct.PLL.PLLM = 25;
 80006ec:	2319      	movs	r3, #25
 80006ee:	643b      	str	r3, [r7, #64]	@ 0x40
  RCC_OscInitStruct.PLL.PLLN = 400;
 80006f0:	f44f 73c8 	mov.w	r3, #400	@ 0x190
 80006f4:	647b      	str	r3, [r7, #68]	@ 0x44
  RCC_OscInitStruct.PLL.PLLP = RCC_PLLP_DIV2;
 80006f6:	2302      	movs	r3, #2
 80006f8:	64bb      	str	r3, [r7, #72]	@ 0x48
  RCC_OscInitStruct.PLL.PLLQ = 9;
 80006fa:	2309      	movs	r3, #9
 80006fc:	64fb      	str	r3, [r7, #76]	@ 0x4c
  if (HAL_RCC_OscConfig(&RCC_OscInitStruct) != HAL_OK)
 80006fe:	f107 0320 	add.w	r3, r7, #32
 8000702:	4618      	mov	r0, r3
 8000704:	f001 feda 	bl	80024bc <HAL_RCC_OscConfig>
 8000708:	4603      	mov	r3, r0
 800070a:	2b00      	cmp	r3, #0
 800070c:	d001      	beq.n	8000712 <SystemClock_Config+0x92>
  {
    Error_Handler();
 800070e:	f000 fd79 	bl	8001204 <Error_Handler>
  }

  /** Activate the Over-Drive mode
  */
  if (HAL_PWREx_EnableOverDrive() != HAL_OK)
 8000712:	f001 fe83 	bl	800241c <HAL_PWREx_EnableOverDrive>
 8000716:	4603      	mov	r3, r0
 8000718:	2b00      	cmp	r3, #0
 800071a:	d001      	beq.n	8000720 <SystemClock_Config+0xa0>
  {
    Error_Handler();
 800071c:	f000 fd72 	bl	8001204 <Error_Handler>
  }

  /** Initializes the CPU, AHB and APB buses clocks
  */
  RCC_ClkInitStruct.ClockType = RCC_CLOCKTYPE_HCLK|RCC_CLOCKTYPE_SYSCLK
 8000720:	230f      	movs	r3, #15
 8000722:	60fb      	str	r3, [r7, #12]
                              |RCC_CLOCKTYPE_PCLK1|RCC_CLOCKTYPE_PCLK2;
  RCC_ClkInitStruct.SYSCLKSource = RCC_SYSCLKSOURCE_PLLCLK;
 8000724:	2302      	movs	r3, #2
 8000726:	613b      	str	r3, [r7, #16]
  RCC_ClkInitStruct.AHBCLKDivider = RCC_SYSCLK_DIV1;
 8000728:	2300      	movs	r3, #0
 800072a:	617b      	str	r3, [r7, #20]
  RCC_ClkInitStruct.APB1CLKDivider = RCC_HCLK_DIV4;
 800072c:	f44f 53a0 	mov.w	r3, #5120	@ 0x1400
 8000730:	61bb      	str	r3, [r7, #24]
  RCC_ClkInitStruct.APB2CLKDivider = RCC_HCLK_DIV2;
 8000732:	f44f 5380 	mov.w	r3, #4096	@ 0x1000
 8000736:	61fb      	str	r3, [r7, #28]

  if (HAL_RCC_ClockConfig(&RCC_ClkInitStruct, FLASH_LATENCY_6) != HAL_OK)
 8000738:	f107 030c 	add.w	r3, r7, #12
 800073c:	2106      	movs	r1, #6
 800073e:	4618      	mov	r0, r3
 8000740:	f002 f960 	bl	8002a04 <HAL_RCC_ClockConfig>
 8000744:	4603      	mov	r3, r0
 8000746:	2b00      	cmp	r3, #0
 8000748:	d001      	beq.n	800074e <SystemClock_Config+0xce>
  {
    Error_Handler();
 800074a:	f000 fd5b 	bl	8001204 <Error_Handler>
  }
}
 800074e:	bf00      	nop
 8000750:	3750      	adds	r7, #80	@ 0x50
 8000752:	46bd      	mov	sp, r7
 8000754:	bd80      	pop	{r7, pc}
 8000756:	bf00      	nop
 8000758:	40023800 	.word	0x40023800
 800075c:	40007000 	.word	0x40007000

08000760 <MX_ADC3_Init>:
  * @brief ADC3 Initialization Function
  * @param None
  * @retval None
  */
static void MX_ADC3_Init(void)
{
 8000760:	b580      	push	{r7, lr}
 8000762:	b084      	sub	sp, #16
 8000764:	af00      	add	r7, sp, #0

  /* USER CODE BEGIN ADC3_Init 0 */

  /* USER CODE END ADC3_Init 0 */

  ADC_ChannelConfTypeDef sConfig = {0};
 8000766:	463b      	mov	r3, r7
 8000768:	2200      	movs	r2, #0
 800076a:	601a      	str	r2, [r3, #0]
 800076c:	605a      	str	r2, [r3, #4]
 800076e:	609a      	str	r2, [r3, #8]
 8000770:	60da      	str	r2, [r3, #12]

  /* USER CODE END ADC3_Init 1 */

  /** Configure the global features of the ADC (Clock, Resolution, Data Alignment and number of conversion)
  */
  hadc3.Instance = ADC3;
 8000772:	4b21      	ldr	r3, [pc, #132]	@ (80007f8 <MX_ADC3_Init+0x98>)
 8000774:	4a21      	ldr	r2, [pc, #132]	@ (80007fc <MX_ADC3_Init+0x9c>)
 8000776:	601a      	str	r2, [r3, #0]
  hadc3.Init.ClockPrescaler = ADC_CLOCK_SYNC_PCLK_DIV4;
 8000778:	4b1f      	ldr	r3, [pc, #124]	@ (80007f8 <MX_ADC3_Init+0x98>)
 800077a:	f44f 3280 	mov.w	r2, #65536	@ 0x10000
 800077e:	605a      	str	r2, [r3, #4]
  hadc3.Init.Resolution = ADC_RESOLUTION_12B;
 8000780:	4b1d      	ldr	r3, [pc, #116]	@ (80007f8 <MX_ADC3_Init+0x98>)
 8000782:	2200      	movs	r2, #0
 8000784:	609a      	str	r2, [r3, #8]
  hadc3.Init.ScanConvMode = ADC_SCAN_DISABLE;
 8000786:	4b1c      	ldr	r3, [pc, #112]	@ (80007f8 <MX_ADC3_Init+0x98>)
 8000788:	2200      	movs	r2, #0
 800078a:	611a      	str	r2, [r3, #16]
  hadc3.Init.ContinuousConvMode = DISABLE;
 800078c:	4b1a      	ldr	r3, [pc, #104]	@ (80007f8 <MX_ADC3_Init+0x98>)
 800078e:	2200      	movs	r2, #0
 8000790:	619a      	str	r2, [r3, #24]
  hadc3.Init.DiscontinuousConvMode = DISABLE;
 8000792:	4b19      	ldr	r3, [pc, #100]	@ (80007f8 <MX_ADC3_Init+0x98>)
 8000794:	2200      	movs	r2, #0
 8000796:	f883 2020 	strb.w	r2, [r3, #32]
  hadc3.Init.ExternalTrigConvEdge = ADC_EXTERNALTRIGCONVEDGE_NONE;
 800079a:	4b17      	ldr	r3, [pc, #92]	@ (80007f8 <MX_ADC3_Init+0x98>)
 800079c:	2200      	movs	r2, #0
 800079e:	62da      	str	r2, [r3, #44]	@ 0x2c
  hadc3.Init.ExternalTrigConv = ADC_SOFTWARE_START;
 80007a0:	4b15      	ldr	r3, [pc, #84]	@ (80007f8 <MX_ADC3_Init+0x98>)
 80007a2:	4a17      	ldr	r2, [pc, #92]	@ (8000800 <MX_ADC3_Init+0xa0>)
 80007a4:	629a      	str	r2, [r3, #40]	@ 0x28
  hadc3.Init.DataAlign = ADC_DATAALIGN_RIGHT;
 80007a6:	4b14      	ldr	r3, [pc, #80]	@ (80007f8 <MX_ADC3_Init+0x98>)
 80007a8:	2200      	movs	r2, #0
 80007aa:	60da      	str	r2, [r3, #12]
  hadc3.Init.NbrOfConversion = 1;
 80007ac:	4b12      	ldr	r3, [pc, #72]	@ (80007f8 <MX_ADC3_Init+0x98>)
 80007ae:	2201      	movs	r2, #1
 80007b0:	61da      	str	r2, [r3, #28]
  hadc3.Init.DMAContinuousRequests = DISABLE;
 80007b2:	4b11      	ldr	r3, [pc, #68]	@ (80007f8 <MX_ADC3_Init+0x98>)
 80007b4:	2200      	movs	r2, #0
 80007b6:	f883 2030 	strb.w	r2, [r3, #48]	@ 0x30
  hadc3.Init.EOCSelection = ADC_EOC_SINGLE_CONV;
 80007ba:	4b0f      	ldr	r3, [pc, #60]	@ (80007f8 <MX_ADC3_Init+0x98>)
 80007bc:	2201      	movs	r2, #1
 80007be:	615a      	str	r2, [r3, #20]
  if (HAL_ADC_Init(&hadc3) != HAL_OK)
 80007c0:	480d      	ldr	r0, [pc, #52]	@ (80007f8 <MX_ADC3_Init+0x98>)
 80007c2:	f000 ff63 	bl	800168c <HAL_ADC_Init>
 80007c6:	4603      	mov	r3, r0
 80007c8:	2b00      	cmp	r3, #0
 80007ca:	d001      	beq.n	80007d0 <MX_ADC3_Init+0x70>
  {
    Error_Handler();
 80007cc:	f000 fd1a 	bl	8001204 <Error_Handler>
  }

  /** Configure for the selected ADC regular channel its corresponding rank in the sequencer and its sample time.
  */
  sConfig.Channel = ADC_CHANNEL_0;
 80007d0:	2300      	movs	r3, #0
 80007d2:	603b      	str	r3, [r7, #0]
  sConfig.Rank = ADC_REGULAR_RANK_1;
 80007d4:	2301      	movs	r3, #1
 80007d6:	607b      	str	r3, [r7, #4]
  sConfig.SamplingTime = ADC_SAMPLETIME_3CYCLES;
 80007d8:	2300      	movs	r3, #0
 80007da:	60bb      	str	r3, [r7, #8]
  if (HAL_ADC_ConfigChannel(&hadc3, &sConfig) != HAL_OK)
 80007dc:	463b      	mov	r3, r7
 80007de:	4619      	mov	r1, r3
 80007e0:	4805      	ldr	r0, [pc, #20]	@ (80007f8 <MX_ADC3_Init+0x98>)
 80007e2:	f000 ff97 	bl	8001714 <HAL_ADC_ConfigChannel>
 80007e6:	4603      	mov	r3, r0
 80007e8:	2b00      	cmp	r3, #0
 80007ea:	d001      	beq.n	80007f0 <MX_ADC3_Init+0x90>
  {
    Error_Handler();
 80007ec:	f000 fd0a 	bl	8001204 <Error_Handler>
  }
  /* USER CODE BEGIN ADC3_Init 2 */

  /* USER CODE END ADC3_Init 2 */

}
 80007f0:	bf00      	nop
 80007f2:	3710      	adds	r7, #16
 80007f4:	46bd      	mov	sp, r7
 80007f6:	bd80      	pop	{r7, pc}
 80007f8:	2000007c 	.word	0x2000007c
 80007fc:	40012200 	.word	0x40012200
 8000800:	0f000001 	.word	0x0f000001

08000804 <MX_CRC_Init>:
  * @brief CRC Initialization Function
  * @param None
  * @retval None
  */
static void MX_CRC_Init(void)
{
 8000804:	b580      	push	{r7, lr}
 8000806:	af00      	add	r7, sp, #0
  /* USER CODE END CRC_Init 0 */

  /* USER CODE BEGIN CRC_Init 1 */

  /* USER CODE END CRC_Init 1 */
  hcrc.Instance = CRC;
 8000808:	4b0d      	ldr	r3, [pc, #52]	@ (8000840 <MX_CRC_Init+0x3c>)
 800080a:	4a0e      	ldr	r2, [pc, #56]	@ (8000844 <MX_CRC_Init+0x40>)
 800080c:	601a      	str	r2, [r3, #0]
  hcrc.Init.DefaultPolynomialUse = DEFAULT_POLYNOMIAL_ENABLE;
 800080e:	4b0c      	ldr	r3, [pc, #48]	@ (8000840 <MX_CRC_Init+0x3c>)
 8000810:	2200      	movs	r2, #0
 8000812:	711a      	strb	r2, [r3, #4]
  hcrc.Init.DefaultInitValueUse = DEFAULT_INIT_VALUE_ENABLE;
 8000814:	4b0a      	ldr	r3, [pc, #40]	@ (8000840 <MX_CRC_Init+0x3c>)
 8000816:	2200      	movs	r2, #0
 8000818:	715a      	strb	r2, [r3, #5]
  hcrc.Init.InputDataInversionMode = CRC_INPUTDATA_INVERSION_NONE;
 800081a:	4b09      	ldr	r3, [pc, #36]	@ (8000840 <MX_CRC_Init+0x3c>)
 800081c:	2200      	movs	r2, #0
 800081e:	615a      	str	r2, [r3, #20]
  hcrc.Init.OutputDataInversionMode = CRC_OUTPUTDATA_INVERSION_DISABLE;
 8000820:	4b07      	ldr	r3, [pc, #28]	@ (8000840 <MX_CRC_Init+0x3c>)
 8000822:	2200      	movs	r2, #0
 8000824:	619a      	str	r2, [r3, #24]
  hcrc.InputDataFormat = CRC_INPUTDATA_FORMAT_BYTES;
 8000826:	4b06      	ldr	r3, [pc, #24]	@ (8000840 <MX_CRC_Init+0x3c>)
 8000828:	2201      	movs	r2, #1
 800082a:	621a      	str	r2, [r3, #32]
  if (HAL_CRC_Init(&hcrc) != HAL_OK)
 800082c:	4804      	ldr	r0, [pc, #16]	@ (8000840 <MX_CRC_Init+0x3c>)
 800082e:	f001 faa3 	bl	8001d78 <HAL_CRC_Init>
 8000832:	4603      	mov	r3, r0
 8000834:	2b00      	cmp	r3, #0
 8000836:	d001      	beq.n	800083c <MX_CRC_Init+0x38>
  {
    Error_Handler();
 8000838:	f000 fce4 	bl	8001204 <Error_Handler>
  }
  /* USER CODE BEGIN CRC_Init 2 */

  /* USER CODE END CRC_Init 2 */

}
 800083c:	bf00      	nop
 800083e:	bd80      	pop	{r7, pc}
 8000840:	200000c4 	.word	0x200000c4
 8000844:	40023000 	.word	0x40023000

08000848 <MX_USART1_UART_Init>:
  * @brief USART1 Initialization Function
  * @param None
  * @retval None
  */
static void MX_USART1_UART_Init(void)
{
 8000848:	b580      	push	{r7, lr}
 800084a:	af00      	add	r7, sp, #0
  /* USER CODE END USART1_Init 0 */

  /* USER CODE BEGIN USART1_Init 1 */

  /* USER CODE END USART1_Init 1 */
  huart1.Instance = USART1;
 800084c:	4b14      	ldr	r3, [pc, #80]	@ (80008a0 <MX_USART1_UART_Init+0x58>)
 800084e:	4a15      	ldr	r2, [pc, #84]	@ (80008a4 <MX_USART1_UART_Init+0x5c>)
 8000850:	601a      	str	r2, [r3, #0]
  huart1.Init.BaudRate = 115200;
 8000852:	4b13      	ldr	r3, [pc, #76]	@ (80008a0 <MX_USART1_UART_Init+0x58>)
 8000854:	f44f 32e1 	mov.w	r2, #115200	@ 0x1c200
 8000858:	605a      	str	r2, [r3, #4]
  huart1.Init.WordLength = UART_WORDLENGTH_8B;
 800085a:	4b11      	ldr	r3, [pc, #68]	@ (80008a0 <MX_USART1_UART_Init+0x58>)
 800085c:	2200      	movs	r2, #0
 800085e:	609a      	str	r2, [r3, #8]
  huart1.Init.StopBits = UART_STOPBITS_1;
 8000860:	4b0f      	ldr	r3, [pc, #60]	@ (80008a0 <MX_USART1_UART_Init+0x58>)
 8000862:	2200      	movs	r2, #0
 8000864:	60da      	str	r2, [r3, #12]
  huart1.Init.Parity = UART_PARITY_NONE;
 8000866:	4b0e      	ldr	r3, [pc, #56]	@ (80008a0 <MX_USART1_UART_Init+0x58>)
 8000868:	2200      	movs	r2, #0
 800086a:	611a      	str	r2, [r3, #16]
  huart1.Init.Mode = UART_MODE_TX_RX;
 800086c:	4b0c      	ldr	r3, [pc, #48]	@ (80008a0 <MX_USART1_UART_Init+0x58>)
 800086e:	220c      	movs	r2, #12
 8000870:	615a      	str	r2, [r3, #20]
  huart1.Init.HwFlowCtl = UART_HWCONTROL_NONE;
 8000872:	4b0b      	ldr	r3, [pc, #44]	@ (80008a0 <MX_USART1_UART_Init+0x58>)
 8000874:	2200      	movs	r2, #0
 8000876:	619a      	str	r2, [r3, #24]
  huart1.Init.OverSampling = UART_OVERSAMPLING_16;
 8000878:	4b09      	ldr	r3, [pc, #36]	@ (80008a0 <MX_USART1_UART_Init+0x58>)
 800087a:	2200      	movs	r2, #0
 800087c:	61da      	str	r2, [r3, #28]
  huart1.Init.OneBitSampling = UART_ONE_BIT_SAMPLE_DISABLE;
 800087e:	4b08      	ldr	r3, [pc, #32]	@ (80008a0 <MX_USART1_UART_Init+0x58>)
 8000880:	2200      	movs	r2, #0
 8000882:	621a      	str	r2, [r3, #32]
  huart1.AdvancedInit.AdvFeatureInit = UART_ADVFEATURE_NO_INIT;
 8000884:	4b06      	ldr	r3, [pc, #24]	@ (80008a0 <MX_USART1_UART_Init+0x58>)
 8000886:	2200      	movs	r2, #0
 8000888:	625a      	str	r2, [r3, #36]	@ 0x24
  if (HAL_UART_Init(&huart1) != HAL_OK)
 800088a:	4805      	ldr	r0, [pc, #20]	@ (80008a0 <MX_USART1_UART_Init+0x58>)
 800088c:	f003 f9a2 	bl	8003bd4 <HAL_UART_Init>
 8000890:	4603      	mov	r3, r0
 8000892:	2b00      	cmp	r3, #0
 8000894:	d001      	beq.n	800089a <MX_USART1_UART_Init+0x52>
  {
    Error_Handler();
 8000896:	f000 fcb5 	bl	8001204 <Error_Handler>
  }
  /* USER CODE BEGIN USART1_Init 2 */

  /* USER CODE END USART1_Init 2 */

}
 800089a:	bf00      	nop
 800089c:	bd80      	pop	{r7, pc}
 800089e:	bf00      	nop
 80008a0:	200000e8 	.word	0x200000e8
 80008a4:	40011000 	.word	0x40011000

080008a8 <MX_GPIO_Init>:
  * @brief GPIO Initialization Function
  * @param None
  * @retval None
  */
static void MX_GPIO_Init(void)
{
 80008a8:	b580      	push	{r7, lr}
 80008aa:	b090      	sub	sp, #64	@ 0x40
 80008ac:	af00      	add	r7, sp, #0
  GPIO_InitTypeDef GPIO_InitStruct = {0};
 80008ae:	f107 032c 	add.w	r3, r7, #44	@ 0x2c
 80008b2:	2200      	movs	r2, #0
 80008b4:	601a      	str	r2, [r3, #0]
 80008b6:	605a      	str	r2, [r3, #4]
 80008b8:	609a      	str	r2, [r3, #8]
 80008ba:	60da      	str	r2, [r3, #12]
 80008bc:	611a      	str	r2, [r3, #16]
/* USER CODE BEGIN MX_GPIO_Init_1 */
/* USER CODE END MX_GPIO_Init_1 */

  /* GPIO Ports Clock Enable */
  __HAL_RCC_GPIOE_CLK_ENABLE();
 80008be:	4baf      	ldr	r3, [pc, #700]	@ (8000b7c <MX_GPIO_Init+0x2d4>)
 80008c0:	6b1b      	ldr	r3, [r3, #48]	@ 0x30
 80008c2:	4aae      	ldr	r2, [pc, #696]	@ (8000b7c <MX_GPIO_Init+0x2d4>)
 80008c4:	f043 0310 	orr.w	r3, r3, #16
 80008c8:	6313      	str	r3, [r2, #48]	@ 0x30
 80008ca:	4bac      	ldr	r3, [pc, #688]	@ (8000b7c <MX_GPIO_Init+0x2d4>)
 80008cc:	6b1b      	ldr	r3, [r3, #48]	@ 0x30
 80008ce:	f003 0310 	and.w	r3, r3, #16
 80008d2:	62bb      	str	r3, [r7, #40]	@ 0x28
 80008d4:	6abb      	ldr	r3, [r7, #40]	@ 0x28
  __HAL_RCC_GPIOG_CLK_ENABLE();
 80008d6:	4ba9      	ldr	r3, [pc, #676]	@ (8000b7c <MX_GPIO_Init+0x2d4>)
 80008d8:	6b1b      	ldr	r3, [r3, #48]	@ 0x30
 80008da:	4aa8      	ldr	r2, [pc, #672]	@ (8000b7c <MX_GPIO_Init+0x2d4>)
 80008dc:	f043 0340 	orr.w	r3, r3, #64	@ 0x40
 80008e0:	6313      	str	r3, [r2, #48]	@ 0x30
 80008e2:	4ba6      	ldr	r3, [pc, #664]	@ (8000b7c <MX_GPIO_Init+0x2d4>)
 80008e4:	6b1b      	ldr	r3, [r3, #48]	@ 0x30
 80008e6:	f003 0340 	and.w	r3, r3, #64	@ 0x40
 80008ea:	627b      	str	r3, [r7, #36]	@ 0x24
 80008ec:	6a7b      	ldr	r3, [r7, #36]	@ 0x24
  __HAL_RCC_GPIOB_CLK_ENABLE();
 80008ee:	4ba3      	ldr	r3, [pc, #652]	@ (8000b7c <MX_GPIO_Init+0x2d4>)
 80008f0:	6b1b      	ldr	r3, [r3, #48]	@ 0x30
 80008f2:	4aa2      	ldr	r2, [pc, #648]	@ (8000b7c <MX_GPIO_Init+0x2d4>)
 80008f4:	f043 0302 	orr.w	r3, r3, #2
 80008f8:	6313      	str	r3, [r2, #48]	@ 0x30
 80008fa:	4ba0      	ldr	r3, [pc, #640]	@ (8000b7c <MX_GPIO_Init+0x2d4>)
 80008fc:	6b1b      	ldr	r3, [r3, #48]	@ 0x30
 80008fe:	f003 0302 	and.w	r3, r3, #2
 8000902:	623b      	str	r3, [r7, #32]
 8000904:	6a3b      	ldr	r3, [r7, #32]
  __HAL_RCC_GPIOD_CLK_ENABLE();
 8000906:	4b9d      	ldr	r3, [pc, #628]	@ (8000b7c <MX_GPIO_Init+0x2d4>)
 8000908:	6b1b      	ldr	r3, [r3, #48]	@ 0x30
 800090a:	4a9c      	ldr	r2, [pc, #624]	@ (8000b7c <MX_GPIO_Init+0x2d4>)
 800090c:	f043 0308 	orr.w	r3, r3, #8
 8000910:	6313      	str	r3, [r2, #48]	@ 0x30
 8000912:	4b9a      	ldr	r3, [pc, #616]	@ (8000b7c <MX_GPIO_Init+0x2d4>)
 8000914:	6b1b      	ldr	r3, [r3, #48]	@ 0x30
 8000916:	f003 0308 	and.w	r3, r3, #8
 800091a:	61fb      	str	r3, [r7, #28]
 800091c:	69fb      	ldr	r3, [r7, #28]
  __HAL_RCC_GPIOC_CLK_ENABLE();
 800091e:	4b97      	ldr	r3, [pc, #604]	@ (8000b7c <MX_GPIO_Init+0x2d4>)
 8000920:	6b1b      	ldr	r3, [r3, #48]	@ 0x30
 8000922:	4a96      	ldr	r2, [pc, #600]	@ (8000b7c <MX_GPIO_Init+0x2d4>)
 8000924:	f043 0304 	orr.w	r3, r3, #4
 8000928:	6313      	str	r3, [r2, #48]	@ 0x30
 800092a:	4b94      	ldr	r3, [pc, #592]	@ (8000b7c <MX_GPIO_Init+0x2d4>)
 800092c:	6b1b      	ldr	r3, [r3, #48]	@ 0x30
 800092e:	f003 0304 	and.w	r3, r3, #4
 8000932:	61bb      	str	r3, [r7, #24]
 8000934:	69bb      	ldr	r3, [r7, #24]
  __HAL_RCC_GPIOA_CLK_ENABLE();
 8000936:	4b91      	ldr	r3, [pc, #580]	@ (8000b7c <MX_GPIO_Init+0x2d4>)
 8000938:	6b1b      	ldr	r3, [r3, #48]	@ 0x30
 800093a:	4a90      	ldr	r2, [pc, #576]	@ (8000b7c <MX_GPIO_Init+0x2d4>)
 800093c:	f043 0301 	orr.w	r3, r3, #1
 8000940:	6313      	str	r3, [r2, #48]	@ 0x30
 8000942:	4b8e      	ldr	r3, [pc, #568]	@ (8000b7c <MX_GPIO_Init+0x2d4>)
 8000944:	6b1b      	ldr	r3, [r3, #48]	@ 0x30
 8000946:	f003 0301 	and.w	r3, r3, #1
 800094a:	617b      	str	r3, [r7, #20]
 800094c:	697b      	ldr	r3, [r7, #20]
  __HAL_RCC_GPIOJ_CLK_ENABLE();
 800094e:	4b8b      	ldr	r3, [pc, #556]	@ (8000b7c <MX_GPIO_Init+0x2d4>)
 8000950:	6b1b      	ldr	r3, [r3, #48]	@ 0x30
 8000952:	4a8a      	ldr	r2, [pc, #552]	@ (8000b7c <MX_GPIO_Init+0x2d4>)
 8000954:	f443 7300 	orr.w	r3, r3, #512	@ 0x200
 8000958:	6313      	str	r3, [r2, #48]	@ 0x30
 800095a:	4b88      	ldr	r3, [pc, #544]	@ (8000b7c <MX_GPIO_Init+0x2d4>)
 800095c:	6b1b      	ldr	r3, [r3, #48]	@ 0x30
 800095e:	f403 7300 	and.w	r3, r3, #512	@ 0x200
 8000962:	613b      	str	r3, [r7, #16]
 8000964:	693b      	ldr	r3, [r7, #16]
  __HAL_RCC_GPIOI_CLK_ENABLE();
 8000966:	4b85      	ldr	r3, [pc, #532]	@ (8000b7c <MX_GPIO_Init+0x2d4>)
 8000968:	6b1b      	ldr	r3, [r3, #48]	@ 0x30
 800096a:	4a84      	ldr	r2, [pc, #528]	@ (8000b7c <MX_GPIO_Init+0x2d4>)
 800096c:	f443 7380 	orr.w	r3, r3, #256	@ 0x100
 8000970:	6313      	str	r3, [r2, #48]	@ 0x30
 8000972:	4b82      	ldr	r3, [pc, #520]	@ (8000b7c <MX_GPIO_Init+0x2d4>)
 8000974:	6b1b      	ldr	r3, [r3, #48]	@ 0x30
 8000976:	f403 7380 	and.w	r3, r3, #256	@ 0x100
 800097a:	60fb      	str	r3, [r7, #12]
 800097c:	68fb      	ldr	r3, [r7, #12]
  __HAL_RCC_GPIOK_CLK_ENABLE();
 800097e:	4b7f      	ldr	r3, [pc, #508]	@ (8000b7c <MX_GPIO_Init+0x2d4>)
 8000980:	6b1b      	ldr	r3, [r3, #48]	@ 0x30
 8000982:	4a7e      	ldr	r2, [pc, #504]	@ (8000b7c <MX_GPIO_Init+0x2d4>)
 8000984:	f443 6380 	orr.w	r3, r3, #1024	@ 0x400
 8000988:	6313      	str	r3, [r2, #48]	@ 0x30
 800098a:	4b7c      	ldr	r3, [pc, #496]	@ (8000b7c <MX_GPIO_Init+0x2d4>)
 800098c:	6b1b      	ldr	r3, [r3, #48]	@ 0x30
 800098e:	f403 6380 	and.w	r3, r3, #1024	@ 0x400
 8000992:	60bb      	str	r3, [r7, #8]
 8000994:	68bb      	ldr	r3, [r7, #8]
  __HAL_RCC_GPIOF_CLK_ENABLE();
 8000996:	4b79      	ldr	r3, [pc, #484]	@ (8000b7c <MX_GPIO_Init+0x2d4>)
 8000998:	6b1b      	ldr	r3, [r3, #48]	@ 0x30
 800099a:	4a78      	ldr	r2, [pc, #480]	@ (8000b7c <MX_GPIO_Init+0x2d4>)
 800099c:	f043 0320 	orr.w	r3, r3, #32
 80009a0:	6313      	str	r3, [r2, #48]	@ 0x30
 80009a2:	4b76      	ldr	r3, [pc, #472]	@ (8000b7c <MX_GPIO_Init+0x2d4>)
 80009a4:	6b1b      	ldr	r3, [r3, #48]	@ 0x30
 80009a6:	f003 0320 	and.w	r3, r3, #32
 80009aa:	607b      	str	r3, [r7, #4]
 80009ac:	687b      	ldr	r3, [r7, #4]
  __HAL_RCC_GPIOH_CLK_ENABLE();
 80009ae:	4b73      	ldr	r3, [pc, #460]	@ (8000b7c <MX_GPIO_Init+0x2d4>)
 80009b0:	6b1b      	ldr	r3, [r3, #48]	@ 0x30
 80009b2:	4a72      	ldr	r2, [pc, #456]	@ (8000b7c <MX_GPIO_Init+0x2d4>)
 80009b4:	f043 0380 	orr.w	r3, r3, #128	@ 0x80
 80009b8:	6313      	str	r3, [r2, #48]	@ 0x30
 80009ba:	4b70      	ldr	r3, [pc, #448]	@ (8000b7c <MX_GPIO_Init+0x2d4>)
 80009bc:	6b1b      	ldr	r3, [r3, #48]	@ 0x30
 80009be:	f003 0380 	and.w	r3, r3, #128	@ 0x80
 80009c2:	603b      	str	r3, [r7, #0]
 80009c4:	683b      	ldr	r3, [r7, #0]

  /*Configure GPIO pin Output Level */
  HAL_GPIO_WritePin(IndicatorYellow2_GPIO_Port, IndicatorYellow2_Pin, GPIO_PIN_RESET);
 80009c6:	2200      	movs	r2, #0
 80009c8:	2110      	movs	r1, #16
 80009ca:	486d      	ldr	r0, [pc, #436]	@ (8000b80 <MX_GPIO_Init+0x2d8>)
 80009cc:	f001 fcfc 	bl	80023c8 <HAL_GPIO_WritePin>

  /*Configure GPIO pin Output Level */
  HAL_GPIO_WritePin(OTG_FS_PowerSwitchOn_GPIO_Port, OTG_FS_PowerSwitchOn_Pin, GPIO_PIN_SET);
 80009d0:	2201      	movs	r2, #1
 80009d2:	2120      	movs	r1, #32
 80009d4:	486b      	ldr	r0, [pc, #428]	@ (8000b84 <MX_GPIO_Init+0x2dc>)
 80009d6:	f001 fcf7 	bl	80023c8 <HAL_GPIO_WritePin>

  /*Configure GPIO pin Output Level */
  HAL_GPIO_WritePin(GPIOI, Led_out_Pin|Buzzer_out_Pin|IndicatorBlue2_Pin, GPIO_PIN_RESET);
 80009da:	2200      	movs	r2, #0
 80009dc:	210d      	movs	r1, #13
 80009de:	486a      	ldr	r0, [pc, #424]	@ (8000b88 <MX_GPIO_Init+0x2e0>)
 80009e0:	f001 fcf2 	bl	80023c8 <HAL_GPIO_WritePin>

  /*Configure GPIO pin Output Level */
  HAL_GPIO_WritePin(LCD_BL_CTRL_GPIO_Port, LCD_BL_CTRL_Pin, GPIO_PIN_SET);
 80009e4:	2201      	movs	r2, #1
 80009e6:	2108      	movs	r1, #8
 80009e8:	4868      	ldr	r0, [pc, #416]	@ (8000b8c <MX_GPIO_Init+0x2e4>)
 80009ea:	f001 fced 	bl	80023c8 <HAL_GPIO_WritePin>

  /*Configure GPIO pin Output Level */
  HAL_GPIO_WritePin(LCD_DISP_GPIO_Port, LCD_DISP_Pin, GPIO_PIN_SET);
 80009ee:	2201      	movs	r2, #1
 80009f0:	f44f 5180 	mov.w	r1, #4096	@ 0x1000
 80009f4:	4864      	ldr	r0, [pc, #400]	@ (8000b88 <MX_GPIO_Init+0x2e0>)
 80009f6:	f001 fce7 	bl	80023c8 <HAL_GPIO_WritePin>

  /*Configure GPIO pin Output Level */
  HAL_GPIO_WritePin(GPIOH, DCMI_PWR_EN_Pin|IndicatorBlue3_Pin, GPIO_PIN_RESET);
 80009fa:	2200      	movs	r2, #0
 80009fc:	f44f 5101 	mov.w	r1, #8256	@ 0x2040
 8000a00:	4863      	ldr	r0, [pc, #396]	@ (8000b90 <MX_GPIO_Init+0x2e8>)
 8000a02:	f001 fce1 	bl	80023c8 <HAL_GPIO_WritePin>

  /*Configure GPIO pin Output Level */
  HAL_GPIO_WritePin(IndicatorGreen_GPIO_Port, IndicatorGreen_Pin, GPIO_PIN_RESET);
 8000a06:	2200      	movs	r2, #0
 8000a08:	2140      	movs	r1, #64	@ 0x40
 8000a0a:	4862      	ldr	r0, [pc, #392]	@ (8000b94 <MX_GPIO_Init+0x2ec>)
 8000a0c:	f001 fcdc 	bl	80023c8 <HAL_GPIO_WritePin>

  /*Configure GPIO pin Output Level */
  HAL_GPIO_WritePin(GPIOG, IndicatorBlue1_Pin|IndicatorYellow1_Pin|EXT_RST_Pin, GPIO_PIN_RESET);
 8000a10:	2200      	movs	r2, #0
 8000a12:	21c8      	movs	r1, #200	@ 0xc8
 8000a14:	4860      	ldr	r0, [pc, #384]	@ (8000b98 <MX_GPIO_Init+0x2f0>)
 8000a16:	f001 fcd7 	bl	80023c8 <HAL_GPIO_WritePin>

  /*Configure GPIO pin : LCD_B0_Pin */
  GPIO_InitStruct.Pin = LCD_B0_Pin;
 8000a1a:	2310      	movs	r3, #16
 8000a1c:	62fb      	str	r3, [r7, #44]	@ 0x2c
  GPIO_InitStruct.Mode = GPIO_MODE_AF_PP;
 8000a1e:	2302      	movs	r3, #2
 8000a20:	633b      	str	r3, [r7, #48]	@ 0x30
  GPIO_InitStruct.Pull = GPIO_NOPULL;
 8000a22:	2300      	movs	r3, #0
 8000a24:	637b      	str	r3, [r7, #52]	@ 0x34
  GPIO_InitStruct.Speed = GPIO_SPEED_FREQ_LOW;
 8000a26:	2300      	movs	r3, #0
 8000a28:	63bb      	str	r3, [r7, #56]	@ 0x38
  GPIO_InitStruct.Alternate = GPIO_AF14_LTDC;
 8000a2a:	230e      	movs	r3, #14
 8000a2c:	63fb      	str	r3, [r7, #60]	@ 0x3c
  HAL_GPIO_Init(LCD_B0_GPIO_Port, &GPIO_InitStruct);
 8000a2e:	f107 032c 	add.w	r3, r7, #44	@ 0x2c
 8000a32:	4619      	mov	r1, r3
 8000a34:	4859      	ldr	r0, [pc, #356]	@ (8000b9c <MX_GPIO_Init+0x2f4>)
 8000a36:	f001 fb1b 	bl	8002070 <HAL_GPIO_Init>

  /*Configure GPIO pin : OTG_HS_OverCurrent_Pin */
  GPIO_InitStruct.Pin = OTG_HS_OverCurrent_Pin;
 8000a3a:	2308      	movs	r3, #8
 8000a3c:	62fb      	str	r3, [r7, #44]	@ 0x2c
  GPIO_InitStruct.Mode = GPIO_MODE_INPUT;
 8000a3e:	2300      	movs	r3, #0
 8000a40:	633b      	str	r3, [r7, #48]	@ 0x30
  GPIO_InitStruct.Pull = GPIO_NOPULL;
 8000a42:	2300      	movs	r3, #0
 8000a44:	637b      	str	r3, [r7, #52]	@ 0x34
  HAL_GPIO_Init(OTG_HS_OverCurrent_GPIO_Port, &GPIO_InitStruct);
 8000a46:	f107 032c 	add.w	r3, r7, #44	@ 0x2c
 8000a4a:	4619      	mov	r1, r3
 8000a4c:	4853      	ldr	r0, [pc, #332]	@ (8000b9c <MX_GPIO_Init+0x2f4>)
 8000a4e:	f001 fb0f 	bl	8002070 <HAL_GPIO_Init>

  /*Configure GPIO pin : QSPI_D2_Pin */
  GPIO_InitStruct.Pin = QSPI_D2_Pin;
 8000a52:	2304      	movs	r3, #4
 8000a54:	62fb      	str	r3, [r7, #44]	@ 0x2c
  GPIO_InitStruct.Mode = GPIO_MODE_AF_PP;
 8000a56:	2302      	movs	r3, #2
 8000a58:	633b      	str	r3, [r7, #48]	@ 0x30
  GPIO_InitStruct.Pull = GPIO_NOPULL;
 8000a5a:	2300      	movs	r3, #0
 8000a5c:	637b      	str	r3, [r7, #52]	@ 0x34
  GPIO_InitStruct.Speed = GPIO_SPEED_FREQ_VERY_HIGH;
 8000a5e:	2303      	movs	r3, #3
 8000a60:	63bb      	str	r3, [r7, #56]	@ 0x38
  GPIO_InitStruct.Alternate = GPIO_AF9_QUADSPI;
 8000a62:	2309      	movs	r3, #9
 8000a64:	63fb      	str	r3, [r7, #60]	@ 0x3c
  HAL_GPIO_Init(QSPI_D2_GPIO_Port, &GPIO_InitStruct);
 8000a66:	f107 032c 	add.w	r3, r7, #44	@ 0x2c
 8000a6a:	4619      	mov	r1, r3
 8000a6c:	484b      	ldr	r0, [pc, #300]	@ (8000b9c <MX_GPIO_Init+0x2f4>)
 8000a6e:	f001 faff 	bl	8002070 <HAL_GPIO_Init>

  /*Configure GPIO pins : RMII_TXD1_Pin RMII_TXD0_Pin RMII_TX_EN_Pin */
  GPIO_InitStruct.Pin = RMII_TXD1_Pin|RMII_TXD0_Pin|RMII_TX_EN_Pin;
 8000a72:	f44f 43d0 	mov.w	r3, #26624	@ 0x6800
 8000a76:	62fb      	str	r3, [r7, #44]	@ 0x2c
  GPIO_InitStruct.Mode = GPIO_MODE_AF_PP;
 8000a78:	2302      	movs	r3, #2
 8000a7a:	633b      	str	r3, [r7, #48]	@ 0x30
  GPIO_InitStruct.Pull = GPIO_NOPULL;
 8000a7c:	2300      	movs	r3, #0
 8000a7e:	637b      	str	r3, [r7, #52]	@ 0x34
  GPIO_InitStruct.Speed = GPIO_SPEED_FREQ_VERY_HIGH;
 8000a80:	2303      	movs	r3, #3
 8000a82:	63bb      	str	r3, [r7, #56]	@ 0x38
  GPIO_InitStruct.Alternate = GPIO_AF11_ETH;
 8000a84:	230b      	movs	r3, #11
 8000a86:	63fb      	str	r3, [r7, #60]	@ 0x3c
  HAL_GPIO_Init(GPIOG, &GPIO_InitStruct);
 8000a88:	f107 032c 	add.w	r3, r7, #44	@ 0x2c
 8000a8c:	4619      	mov	r1, r3
 8000a8e:	4842      	ldr	r0, [pc, #264]	@ (8000b98 <MX_GPIO_Init+0x2f0>)
 8000a90:	f001 faee 	bl	8002070 <HAL_GPIO_Init>

  /*Configure GPIO pins : FMC_NBL1_Pin FMC_NBL0_Pin FMC_D5_Pin FMC_D6_Pin
                           FMC_D8_Pin FMC_D11_Pin FMC_D4_Pin FMC_D7_Pin
                           FMC_D9_Pin FMC_D12_Pin FMC_D10_Pin */
  GPIO_InitStruct.Pin = FMC_NBL1_Pin|FMC_NBL0_Pin|FMC_D5_Pin|FMC_D6_Pin
 8000a94:	f64f 7383 	movw	r3, #65411	@ 0xff83
 8000a98:	62fb      	str	r3, [r7, #44]	@ 0x2c
                          |FMC_D8_Pin|FMC_D11_Pin|FMC_D4_Pin|FMC_D7_Pin
                          |FMC_D9_Pin|FMC_D12_Pin|FMC_D10_Pin;
  GPIO_InitStruct.Mode = GPIO_MODE_AF_PP;
 8000a9a:	2302      	movs	r3, #2
 8000a9c:	633b      	str	r3, [r7, #48]	@ 0x30
  GPIO_InitStruct.Pull = GPIO_NOPULL;
 8000a9e:	2300      	movs	r3, #0
 8000aa0:	637b      	str	r3, [r7, #52]	@ 0x34
  GPIO_InitStruct.Speed = GPIO_SPEED_FREQ_VERY_HIGH;
 8000aa2:	2303      	movs	r3, #3
 8000aa4:	63bb      	str	r3, [r7, #56]	@ 0x38
  GPIO_InitStruct.Alternate = GPIO_AF12_FMC;
 8000aa6:	230c      	movs	r3, #12
 8000aa8:	63fb      	str	r3, [r7, #60]	@ 0x3c
  HAL_GPIO_Init(GPIOE, &GPIO_InitStruct);
 8000aaa:	f107 032c 	add.w	r3, r7, #44	@ 0x2c
 8000aae:	4619      	mov	r1, r3
 8000ab0:	483a      	ldr	r0, [pc, #232]	@ (8000b9c <MX_GPIO_Init+0x2f4>)
 8000ab2:	f001 fadd 	bl	8002070 <HAL_GPIO_Init>

  /*Configure GPIO pins : ARDUINO_SCL_D15_Pin ARDUINO_SDA_D14_Pin */
  GPIO_InitStruct.Pin = ARDUINO_SCL_D15_Pin|ARDUINO_SDA_D14_Pin;
 8000ab6:	f44f 7340 	mov.w	r3, #768	@ 0x300
 8000aba:	62fb      	str	r3, [r7, #44]	@ 0x2c
  GPIO_InitStruct.Mode = GPIO_MODE_AF_OD;
 8000abc:	2312      	movs	r3, #18
 8000abe:	633b      	str	r3, [r7, #48]	@ 0x30
  GPIO_InitStruct.Pull = GPIO_PULLUP;
 8000ac0:	2301      	movs	r3, #1
 8000ac2:	637b      	str	r3, [r7, #52]	@ 0x34
  GPIO_InitStruct.Speed = GPIO_SPEED_FREQ_LOW;
 8000ac4:	2300      	movs	r3, #0
 8000ac6:	63bb      	str	r3, [r7, #56]	@ 0x38
  GPIO_InitStruct.Alternate = GPIO_AF4_I2C1;
 8000ac8:	2304      	movs	r3, #4
 8000aca:	63fb      	str	r3, [r7, #60]	@ 0x3c
  HAL_GPIO_Init(GPIOB, &GPIO_InitStruct);
 8000acc:	f107 032c 	add.w	r3, r7, #44	@ 0x2c
 8000ad0:	4619      	mov	r1, r3
 8000ad2:	482b      	ldr	r0, [pc, #172]	@ (8000b80 <MX_GPIO_Init+0x2d8>)
 8000ad4:	f001 facc 	bl	8002070 <HAL_GPIO_Init>

  /*Configure GPIO pin : IndicatorYellow2_Pin */
  GPIO_InitStruct.Pin = IndicatorYellow2_Pin;
 8000ad8:	2310      	movs	r3, #16
 8000ada:	62fb      	str	r3, [r7, #44]	@ 0x2c
  GPIO_InitStruct.Mode = GPIO_MODE_OUTPUT_PP;
 8000adc:	2301      	movs	r3, #1
 8000ade:	633b      	str	r3, [r7, #48]	@ 0x30
  GPIO_InitStruct.Pull = GPIO_PULLDOWN;
 8000ae0:	2302      	movs	r3, #2
 8000ae2:	637b      	str	r3, [r7, #52]	@ 0x34
  GPIO_InitStruct.Speed = GPIO_SPEED_FREQ_LOW;
 8000ae4:	2300      	movs	r3, #0
 8000ae6:	63bb      	str	r3, [r7, #56]	@ 0x38
  HAL_GPIO_Init(IndicatorYellow2_GPIO_Port, &GPIO_InitStruct);
 8000ae8:	f107 032c 	add.w	r3, r7, #44	@ 0x2c
 8000aec:	4619      	mov	r1, r3
 8000aee:	4824      	ldr	r0, [pc, #144]	@ (8000b80 <MX_GPIO_Init+0x2d8>)
 8000af0:	f001 fabe 	bl	8002070 <HAL_GPIO_Init>

  /*Configure GPIO pin : SPDIF_RX0_Pin */
  GPIO_InitStruct.Pin = SPDIF_RX0_Pin;
 8000af4:	2380      	movs	r3, #128	@ 0x80
 8000af6:	62fb      	str	r3, [r7, #44]	@ 0x2c
  GPIO_InitStruct.Mode = GPIO_MODE_AF_PP;
 8000af8:	2302      	movs	r3, #2
 8000afa:	633b      	str	r3, [r7, #48]	@ 0x30
  GPIO_InitStruct.Pull = GPIO_NOPULL;
 8000afc:	2300      	movs	r3, #0
 8000afe:	637b      	str	r3, [r7, #52]	@ 0x34
  GPIO_InitStruct.Speed = GPIO_SPEED_FREQ_LOW;
 8000b00:	2300      	movs	r3, #0
 8000b02:	63bb      	str	r3, [r7, #56]	@ 0x38
  GPIO_InitStruct.Alternate = GPIO_AF8_SPDIFRX;
 8000b04:	2308      	movs	r3, #8
 8000b06:	63fb      	str	r3, [r7, #60]	@ 0x3c
  HAL_GPIO_Init(SPDIF_RX0_GPIO_Port, &GPIO_InitStruct);
 8000b08:	f107 032c 	add.w	r3, r7, #44	@ 0x2c
 8000b0c:	4619      	mov	r1, r3
 8000b0e:	481d      	ldr	r0, [pc, #116]	@ (8000b84 <MX_GPIO_Init+0x2dc>)
 8000b10:	f001 faae 	bl	8002070 <HAL_GPIO_Init>

  /*Configure GPIO pins : SDMMC_CK_Pin SDMMC_D3_Pin SDMMC_D2_Pin PC9
                           PC8 */
  GPIO_InitStruct.Pin = SDMMC_CK_Pin|SDMMC_D3_Pin|SDMMC_D2_Pin|GPIO_PIN_9
 8000b14:	f44f 53f8 	mov.w	r3, #7936	@ 0x1f00
 8000b18:	62fb      	str	r3, [r7, #44]	@ 0x2c
                          |GPIO_PIN_8;
  GPIO_InitStruct.Mode = GPIO_MODE_AF_PP;
 8000b1a:	2302      	movs	r3, #2
 8000b1c:	633b      	str	r3, [r7, #48]	@ 0x30
  GPIO_InitStruct.Pull = GPIO_NOPULL;
 8000b1e:	2300      	movs	r3, #0
 8000b20:	637b      	str	r3, [r7, #52]	@ 0x34
  GPIO_InitStruct.Speed = GPIO_SPEED_FREQ_VERY_HIGH;
 8000b22:	2303      	movs	r3, #3
 8000b24:	63bb      	str	r3, [r7, #56]	@ 0x38
  GPIO_InitStruct.Alternate = GPIO_AF12_SDMMC1;
 8000b26:	230c      	movs	r3, #12
 8000b28:	63fb      	str	r3, [r7, #60]	@ 0x3c
  HAL_GPIO_Init(GPIOC, &GPIO_InitStruct);
 8000b2a:	f107 032c 	add.w	r3, r7, #44	@ 0x2c
 8000b2e:	4619      	mov	r1, r3
 8000b30:	4818      	ldr	r0, [pc, #96]	@ (8000b94 <MX_GPIO_Init+0x2ec>)
 8000b32:	f001 fa9d 	bl	8002070 <HAL_GPIO_Init>

  /*Configure GPIO pin : ARDUINO_PWM_D9_Pin */
  GPIO_InitStruct.Pin = ARDUINO_PWM_D9_Pin;
 8000b36:	f44f 4300 	mov.w	r3, #32768	@ 0x8000
 8000b3a:	62fb      	str	r3, [r7, #44]	@ 0x2c
  GPIO_InitStruct.Mode = GPIO_MODE_AF_PP;
 8000b3c:	2302      	movs	r3, #2
 8000b3e:	633b      	str	r3, [r7, #48]	@ 0x30
  GPIO_InitStruct.Pull = GPIO_NOPULL;
 8000b40:	2300      	movs	r3, #0
 8000b42:	637b      	str	r3, [r7, #52]	@ 0x34
  GPIO_InitStruct.Speed = GPIO_SPEED_FREQ_LOW;
 8000b44:	2300      	movs	r3, #0
 8000b46:	63bb      	str	r3, [r7, #56]	@ 0x38
  GPIO_InitStruct.Alternate = GPIO_AF1_TIM2;
 8000b48:	2301      	movs	r3, #1
 8000b4a:	63fb      	str	r3, [r7, #60]	@ 0x3c
  HAL_GPIO_Init(ARDUINO_PWM_D9_GPIO_Port, &GPIO_InitStruct);
 8000b4c:	f107 032c 	add.w	r3, r7, #44	@ 0x2c
 8000b50:	4619      	mov	r1, r3
 8000b52:	4813      	ldr	r0, [pc, #76]	@ (8000ba0 <MX_GPIO_Init+0x2f8>)
 8000b54:	f001 fa8c 	bl	8002070 <HAL_GPIO_Init>

  /*Configure GPIO pins : DCMI_D6_Pin DCMI_D7_Pin */
  GPIO_InitStruct.Pin = DCMI_D6_Pin|DCMI_D7_Pin;
 8000b58:	2360      	movs	r3, #96	@ 0x60
 8000b5a:	62fb      	str	r3, [r7, #44]	@ 0x2c
  GPIO_InitStruct.Mode = GPIO_MODE_AF_PP;
 8000b5c:	2302      	movs	r3, #2
 8000b5e:	633b      	str	r3, [r7, #48]	@ 0x30
  GPIO_InitStruct.Pull = GPIO_NOPULL;
 8000b60:	2300      	movs	r3, #0
 8000b62:	637b      	str	r3, [r7, #52]	@ 0x34
  GPIO_InitStruct.Speed = GPIO_SPEED_FREQ_LOW;
 8000b64:	2300      	movs	r3, #0
 8000b66:	63bb      	str	r3, [r7, #56]	@ 0x38
  GPIO_InitStruct.Alternate = GPIO_AF13_DCMI;
 8000b68:	230d      	movs	r3, #13
 8000b6a:	63fb      	str	r3, [r7, #60]	@ 0x3c
  HAL_GPIO_Init(GPIOE, &GPIO_InitStruct);
 8000b6c:	f107 032c 	add.w	r3, r7, #44	@ 0x2c
 8000b70:	4619      	mov	r1, r3
 8000b72:	480a      	ldr	r0, [pc, #40]	@ (8000b9c <MX_GPIO_Init+0x2f4>)
 8000b74:	f001 fa7c 	bl	8002070 <HAL_GPIO_Init>
 8000b78:	e014      	b.n	8000ba4 <MX_GPIO_Init+0x2fc>
 8000b7a:	bf00      	nop
 8000b7c:	40023800 	.word	0x40023800
 8000b80:	40020400 	.word	0x40020400
 8000b84:	40020c00 	.word	0x40020c00
 8000b88:	40022000 	.word	0x40022000
 8000b8c:	40022800 	.word	0x40022800
 8000b90:	40021c00 	.word	0x40021c00
 8000b94:	40020800 	.word	0x40020800
 8000b98:	40021800 	.word	0x40021800
 8000b9c:	40021000 	.word	0x40021000
 8000ba0:	40020000 	.word	0x40020000

  /*Configure GPIO pin : QSPI_NCS_Pin */
  GPIO_InitStruct.Pin = QSPI_NCS_Pin;
 8000ba4:	2340      	movs	r3, #64	@ 0x40
 8000ba6:	62fb      	str	r3, [r7, #44]	@ 0x2c
  GPIO_InitStruct.Mode = GPIO_MODE_AF_PP;
 8000ba8:	2302      	movs	r3, #2
 8000baa:	633b      	str	r3, [r7, #48]	@ 0x30
  GPIO_InitStruct.Pull = GPIO_NOPULL;
 8000bac:	2300      	movs	r3, #0
 8000bae:	637b      	str	r3, [r7, #52]	@ 0x34
  GPIO_InitStruct.Speed = GPIO_SPEED_FREQ_VERY_HIGH;
 8000bb0:	2303      	movs	r3, #3
 8000bb2:	63bb      	str	r3, [r7, #56]	@ 0x38
  GPIO_InitStruct.Alternate = GPIO_AF10_QUADSPI;
 8000bb4:	230a      	movs	r3, #10
 8000bb6:	63fb      	str	r3, [r7, #60]	@ 0x3c
  HAL_GPIO_Init(QSPI_NCS_GPIO_Port, &GPIO_InitStruct);
 8000bb8:	f107 032c 	add.w	r3, r7, #44	@ 0x2c
 8000bbc:	4619      	mov	r1, r3
 8000bbe:	48bc      	ldr	r0, [pc, #752]	@ (8000eb0 <MX_GPIO_Init+0x608>)
 8000bc0:	f001 fa56 	bl	8002070 <HAL_GPIO_Init>

  /*Configure GPIO pins : FMC_SDNCAS_Pin FMC_SDCLK_Pin FMC_A11_Pin FMC_A10_Pin
                           FMC_BA1_Pin FMC_BA0_Pin */
  GPIO_InitStruct.Pin = FMC_SDNCAS_Pin|FMC_SDCLK_Pin|FMC_A11_Pin|FMC_A10_Pin
 8000bc4:	f248 1333 	movw	r3, #33075	@ 0x8133
 8000bc8:	62fb      	str	r3, [r7, #44]	@ 0x2c
                          |FMC_BA1_Pin|FMC_BA0_Pin;
  GPIO_InitStruct.Mode = GPIO_MODE_AF_PP;
 8000bca:	2302      	movs	r3, #2
 8000bcc:	633b      	str	r3, [r7, #48]	@ 0x30
  GPIO_InitStruct.Pull = GPIO_NOPULL;
 8000bce:	2300      	movs	r3, #0
 8000bd0:	637b      	str	r3, [r7, #52]	@ 0x34
  GPIO_InitStruct.Speed = GPIO_SPEED_FREQ_VERY_HIGH;
 8000bd2:	2303      	movs	r3, #3
 8000bd4:	63bb      	str	r3, [r7, #56]	@ 0x38
  GPIO_InitStruct.Alternate = GPIO_AF12_FMC;
 8000bd6:	230c      	movs	r3, #12
 8000bd8:	63fb      	str	r3, [r7, #60]	@ 0x3c
  HAL_GPIO_Init(GPIOG, &GPIO_InitStruct);
 8000bda:	f107 032c 	add.w	r3, r7, #44	@ 0x2c
 8000bde:	4619      	mov	r1, r3
 8000be0:	48b4      	ldr	r0, [pc, #720]	@ (8000eb4 <MX_GPIO_Init+0x60c>)
 8000be2:	f001 fa45 	bl	8002070 <HAL_GPIO_Init>

  /*Configure GPIO pins : LCD_B1_Pin LCD_B2_Pin LCD_B3_Pin LCD_G4_Pin
                           LCD_G1_Pin LCD_G3_Pin LCD_G0_Pin LCD_G2_Pin
                           LCD_R7_Pin LCD_R5_Pin LCD_R6_Pin LCD_R4_Pin
                           LCD_R3_Pin LCD_R1_Pin LCD_R2_Pin */
  GPIO_InitStruct.Pin = LCD_B1_Pin|LCD_B2_Pin|LCD_B3_Pin|LCD_G4_Pin
 8000be6:	f64e 73ff 	movw	r3, #61439	@ 0xefff
 8000bea:	62fb      	str	r3, [r7, #44]	@ 0x2c
                          |LCD_G1_Pin|LCD_G3_Pin|LCD_G0_Pin|LCD_G2_Pin
                          |LCD_R7_Pin|LCD_R5_Pin|LCD_R6_Pin|LCD_R4_Pin
                          |LCD_R3_Pin|LCD_R1_Pin|LCD_R2_Pin;
  GPIO_InitStruct.Mode = GPIO_MODE_AF_PP;
 8000bec:	2302      	movs	r3, #2
 8000bee:	633b      	str	r3, [r7, #48]	@ 0x30
  GPIO_InitStruct.Pull = GPIO_NOPULL;
 8000bf0:	2300      	movs	r3, #0
 8000bf2:	637b      	str	r3, [r7, #52]	@ 0x34
  GPIO_InitStruct.Speed = GPIO_SPEED_FREQ_LOW;
 8000bf4:	2300      	movs	r3, #0
 8000bf6:	63bb      	str	r3, [r7, #56]	@ 0x38
  GPIO_InitStruct.Alternate = GPIO_AF14_LTDC;
 8000bf8:	230e      	movs	r3, #14
 8000bfa:	63fb      	str	r3, [r7, #60]	@ 0x3c
  HAL_GPIO_Init(GPIOJ, &GPIO_InitStruct);
 8000bfc:	f107 032c 	add.w	r3, r7, #44	@ 0x2c
 8000c00:	4619      	mov	r1, r3
 8000c02:	48ad      	ldr	r0, [pc, #692]	@ (8000eb8 <MX_GPIO_Init+0x610>)
 8000c04:	f001 fa34 	bl	8002070 <HAL_GPIO_Init>

  /*Configure GPIO pin : OTG_FS_VBUS_Pin */
  GPIO_InitStruct.Pin = OTG_FS_VBUS_Pin;
 8000c08:	f44f 5380 	mov.w	r3, #4096	@ 0x1000
 8000c0c:	62fb      	str	r3, [r7, #44]	@ 0x2c
  GPIO_InitStruct.Mode = GPIO_MODE_INPUT;
 8000c0e:	2300      	movs	r3, #0
 8000c10:	633b      	str	r3, [r7, #48]	@ 0x30
  GPIO_InitStruct.Pull = GPIO_NOPULL;
 8000c12:	2300      	movs	r3, #0
 8000c14:	637b      	str	r3, [r7, #52]	@ 0x34
  HAL_GPIO_Init(OTG_FS_VBUS_GPIO_Port, &GPIO_InitStruct);
 8000c16:	f107 032c 	add.w	r3, r7, #44	@ 0x2c
 8000c1a:	4619      	mov	r1, r3
 8000c1c:	48a6      	ldr	r0, [pc, #664]	@ (8000eb8 <MX_GPIO_Init+0x610>)
 8000c1e:	f001 fa27 	bl	8002070 <HAL_GPIO_Init>

  /*Configure GPIO pin : Audio_INT_Pin */
  GPIO_InitStruct.Pin = Audio_INT_Pin;
 8000c22:	2340      	movs	r3, #64	@ 0x40
 8000c24:	62fb      	str	r3, [r7, #44]	@ 0x2c
  GPIO_InitStruct.Mode = GPIO_MODE_EVT_RISING;
 8000c26:	f44f 1390 	mov.w	r3, #1179648	@ 0x120000
 8000c2a:	633b      	str	r3, [r7, #48]	@ 0x30
  GPIO_InitStruct.Pull = GPIO_NOPULL;
 8000c2c:	2300      	movs	r3, #0
 8000c2e:	637b      	str	r3, [r7, #52]	@ 0x34
  HAL_GPIO_Init(Audio_INT_GPIO_Port, &GPIO_InitStruct);
 8000c30:	f107 032c 	add.w	r3, r7, #44	@ 0x2c
 8000c34:	4619      	mov	r1, r3
 8000c36:	48a1      	ldr	r0, [pc, #644]	@ (8000ebc <MX_GPIO_Init+0x614>)
 8000c38:	f001 fa1a 	bl	8002070 <HAL_GPIO_Init>

  /*Configure GPIO pins : FMC_D2_Pin FMC_D3_Pin FMC_D1_Pin FMC_D15_Pin
                           FMC_D0_Pin FMC_D14_Pin FMC_D13_Pin */
  GPIO_InitStruct.Pin = FMC_D2_Pin|FMC_D3_Pin|FMC_D1_Pin|FMC_D15_Pin
 8000c3c:	f24c 7303 	movw	r3, #50947	@ 0xc703
 8000c40:	62fb      	str	r3, [r7, #44]	@ 0x2c
                          |FMC_D0_Pin|FMC_D14_Pin|FMC_D13_Pin;
  GPIO_InitStruct.Mode = GPIO_MODE_AF_PP;
 8000c42:	2302      	movs	r3, #2
 8000c44:	633b      	str	r3, [r7, #48]	@ 0x30
  GPIO_InitStruct.Pull = GPIO_NOPULL;
 8000c46:	2300      	movs	r3, #0
 8000c48:	637b      	str	r3, [r7, #52]	@ 0x34
  GPIO_InitStruct.Speed = GPIO_SPEED_FREQ_VERY_HIGH;
 8000c4a:	2303      	movs	r3, #3
 8000c4c:	63bb      	str	r3, [r7, #56]	@ 0x38
  GPIO_InitStruct.Alternate = GPIO_AF12_FMC;
 8000c4e:	230c      	movs	r3, #12
 8000c50:	63fb      	str	r3, [r7, #60]	@ 0x3c
  HAL_GPIO_Init(GPIOD, &GPIO_InitStruct);
 8000c52:	f107 032c 	add.w	r3, r7, #44	@ 0x2c
 8000c56:	4619      	mov	r1, r3
 8000c58:	4898      	ldr	r0, [pc, #608]	@ (8000ebc <MX_GPIO_Init+0x614>)
 8000c5a:	f001 fa09 	bl	8002070 <HAL_GPIO_Init>

  /*Configure GPIO pins : OTG_FS_P_Pin OTG_FS_N_Pin OTG_FS_ID_Pin */
  GPIO_InitStruct.Pin = OTG_FS_P_Pin|OTG_FS_N_Pin|OTG_FS_ID_Pin;
 8000c5e:	f44f 53e0 	mov.w	r3, #7168	@ 0x1c00
 8000c62:	62fb      	str	r3, [r7, #44]	@ 0x2c
  GPIO_InitStruct.Mode = GPIO_MODE_AF_PP;
 8000c64:	2302      	movs	r3, #2
 8000c66:	633b      	str	r3, [r7, #48]	@ 0x30
  GPIO_InitStruct.Pull = GPIO_NOPULL;
 8000c68:	2300      	movs	r3, #0
 8000c6a:	637b      	str	r3, [r7, #52]	@ 0x34
  GPIO_InitStruct.Speed = GPIO_SPEED_FREQ_VERY_HIGH;
 8000c6c:	2303      	movs	r3, #3
 8000c6e:	63bb      	str	r3, [r7, #56]	@ 0x38
  GPIO_InitStruct.Alternate = GPIO_AF10_OTG_FS;
 8000c70:	230a      	movs	r3, #10
 8000c72:	63fb      	str	r3, [r7, #60]	@ 0x3c
  HAL_GPIO_Init(GPIOA, &GPIO_InitStruct);
 8000c74:	f107 032c 	add.w	r3, r7, #44	@ 0x2c
 8000c78:	4619      	mov	r1, r3
 8000c7a:	4891      	ldr	r0, [pc, #580]	@ (8000ec0 <MX_GPIO_Init+0x618>)
 8000c7c:	f001 f9f8 	bl	8002070 <HAL_GPIO_Init>

  /*Configure GPIO pins : SAI2_MCLKA_Pin SAI2_SCKA_Pin SAI2_FSA_Pin SAI2_SDA_Pin */
  GPIO_InitStruct.Pin = SAI2_MCLKA_Pin|SAI2_SCKA_Pin|SAI2_FSA_Pin|SAI2_SDA_Pin;
 8000c80:	23f0      	movs	r3, #240	@ 0xf0
 8000c82:	62fb      	str	r3, [r7, #44]	@ 0x2c
  GPIO_InitStruct.Mode = GPIO_MODE_AF_PP;
 8000c84:	2302      	movs	r3, #2
 8000c86:	633b      	str	r3, [r7, #48]	@ 0x30
  GPIO_InitStruct.Pull = GPIO_NOPULL;
 8000c88:	2300      	movs	r3, #0
 8000c8a:	637b      	str	r3, [r7, #52]	@ 0x34
  GPIO_InitStruct.Speed = GPIO_SPEED_FREQ_LOW;
 8000c8c:	2300      	movs	r3, #0
 8000c8e:	63bb      	str	r3, [r7, #56]	@ 0x38
  GPIO_InitStruct.Alternate = GPIO_AF10_SAI2;
 8000c90:	230a      	movs	r3, #10
 8000c92:	63fb      	str	r3, [r7, #60]	@ 0x3c
  HAL_GPIO_Init(GPIOI, &GPIO_InitStruct);
 8000c94:	f107 032c 	add.w	r3, r7, #44	@ 0x2c
 8000c98:	4619      	mov	r1, r3
 8000c9a:	488a      	ldr	r0, [pc, #552]	@ (8000ec4 <MX_GPIO_Init+0x61c>)
 8000c9c:	f001 f9e8 	bl	8002070 <HAL_GPIO_Init>

  /*Configure GPIO pins : LCD_DE_Pin LCD_B7_Pin LCD_B6_Pin LCD_B5_Pin
                           LCD_G6_Pin LCD_G7_Pin LCD_G5_Pin */
  GPIO_InitStruct.Pin = LCD_DE_Pin|LCD_B7_Pin|LCD_B6_Pin|LCD_B5_Pin
 8000ca0:	23f7      	movs	r3, #247	@ 0xf7
 8000ca2:	62fb      	str	r3, [r7, #44]	@ 0x2c
                          |LCD_G6_Pin|LCD_G7_Pin|LCD_G5_Pin;
  GPIO_InitStruct.Mode = GPIO_MODE_AF_PP;
 8000ca4:	2302      	movs	r3, #2
 8000ca6:	633b      	str	r3, [r7, #48]	@ 0x30
  GPIO_InitStruct.Pull = GPIO_NOPULL;
 8000ca8:	2300      	movs	r3, #0
 8000caa:	637b      	str	r3, [r7, #52]	@ 0x34
  GPIO_InitStruct.Speed = GPIO_SPEED_FREQ_LOW;
 8000cac:	2300      	movs	r3, #0
 8000cae:	63bb      	str	r3, [r7, #56]	@ 0x38
  GPIO_InitStruct.Alternate = GPIO_AF14_LTDC;
 8000cb0:	230e      	movs	r3, #14
 8000cb2:	63fb      	str	r3, [r7, #60]	@ 0x3c
  HAL_GPIO_Init(GPIOK, &GPIO_InitStruct);
 8000cb4:	f107 032c 	add.w	r3, r7, #44	@ 0x2c
 8000cb8:	4619      	mov	r1, r3
 8000cba:	4883      	ldr	r0, [pc, #524]	@ (8000ec8 <MX_GPIO_Init+0x620>)
 8000cbc:	f001 f9d8 	bl	8002070 <HAL_GPIO_Init>

  /*Configure GPIO pin : LCD_B4_Pin */
  GPIO_InitStruct.Pin = LCD_B4_Pin;
 8000cc0:	f44f 5380 	mov.w	r3, #4096	@ 0x1000
 8000cc4:	62fb      	str	r3, [r7, #44]	@ 0x2c
  GPIO_InitStruct.Mode = GPIO_MODE_AF_PP;
 8000cc6:	2302      	movs	r3, #2
 8000cc8:	633b      	str	r3, [r7, #48]	@ 0x30
  GPIO_InitStruct.Pull = GPIO_NOPULL;
 8000cca:	2300      	movs	r3, #0
 8000ccc:	637b      	str	r3, [r7, #52]	@ 0x34
  GPIO_InitStruct.Speed = GPIO_SPEED_FREQ_LOW;
 8000cce:	2300      	movs	r3, #0
 8000cd0:	63bb      	str	r3, [r7, #56]	@ 0x38
  GPIO_InitStruct.Alternate = GPIO_AF9_LTDC;
 8000cd2:	2309      	movs	r3, #9
 8000cd4:	63fb      	str	r3, [r7, #60]	@ 0x3c
  HAL_GPIO_Init(LCD_B4_GPIO_Port, &GPIO_InitStruct);
 8000cd6:	f107 032c 	add.w	r3, r7, #44	@ 0x2c
 8000cda:	4619      	mov	r1, r3
 8000cdc:	4875      	ldr	r0, [pc, #468]	@ (8000eb4 <MX_GPIO_Init+0x60c>)
 8000cde:	f001 f9c7 	bl	8002070 <HAL_GPIO_Init>

  /*Configure GPIO pin : SAI2_SDB_Pin */
  GPIO_InitStruct.Pin = SAI2_SDB_Pin;
 8000ce2:	f44f 6380 	mov.w	r3, #1024	@ 0x400
 8000ce6:	62fb      	str	r3, [r7, #44]	@ 0x2c
  GPIO_InitStruct.Mode = GPIO_MODE_AF_PP;
 8000ce8:	2302      	movs	r3, #2
 8000cea:	633b      	str	r3, [r7, #48]	@ 0x30
  GPIO_InitStruct.Pull = GPIO_NOPULL;
 8000cec:	2300      	movs	r3, #0
 8000cee:	637b      	str	r3, [r7, #52]	@ 0x34
  GPIO_InitStruct.Speed = GPIO_SPEED_FREQ_LOW;
 8000cf0:	2300      	movs	r3, #0
 8000cf2:	63bb      	str	r3, [r7, #56]	@ 0x38
  GPIO_InitStruct.Alternate = GPIO_AF10_SAI2;
 8000cf4:	230a      	movs	r3, #10
 8000cf6:	63fb      	str	r3, [r7, #60]	@ 0x3c
  HAL_GPIO_Init(SAI2_SDB_GPIO_Port, &GPIO_InitStruct);
 8000cf8:	f107 032c 	add.w	r3, r7, #44	@ 0x2c
 8000cfc:	4619      	mov	r1, r3
 8000cfe:	486d      	ldr	r0, [pc, #436]	@ (8000eb4 <MX_GPIO_Init+0x60c>)
 8000d00:	f001 f9b6 	bl	8002070 <HAL_GPIO_Init>

  /*Configure GPIO pin : OTG_FS_PowerSwitchOn_Pin */
  GPIO_InitStruct.Pin = OTG_FS_PowerSwitchOn_Pin;
 8000d04:	2320      	movs	r3, #32
 8000d06:	62fb      	str	r3, [r7, #44]	@ 0x2c
  GPIO_InitStruct.Mode = GPIO_MODE_OUTPUT_PP;
 8000d08:	2301      	movs	r3, #1
 8000d0a:	633b      	str	r3, [r7, #48]	@ 0x30
  GPIO_InitStruct.Pull = GPIO_NOPULL;
 8000d0c:	2300      	movs	r3, #0
 8000d0e:	637b      	str	r3, [r7, #52]	@ 0x34
  GPIO_InitStruct.Speed = GPIO_SPEED_FREQ_LOW;
 8000d10:	2300      	movs	r3, #0
 8000d12:	63bb      	str	r3, [r7, #56]	@ 0x38
  HAL_GPIO_Init(OTG_FS_PowerSwitchOn_GPIO_Port, &GPIO_InitStruct);
 8000d14:	f107 032c 	add.w	r3, r7, #44	@ 0x2c
 8000d18:	4619      	mov	r1, r3
 8000d1a:	4868      	ldr	r0, [pc, #416]	@ (8000ebc <MX_GPIO_Init+0x614>)
 8000d1c:	f001 f9a8 	bl	8002070 <HAL_GPIO_Init>

  /*Configure GPIO pin : DCMI_D5_Pin */
  GPIO_InitStruct.Pin = DCMI_D5_Pin;
 8000d20:	2308      	movs	r3, #8
 8000d22:	62fb      	str	r3, [r7, #44]	@ 0x2c
  GPIO_InitStruct.Mode = GPIO_MODE_AF_PP;
 8000d24:	2302      	movs	r3, #2
 8000d26:	633b      	str	r3, [r7, #48]	@ 0x30
  GPIO_InitStruct.Pull = GPIO_NOPULL;
 8000d28:	2300      	movs	r3, #0
 8000d2a:	637b      	str	r3, [r7, #52]	@ 0x34
  GPIO_InitStruct.Speed = GPIO_SPEED_FREQ_LOW;
 8000d2c:	2300      	movs	r3, #0
 8000d2e:	63bb      	str	r3, [r7, #56]	@ 0x38
  GPIO_InitStruct.Alternate = GPIO_AF13_DCMI;
 8000d30:	230d      	movs	r3, #13
 8000d32:	63fb      	str	r3, [r7, #60]	@ 0x3c
  HAL_GPIO_Init(DCMI_D5_GPIO_Port, &GPIO_InitStruct);
 8000d34:	f107 032c 	add.w	r3, r7, #44	@ 0x2c
 8000d38:	4619      	mov	r1, r3
 8000d3a:	4860      	ldr	r0, [pc, #384]	@ (8000ebc <MX_GPIO_Init+0x614>)
 8000d3c:	f001 f998 	bl	8002070 <HAL_GPIO_Init>

  /*Configure GPIO pins : Led_out_Pin Buzzer_out_Pin IndicatorBlue2_Pin */
  GPIO_InitStruct.Pin = Led_out_Pin|Buzzer_out_Pin|IndicatorBlue2_Pin;
 8000d40:	230d      	movs	r3, #13
 8000d42:	62fb      	str	r3, [r7, #44]	@ 0x2c
  GPIO_InitStruct.Mode = GPIO_MODE_OUTPUT_PP;
 8000d44:	2301      	movs	r3, #1
 8000d46:	633b      	str	r3, [r7, #48]	@ 0x30
  GPIO_InitStruct.Pull = GPIO_PULLDOWN;
 8000d48:	2302      	movs	r3, #2
 8000d4a:	637b      	str	r3, [r7, #52]	@ 0x34
  GPIO_InitStruct.Speed = GPIO_SPEED_FREQ_LOW;
 8000d4c:	2300      	movs	r3, #0
 8000d4e:	63bb      	str	r3, [r7, #56]	@ 0x38
  HAL_GPIO_Init(GPIOI, &GPIO_InitStruct);
 8000d50:	f107 032c 	add.w	r3, r7, #44	@ 0x2c
 8000d54:	4619      	mov	r1, r3
 8000d56:	485b      	ldr	r0, [pc, #364]	@ (8000ec4 <MX_GPIO_Init+0x61c>)
 8000d58:	f001 f98a 	bl	8002070 <HAL_GPIO_Init>

  /*Configure GPIO pin : uSD_Detect_Pin */
  GPIO_InitStruct.Pin = uSD_Detect_Pin;
 8000d5c:	f44f 5300 	mov.w	r3, #8192	@ 0x2000
 8000d60:	62fb      	str	r3, [r7, #44]	@ 0x2c
  GPIO_InitStruct.Mode = GPIO_MODE_INPUT;
 8000d62:	2300      	movs	r3, #0
 8000d64:	633b      	str	r3, [r7, #48]	@ 0x30
  GPIO_InitStruct.Pull = GPIO_NOPULL;
 8000d66:	2300      	movs	r3, #0
 8000d68:	637b      	str	r3, [r7, #52]	@ 0x34
  HAL_GPIO_Init(uSD_Detect_GPIO_Port, &GPIO_InitStruct);
 8000d6a:	f107 032c 	add.w	r3, r7, #44	@ 0x2c
 8000d6e:	4619      	mov	r1, r3
 8000d70:	4856      	ldr	r0, [pc, #344]	@ (8000ecc <MX_GPIO_Init+0x624>)
 8000d72:	f001 f97d 	bl	8002070 <HAL_GPIO_Init>

  /*Configure GPIO pins : FMC_A0_Pin FMC_A1_Pin FMC_A2_Pin FMC_A3_Pin
                           FMC_A4_Pin FMC_A5_Pin FMC_A6_Pin FMC_A9_Pin
                           FMC_A7_Pin FMC_A8_Pin FMC_SDNRAS_Pin */
  GPIO_InitStruct.Pin = FMC_A0_Pin|FMC_A1_Pin|FMC_A2_Pin|FMC_A3_Pin
 8000d76:	f64f 033f 	movw	r3, #63551	@ 0xf83f
 8000d7a:	62fb      	str	r3, [r7, #44]	@ 0x2c
                          |FMC_A4_Pin|FMC_A5_Pin|FMC_A6_Pin|FMC_A9_Pin
                          |FMC_A7_Pin|FMC_A8_Pin|FMC_SDNRAS_Pin;
  GPIO_InitStruct.Mode = GPIO_MODE_AF_PP;
 8000d7c:	2302      	movs	r3, #2
 8000d7e:	633b      	str	r3, [r7, #48]	@ 0x30
  GPIO_InitStruct.Pull = GPIO_NOPULL;
 8000d80:	2300      	movs	r3, #0
 8000d82:	637b      	str	r3, [r7, #52]	@ 0x34
  GPIO_InitStruct.Speed = GPIO_SPEED_FREQ_VERY_HIGH;
 8000d84:	2303      	movs	r3, #3
 8000d86:	63bb      	str	r3, [r7, #56]	@ 0x38
  GPIO_InitStruct.Alternate = GPIO_AF12_FMC;
 8000d88:	230c      	movs	r3, #12
 8000d8a:	63fb      	str	r3, [r7, #60]	@ 0x3c
  HAL_GPIO_Init(GPIOF, &GPIO_InitStruct);
 8000d8c:	f107 032c 	add.w	r3, r7, #44	@ 0x2c
 8000d90:	4619      	mov	r1, r3
 8000d92:	484f      	ldr	r0, [pc, #316]	@ (8000ed0 <MX_GPIO_Init+0x628>)
 8000d94:	f001 f96c 	bl	8002070 <HAL_GPIO_Init>

  /*Configure GPIO pins : LCD_HSYNC_Pin LCD_VSYNC_Pin LCD_R0_Pin LCD_CLK_Pin */
  GPIO_InitStruct.Pin = LCD_HSYNC_Pin|LCD_VSYNC_Pin|LCD_R0_Pin|LCD_CLK_Pin;
 8000d98:	f44f 4346 	mov.w	r3, #50688	@ 0xc600
 8000d9c:	62fb      	str	r3, [r7, #44]	@ 0x2c
  GPIO_InitStruct.Mode = GPIO_MODE_AF_PP;
 8000d9e:	2302      	movs	r3, #2
 8000da0:	633b      	str	r3, [r7, #48]	@ 0x30
  GPIO_InitStruct.Pull = GPIO_NOPULL;
 8000da2:	2300      	movs	r3, #0
 8000da4:	637b      	str	r3, [r7, #52]	@ 0x34
  GPIO_InitStruct.Speed = GPIO_SPEED_FREQ_LOW;
 8000da6:	2300      	movs	r3, #0
 8000da8:	63bb      	str	r3, [r7, #56]	@ 0x38
  GPIO_InitStruct.Alternate = GPIO_AF14_LTDC;
 8000daa:	230e      	movs	r3, #14
 8000dac:	63fb      	str	r3, [r7, #60]	@ 0x3c
  HAL_GPIO_Init(GPIOI, &GPIO_InitStruct);
 8000dae:	f107 032c 	add.w	r3, r7, #44	@ 0x2c
 8000db2:	4619      	mov	r1, r3
 8000db4:	4843      	ldr	r0, [pc, #268]	@ (8000ec4 <MX_GPIO_Init+0x61c>)
 8000db6:	f001 f95b 	bl	8002070 <HAL_GPIO_Init>

  /*Configure GPIO pin : LCD_BL_CTRL_Pin */
  GPIO_InitStruct.Pin = LCD_BL_CTRL_Pin;
 8000dba:	2308      	movs	r3, #8
 8000dbc:	62fb      	str	r3, [r7, #44]	@ 0x2c
  GPIO_InitStruct.Mode = GPIO_MODE_OUTPUT_PP;
 8000dbe:	2301      	movs	r3, #1
 8000dc0:	633b      	str	r3, [r7, #48]	@ 0x30
  GPIO_InitStruct.Pull = GPIO_NOPULL;
 8000dc2:	2300      	movs	r3, #0
 8000dc4:	637b      	str	r3, [r7, #52]	@ 0x34
  GPIO_InitStruct.Speed = GPIO_SPEED_FREQ_LOW;
 8000dc6:	2300      	movs	r3, #0
 8000dc8:	63bb      	str	r3, [r7, #56]	@ 0x38
  HAL_GPIO_Init(LCD_BL_CTRL_GPIO_Port, &GPIO_InitStruct);
 8000dca:	f107 032c 	add.w	r3, r7, #44	@ 0x2c
 8000dce:	4619      	mov	r1, r3
 8000dd0:	483d      	ldr	r0, [pc, #244]	@ (8000ec8 <MX_GPIO_Init+0x620>)
 8000dd2:	f001 f94d 	bl	8002070 <HAL_GPIO_Init>

  /*Configure GPIO pin : DCMI_VSYNC_Pin */
  GPIO_InitStruct.Pin = DCMI_VSYNC_Pin;
 8000dd6:	f44f 7300 	mov.w	r3, #512	@ 0x200
 8000dda:	62fb      	str	r3, [r7, #44]	@ 0x2c
  GPIO_InitStruct.Mode = GPIO_MODE_AF_PP;
 8000ddc:	2302      	movs	r3, #2
 8000dde:	633b      	str	r3, [r7, #48]	@ 0x30
  GPIO_InitStruct.Pull = GPIO_NOPULL;
 8000de0:	2300      	movs	r3, #0
 8000de2:	637b      	str	r3, [r7, #52]	@ 0x34
  GPIO_InitStruct.Speed = GPIO_SPEED_FREQ_LOW;
 8000de4:	2300      	movs	r3, #0
 8000de6:	63bb      	str	r3, [r7, #56]	@ 0x38
  GPIO_InitStruct.Alternate = GPIO_AF13_DCMI;
 8000de8:	230d      	movs	r3, #13
 8000dea:	63fb      	str	r3, [r7, #60]	@ 0x3c
  HAL_GPIO_Init(DCMI_VSYNC_GPIO_Port, &GPIO_InitStruct);
 8000dec:	f107 032c 	add.w	r3, r7, #44	@ 0x2c
 8000df0:	4619      	mov	r1, r3
 8000df2:	4830      	ldr	r0, [pc, #192]	@ (8000eb4 <MX_GPIO_Init+0x60c>)
 8000df4:	f001 f93c 	bl	8002070 <HAL_GPIO_Init>

  /*Configure GPIO pin : OTG_FS_OverCurrent_Pin */
  GPIO_InitStruct.Pin = OTG_FS_OverCurrent_Pin;
 8000df8:	2310      	movs	r3, #16
 8000dfa:	62fb      	str	r3, [r7, #44]	@ 0x2c
  GPIO_InitStruct.Mode = GPIO_MODE_INPUT;
 8000dfc:	2300      	movs	r3, #0
 8000dfe:	633b      	str	r3, [r7, #48]	@ 0x30
  GPIO_InitStruct.Pull = GPIO_NOPULL;
 8000e00:	2300      	movs	r3, #0
 8000e02:	637b      	str	r3, [r7, #52]	@ 0x34
  HAL_GPIO_Init(OTG_FS_OverCurrent_GPIO_Port, &GPIO_InitStruct);
 8000e04:	f107 032c 	add.w	r3, r7, #44	@ 0x2c
 8000e08:	4619      	mov	r1, r3
 8000e0a:	482c      	ldr	r0, [pc, #176]	@ (8000ebc <MX_GPIO_Init+0x614>)
 8000e0c:	f001 f930 	bl	8002070 <HAL_GPIO_Init>

  /*Configure GPIO pin : SDMMC_CMD_Pin */
  GPIO_InitStruct.Pin = SDMMC_CMD_Pin;
 8000e10:	2304      	movs	r3, #4
 8000e12:	62fb      	str	r3, [r7, #44]	@ 0x2c
  GPIO_InitStruct.Mode = GPIO_MODE_AF_PP;
 8000e14:	2302      	movs	r3, #2
 8000e16:	633b      	str	r3, [r7, #48]	@ 0x30
  GPIO_InitStruct.Pull = GPIO_NOPULL;
 8000e18:	2300      	movs	r3, #0
 8000e1a:	637b      	str	r3, [r7, #52]	@ 0x34
  GPIO_InitStruct.Speed = GPIO_SPEED_FREQ_VERY_HIGH;
 8000e1c:	2303      	movs	r3, #3
 8000e1e:	63bb      	str	r3, [r7, #56]	@ 0x38
  GPIO_InitStruct.Alternate = GPIO_AF12_SDMMC1;
 8000e20:	230c      	movs	r3, #12
 8000e22:	63fb      	str	r3, [r7, #60]	@ 0x3c
  HAL_GPIO_Init(SDMMC_CMD_GPIO_Port, &GPIO_InitStruct);
 8000e24:	f107 032c 	add.w	r3, r7, #44	@ 0x2c
 8000e28:	4619      	mov	r1, r3
 8000e2a:	4824      	ldr	r0, [pc, #144]	@ (8000ebc <MX_GPIO_Init+0x614>)
 8000e2c:	f001 f920 	bl	8002070 <HAL_GPIO_Init>

  /*Configure GPIO pins : TP3_Pin NC2_Pin */
  GPIO_InitStruct.Pin = TP3_Pin|NC2_Pin;
 8000e30:	f248 0304 	movw	r3, #32772	@ 0x8004
 8000e34:	62fb      	str	r3, [r7, #44]	@ 0x2c
  GPIO_InitStruct.Mode = GPIO_MODE_INPUT;
 8000e36:	2300      	movs	r3, #0
 8000e38:	633b      	str	r3, [r7, #48]	@ 0x30
  GPIO_InitStruct.Pull = GPIO_NOPULL;
 8000e3a:	2300      	movs	r3, #0
 8000e3c:	637b      	str	r3, [r7, #52]	@ 0x34
  HAL_GPIO_Init(GPIOH, &GPIO_InitStruct);
 8000e3e:	f107 032c 	add.w	r3, r7, #44	@ 0x2c
 8000e42:	4619      	mov	r1, r3
 8000e44:	4823      	ldr	r0, [pc, #140]	@ (8000ed4 <MX_GPIO_Init+0x62c>)
 8000e46:	f001 f913 	bl	8002070 <HAL_GPIO_Init>

  /*Configure GPIO pin : ARDUINO_SCK_D13_Pin */
  GPIO_InitStruct.Pin = ARDUINO_SCK_D13_Pin;
 8000e4a:	2302      	movs	r3, #2
 8000e4c:	62fb      	str	r3, [r7, #44]	@ 0x2c
  GPIO_InitStruct.Mode = GPIO_MODE_AF_PP;
 8000e4e:	2302      	movs	r3, #2
 8000e50:	633b      	str	r3, [r7, #48]	@ 0x30
  GPIO_InitStruct.Pull = GPIO_NOPULL;
 8000e52:	2300      	movs	r3, #0
 8000e54:	637b      	str	r3, [r7, #52]	@ 0x34
  GPIO_InitStruct.Speed = GPIO_SPEED_FREQ_LOW;
 8000e56:	2300      	movs	r3, #0
 8000e58:	63bb      	str	r3, [r7, #56]	@ 0x38
  GPIO_InitStruct.Alternate = GPIO_AF5_SPI2;
 8000e5a:	2305      	movs	r3, #5
 8000e5c:	63fb      	str	r3, [r7, #60]	@ 0x3c
  HAL_GPIO_Init(ARDUINO_SCK_D13_GPIO_Port, &GPIO_InitStruct);
 8000e5e:	f107 032c 	add.w	r3, r7, #44	@ 0x2c
 8000e62:	4619      	mov	r1, r3
 8000e64:	4817      	ldr	r0, [pc, #92]	@ (8000ec4 <MX_GPIO_Init+0x61c>)
 8000e66:	f001 f903 	bl	8002070 <HAL_GPIO_Init>

  /*Configure GPIO pin : LCD_DISP_Pin */
  GPIO_InitStruct.Pin = LCD_DISP_Pin;
 8000e6a:	f44f 5380 	mov.w	r3, #4096	@ 0x1000
 8000e6e:	62fb      	str	r3, [r7, #44]	@ 0x2c
  GPIO_InitStruct.Mode = GPIO_MODE_OUTPUT_PP;
 8000e70:	2301      	movs	r3, #1
 8000e72:	633b      	str	r3, [r7, #48]	@ 0x30
  GPIO_InitStruct.Pull = GPIO_NOPULL;
 8000e74:	2300      	movs	r3, #0
 8000e76:	637b      	str	r3, [r7, #52]	@ 0x34
  GPIO_InitStruct.Speed = GPIO_SPEED_FREQ_LOW;
 8000e78:	2300      	movs	r3, #0
 8000e7a:	63bb      	str	r3, [r7, #56]	@ 0x38
  HAL_GPIO_Init(LCD_DISP_GPIO_Port, &GPIO_InitStruct);
 8000e7c:	f107 032c 	add.w	r3, r7, #44	@ 0x2c
 8000e80:	4619      	mov	r1, r3
 8000e82:	4810      	ldr	r0, [pc, #64]	@ (8000ec4 <MX_GPIO_Init+0x61c>)
 8000e84:	f001 f8f4 	bl	8002070 <HAL_GPIO_Init>

  /*Configure GPIO pin : DCMI_PWR_EN_Pin */
  GPIO_InitStruct.Pin = DCMI_PWR_EN_Pin;
 8000e88:	f44f 5300 	mov.w	r3, #8192	@ 0x2000
 8000e8c:	62fb      	str	r3, [r7, #44]	@ 0x2c
  GPIO_InitStruct.Mode = GPIO_MODE_OUTPUT_PP;
 8000e8e:	2301      	movs	r3, #1
 8000e90:	633b      	str	r3, [r7, #48]	@ 0x30
  GPIO_InitStruct.Pull = GPIO_NOPULL;
 8000e92:	2300      	movs	r3, #0
 8000e94:	637b      	str	r3, [r7, #52]	@ 0x34
  GPIO_InitStruct.Speed = GPIO_SPEED_FREQ_LOW;
 8000e96:	2300      	movs	r3, #0
 8000e98:	63bb      	str	r3, [r7, #56]	@ 0x38
  HAL_GPIO_Init(DCMI_PWR_EN_GPIO_Port, &GPIO_InitStruct);
 8000e9a:	f107 032c 	add.w	r3, r7, #44	@ 0x2c
 8000e9e:	4619      	mov	r1, r3
 8000ea0:	480c      	ldr	r0, [pc, #48]	@ (8000ed4 <MX_GPIO_Init+0x62c>)
 8000ea2:	f001 f8e5 	bl	8002070 <HAL_GPIO_Init>

  /*Configure GPIO pins : DCMI_D4_Pin DCMI_D3_Pin DCMI_D0_Pin DCMI_D2_Pin
                           DCMI_D1_Pin */
  GPIO_InitStruct.Pin = DCMI_D4_Pin|DCMI_D3_Pin|DCMI_D0_Pin|DCMI_D2_Pin
 8000ea6:	f44f 43bc 	mov.w	r3, #24064	@ 0x5e00
 8000eaa:	62fb      	str	r3, [r7, #44]	@ 0x2c
                          |DCMI_D1_Pin;
  GPIO_InitStruct.Mode = GPIO_MODE_AF_PP;
 8000eac:	2302      	movs	r3, #2
 8000eae:	e013      	b.n	8000ed8 <MX_GPIO_Init+0x630>
 8000eb0:	40020400 	.word	0x40020400
 8000eb4:	40021800 	.word	0x40021800
 8000eb8:	40022400 	.word	0x40022400
 8000ebc:	40020c00 	.word	0x40020c00
 8000ec0:	40020000 	.word	0x40020000
 8000ec4:	40022000 	.word	0x40022000
 8000ec8:	40022800 	.word	0x40022800
 8000ecc:	40020800 	.word	0x40020800
 8000ed0:	40021400 	.word	0x40021400
 8000ed4:	40021c00 	.word	0x40021c00
 8000ed8:	633b      	str	r3, [r7, #48]	@ 0x30
  GPIO_InitStruct.Pull = GPIO_NOPULL;
 8000eda:	2300      	movs	r3, #0
 8000edc:	637b      	str	r3, [r7, #52]	@ 0x34
  GPIO_InitStruct.Speed = GPIO_SPEED_FREQ_LOW;
 8000ede:	2300      	movs	r3, #0
 8000ee0:	63bb      	str	r3, [r7, #56]	@ 0x38
  GPIO_InitStruct.Alternate = GPIO_AF13_DCMI;
 8000ee2:	230d      	movs	r3, #13
 8000ee4:	63fb      	str	r3, [r7, #60]	@ 0x3c
  HAL_GPIO_Init(GPIOH, &GPIO_InitStruct);
 8000ee6:	f107 032c 	add.w	r3, r7, #44	@ 0x2c
 8000eea:	4619      	mov	r1, r3
 8000eec:	4895      	ldr	r0, [pc, #596]	@ (8001144 <MX_GPIO_Init+0x89c>)
 8000eee:	f001 f8bf 	bl	8002070 <HAL_GPIO_Init>

  /*Configure GPIO pin : Btn_pin_Pin */
  GPIO_InitStruct.Pin = Btn_pin_Pin;
 8000ef2:	f44f 6300 	mov.w	r3, #2048	@ 0x800
 8000ef6:	62fb      	str	r3, [r7, #44]	@ 0x2c
  GPIO_InitStruct.Mode = GPIO_MODE_INPUT;
 8000ef8:	2300      	movs	r3, #0
 8000efa:	633b      	str	r3, [r7, #48]	@ 0x30
  GPIO_InitStruct.Pull = GPIO_PULLDOWN;
 8000efc:	2302      	movs	r3, #2
 8000efe:	637b      	str	r3, [r7, #52]	@ 0x34
  HAL_GPIO_Init(Btn_pin_GPIO_Port, &GPIO_InitStruct);
 8000f00:	f107 032c 	add.w	r3, r7, #44	@ 0x2c
 8000f04:	4619      	mov	r1, r3
 8000f06:	4890      	ldr	r0, [pc, #576]	@ (8001148 <MX_GPIO_Init+0x8a0>)
 8000f08:	f001 f8b2 	bl	8002070 <HAL_GPIO_Init>

  /*Configure GPIO pin : ARDUINO_PWM_D10_Pin */
  GPIO_InitStruct.Pin = ARDUINO_PWM_D10_Pin;
 8000f0c:	f44f 7380 	mov.w	r3, #256	@ 0x100
 8000f10:	62fb      	str	r3, [r7, #44]	@ 0x2c
  GPIO_InitStruct.Mode = GPIO_MODE_AF_PP;
 8000f12:	2302      	movs	r3, #2
 8000f14:	633b      	str	r3, [r7, #48]	@ 0x30
  GPIO_InitStruct.Pull = GPIO_NOPULL;
 8000f16:	2300      	movs	r3, #0
 8000f18:	637b      	str	r3, [r7, #52]	@ 0x34
  GPIO_InitStruct.Speed = GPIO_SPEED_FREQ_LOW;
 8000f1a:	2300      	movs	r3, #0
 8000f1c:	63bb      	str	r3, [r7, #56]	@ 0x38
  GPIO_InitStruct.Alternate = GPIO_AF1_TIM1;
 8000f1e:	2301      	movs	r3, #1
 8000f20:	63fb      	str	r3, [r7, #60]	@ 0x3c
  HAL_GPIO_Init(ARDUINO_PWM_D10_GPIO_Port, &GPIO_InitStruct);
 8000f22:	f107 032c 	add.w	r3, r7, #44	@ 0x2c
 8000f26:	4619      	mov	r1, r3
 8000f28:	4888      	ldr	r0, [pc, #544]	@ (800114c <MX_GPIO_Init+0x8a4>)
 8000f2a:	f001 f8a1 	bl	8002070 <HAL_GPIO_Init>

  /*Configure GPIO pin : LCD_INT_Pin */
  GPIO_InitStruct.Pin = LCD_INT_Pin;
 8000f2e:	f44f 5300 	mov.w	r3, #8192	@ 0x2000
 8000f32:	62fb      	str	r3, [r7, #44]	@ 0x2c
  GPIO_InitStruct.Mode = GPIO_MODE_EVT_RISING;
 8000f34:	f44f 1390 	mov.w	r3, #1179648	@ 0x120000
 8000f38:	633b      	str	r3, [r7, #48]	@ 0x30
  GPIO_InitStruct.Pull = GPIO_NOPULL;
 8000f3a:	2300      	movs	r3, #0
 8000f3c:	637b      	str	r3, [r7, #52]	@ 0x34
  HAL_GPIO_Init(LCD_INT_GPIO_Port, &GPIO_InitStruct);
 8000f3e:	f107 032c 	add.w	r3, r7, #44	@ 0x2c
 8000f42:	4619      	mov	r1, r3
 8000f44:	4880      	ldr	r0, [pc, #512]	@ (8001148 <MX_GPIO_Init+0x8a0>)
 8000f46:	f001 f893 	bl	8002070 <HAL_GPIO_Init>

  /*Configure GPIO pin : ARDUINO_RX_D0_Pin */
  GPIO_InitStruct.Pin = ARDUINO_RX_D0_Pin;
 8000f4a:	2380      	movs	r3, #128	@ 0x80
 8000f4c:	62fb      	str	r3, [r7, #44]	@ 0x2c
  GPIO_InitStruct.Mode = GPIO_MODE_AF_PP;
 8000f4e:	2302      	movs	r3, #2
 8000f50:	633b      	str	r3, [r7, #48]	@ 0x30
  GPIO_InitStruct.Pull = GPIO_NOPULL;
 8000f52:	2300      	movs	r3, #0
 8000f54:	637b      	str	r3, [r7, #52]	@ 0x34
  GPIO_InitStruct.Speed = GPIO_SPEED_FREQ_VERY_HIGH;
 8000f56:	2303      	movs	r3, #3
 8000f58:	63bb      	str	r3, [r7, #56]	@ 0x38
  GPIO_InitStruct.Alternate = GPIO_AF8_USART6;
 8000f5a:	2308      	movs	r3, #8
 8000f5c:	63fb      	str	r3, [r7, #60]	@ 0x3c
  HAL_GPIO_Init(ARDUINO_RX_D0_GPIO_Port, &GPIO_InitStruct);
 8000f5e:	f107 032c 	add.w	r3, r7, #44	@ 0x2c
 8000f62:	4619      	mov	r1, r3
 8000f64:	487a      	ldr	r0, [pc, #488]	@ (8001150 <MX_GPIO_Init+0x8a8>)
 8000f66:	f001 f883 	bl	8002070 <HAL_GPIO_Init>

  /*Configure GPIO pin : IndicatorGreen_Pin */
  GPIO_InitStruct.Pin = IndicatorGreen_Pin;
 8000f6a:	2340      	movs	r3, #64	@ 0x40
 8000f6c:	62fb      	str	r3, [r7, #44]	@ 0x2c
  GPIO_InitStruct.Mode = GPIO_MODE_OUTPUT_PP;
 8000f6e:	2301      	movs	r3, #1
 8000f70:	633b      	str	r3, [r7, #48]	@ 0x30
  GPIO_InitStruct.Pull = GPIO_PULLDOWN;
 8000f72:	2302      	movs	r3, #2
 8000f74:	637b      	str	r3, [r7, #52]	@ 0x34
  GPIO_InitStruct.Speed = GPIO_SPEED_FREQ_LOW;
 8000f76:	2300      	movs	r3, #0
 8000f78:	63bb      	str	r3, [r7, #56]	@ 0x38
  HAL_GPIO_Init(IndicatorGreen_GPIO_Port, &GPIO_InitStruct);
 8000f7a:	f107 032c 	add.w	r3, r7, #44	@ 0x2c
 8000f7e:	4619      	mov	r1, r3
 8000f80:	4873      	ldr	r0, [pc, #460]	@ (8001150 <MX_GPIO_Init+0x8a8>)
 8000f82:	f001 f875 	bl	8002070 <HAL_GPIO_Init>

  /*Configure GPIO pins : FMC_SDNME_Pin FMC_SDNE0_Pin */
  GPIO_InitStruct.Pin = FMC_SDNME_Pin|FMC_SDNE0_Pin;
 8000f86:	2328      	movs	r3, #40	@ 0x28
 8000f88:	62fb      	str	r3, [r7, #44]	@ 0x2c
  GPIO_InitStruct.Mode = GPIO_MODE_AF_PP;
 8000f8a:	2302      	movs	r3, #2
 8000f8c:	633b      	str	r3, [r7, #48]	@ 0x30
  GPIO_InitStruct.Pull = GPIO_NOPULL;
 8000f8e:	2300      	movs	r3, #0
 8000f90:	637b      	str	r3, [r7, #52]	@ 0x34
  GPIO_InitStruct.Speed = GPIO_SPEED_FREQ_VERY_HIGH;
 8000f92:	2303      	movs	r3, #3
 8000f94:	63bb      	str	r3, [r7, #56]	@ 0x38
  GPIO_InitStruct.Alternate = GPIO_AF12_FMC;
 8000f96:	230c      	movs	r3, #12
 8000f98:	63fb      	str	r3, [r7, #60]	@ 0x3c
  HAL_GPIO_Init(GPIOH, &GPIO_InitStruct);
 8000f9a:	f107 032c 	add.w	r3, r7, #44	@ 0x2c
 8000f9e:	4619      	mov	r1, r3
 8000fa0:	4868      	ldr	r0, [pc, #416]	@ (8001144 <MX_GPIO_Init+0x89c>)
 8000fa2:	f001 f865 	bl	8002070 <HAL_GPIO_Init>

  /*Configure GPIO pins : IndicatorBlue1_Pin IndicatorYellow1_Pin */
  GPIO_InitStruct.Pin = IndicatorBlue1_Pin|IndicatorYellow1_Pin;
 8000fa6:	23c0      	movs	r3, #192	@ 0xc0
 8000fa8:	62fb      	str	r3, [r7, #44]	@ 0x2c
  GPIO_InitStruct.Mode = GPIO_MODE_OUTPUT_PP;
 8000faa:	2301      	movs	r3, #1
 8000fac:	633b      	str	r3, [r7, #48]	@ 0x30
  GPIO_InitStruct.Pull = GPIO_PULLDOWN;
 8000fae:	2302      	movs	r3, #2
 8000fb0:	637b      	str	r3, [r7, #52]	@ 0x34
  GPIO_InitStruct.Speed = GPIO_SPEED_FREQ_LOW;
 8000fb2:	2300      	movs	r3, #0
 8000fb4:	63bb      	str	r3, [r7, #56]	@ 0x38
  HAL_GPIO_Init(GPIOG, &GPIO_InitStruct);
 8000fb6:	f107 032c 	add.w	r3, r7, #44	@ 0x2c
 8000fba:	4619      	mov	r1, r3
 8000fbc:	4865      	ldr	r0, [pc, #404]	@ (8001154 <MX_GPIO_Init+0x8ac>)
 8000fbe:	f001 f857 	bl	8002070 <HAL_GPIO_Init>

  /*Configure GPIO pin : FMC_SDCKE0_Pin */
  GPIO_InitStruct.Pin = FMC_SDCKE0_Pin;
 8000fc2:	2308      	movs	r3, #8
 8000fc4:	62fb      	str	r3, [r7, #44]	@ 0x2c
  GPIO_InitStruct.Mode = GPIO_MODE_AF_PP;
 8000fc6:	2302      	movs	r3, #2
 8000fc8:	633b      	str	r3, [r7, #48]	@ 0x30
  GPIO_InitStruct.Pull = GPIO_NOPULL;
 8000fca:	2300      	movs	r3, #0
 8000fcc:	637b      	str	r3, [r7, #52]	@ 0x34
  GPIO_InitStruct.Speed = GPIO_SPEED_FREQ_VERY_HIGH;
 8000fce:	2303      	movs	r3, #3
 8000fd0:	63bb      	str	r3, [r7, #56]	@ 0x38
  GPIO_InitStruct.Alternate = GPIO_AF12_FMC;
 8000fd2:	230c      	movs	r3, #12
 8000fd4:	63fb      	str	r3, [r7, #60]	@ 0x3c
  HAL_GPIO_Init(FMC_SDCKE0_GPIO_Port, &GPIO_InitStruct);
 8000fd6:	f107 032c 	add.w	r3, r7, #44	@ 0x2c
 8000fda:	4619      	mov	r1, r3
 8000fdc:	485c      	ldr	r0, [pc, #368]	@ (8001150 <MX_GPIO_Init+0x8a8>)
 8000fde:	f001 f847 	bl	8002070 <HAL_GPIO_Init>

  /*Configure GPIO pins : RMII_MDC_Pin RMII_RXD0_Pin RMII_RXD1_Pin */
  GPIO_InitStruct.Pin = RMII_MDC_Pin|RMII_RXD0_Pin|RMII_RXD1_Pin;
 8000fe2:	2332      	movs	r3, #50	@ 0x32
 8000fe4:	62fb      	str	r3, [r7, #44]	@ 0x2c
  GPIO_InitStruct.Mode = GPIO_MODE_AF_PP;
 8000fe6:	2302      	movs	r3, #2
 8000fe8:	633b      	str	r3, [r7, #48]	@ 0x30
  GPIO_InitStruct.Pull = GPIO_NOPULL;
 8000fea:	2300      	movs	r3, #0
 8000fec:	637b      	str	r3, [r7, #52]	@ 0x34
  GPIO_InitStruct.Speed = GPIO_SPEED_FREQ_VERY_HIGH;
 8000fee:	2303      	movs	r3, #3
 8000ff0:	63bb      	str	r3, [r7, #56]	@ 0x38
  GPIO_InitStruct.Alternate = GPIO_AF11_ETH;
 8000ff2:	230b      	movs	r3, #11
 8000ff4:	63fb      	str	r3, [r7, #60]	@ 0x3c
  HAL_GPIO_Init(GPIOC, &GPIO_InitStruct);
 8000ff6:	f107 032c 	add.w	r3, r7, #44	@ 0x2c
 8000ffa:	4619      	mov	r1, r3
 8000ffc:	4854      	ldr	r0, [pc, #336]	@ (8001150 <MX_GPIO_Init+0x8a8>)
 8000ffe:	f001 f837 	bl	8002070 <HAL_GPIO_Init>

  /*Configure GPIO pin : PB2 */
  GPIO_InitStruct.Pin = GPIO_PIN_2;
 8001002:	2304      	movs	r3, #4
 8001004:	62fb      	str	r3, [r7, #44]	@ 0x2c
  GPIO_InitStruct.Mode = GPIO_MODE_AF_PP;
 8001006:	2302      	movs	r3, #2
 8001008:	633b      	str	r3, [r7, #48]	@ 0x30
  GPIO_InitStruct.Pull = GPIO_NOPULL;
 800100a:	2300      	movs	r3, #0
 800100c:	637b      	str	r3, [r7, #52]	@ 0x34
  GPIO_InitStruct.Speed = GPIO_SPEED_FREQ_VERY_HIGH;
 800100e:	2303      	movs	r3, #3
 8001010:	63bb      	str	r3, [r7, #56]	@ 0x38
  GPIO_InitStruct.Alternate = GPIO_AF9_QUADSPI;
 8001012:	2309      	movs	r3, #9
 8001014:	63fb      	str	r3, [r7, #60]	@ 0x3c
  HAL_GPIO_Init(GPIOB, &GPIO_InitStruct);
 8001016:	f107 032c 	add.w	r3, r7, #44	@ 0x2c
 800101a:	4619      	mov	r1, r3
 800101c:	484e      	ldr	r0, [pc, #312]	@ (8001158 <MX_GPIO_Init+0x8b0>)
 800101e:	f001 f827 	bl	8002070 <HAL_GPIO_Init>

  /*Configure GPIO pins : QSPI_D1_Pin QSPI_D3_Pin QSPI_D0_Pin */
  GPIO_InitStruct.Pin = QSPI_D1_Pin|QSPI_D3_Pin|QSPI_D0_Pin;
 8001022:	f44f 5360 	mov.w	r3, #14336	@ 0x3800
 8001026:	62fb      	str	r3, [r7, #44]	@ 0x2c
  GPIO_InitStruct.Mode = GPIO_MODE_AF_PP;
 8001028:	2302      	movs	r3, #2
 800102a:	633b      	str	r3, [r7, #48]	@ 0x30
  GPIO_InitStruct.Pull = GPIO_NOPULL;
 800102c:	2300      	movs	r3, #0
 800102e:	637b      	str	r3, [r7, #52]	@ 0x34
  GPIO_InitStruct.Speed = GPIO_SPEED_FREQ_VERY_HIGH;
 8001030:	2303      	movs	r3, #3
 8001032:	63bb      	str	r3, [r7, #56]	@ 0x38
  GPIO_InitStruct.Alternate = GPIO_AF9_QUADSPI;
 8001034:	2309      	movs	r3, #9
 8001036:	63fb      	str	r3, [r7, #60]	@ 0x3c
  HAL_GPIO_Init(GPIOD, &GPIO_InitStruct);
 8001038:	f107 032c 	add.w	r3, r7, #44	@ 0x2c
 800103c:	4619      	mov	r1, r3
 800103e:	4847      	ldr	r0, [pc, #284]	@ (800115c <MX_GPIO_Init+0x8b4>)
 8001040:	f001 f816 	bl	8002070 <HAL_GPIO_Init>

  /*Configure GPIO pin : EXT_RST_Pin */
  GPIO_InitStruct.Pin = EXT_RST_Pin;
 8001044:	2308      	movs	r3, #8
 8001046:	62fb      	str	r3, [r7, #44]	@ 0x2c
  GPIO_InitStruct.Mode = GPIO_MODE_OUTPUT_PP;
 8001048:	2301      	movs	r3, #1
 800104a:	633b      	str	r3, [r7, #48]	@ 0x30
  GPIO_InitStruct.Pull = GPIO_NOPULL;
 800104c:	2300      	movs	r3, #0
 800104e:	637b      	str	r3, [r7, #52]	@ 0x34
  GPIO_InitStruct.Speed = GPIO_SPEED_FREQ_LOW;
 8001050:	2300      	movs	r3, #0
 8001052:	63bb      	str	r3, [r7, #56]	@ 0x38
  HAL_GPIO_Init(EXT_RST_GPIO_Port, &GPIO_InitStruct);
 8001054:	f107 032c 	add.w	r3, r7, #44	@ 0x2c
 8001058:	4619      	mov	r1, r3
 800105a:	483e      	ldr	r0, [pc, #248]	@ (8001154 <MX_GPIO_Init+0x8ac>)
 800105c:	f001 f808 	bl	8002070 <HAL_GPIO_Init>

  /*Configure GPIO pin : RMII_RXER_Pin */
  GPIO_InitStruct.Pin = RMII_RXER_Pin;
 8001060:	2304      	movs	r3, #4
 8001062:	62fb      	str	r3, [r7, #44]	@ 0x2c
  GPIO_InitStruct.Mode = GPIO_MODE_INPUT;
 8001064:	2300      	movs	r3, #0
 8001066:	633b      	str	r3, [r7, #48]	@ 0x30
  GPIO_InitStruct.Pull = GPIO_NOPULL;
 8001068:	2300      	movs	r3, #0
 800106a:	637b      	str	r3, [r7, #52]	@ 0x34
  HAL_GPIO_Init(RMII_RXER_GPIO_Port, &GPIO_InitStruct);
 800106c:	f107 032c 	add.w	r3, r7, #44	@ 0x2c
 8001070:	4619      	mov	r1, r3
 8001072:	4838      	ldr	r0, [pc, #224]	@ (8001154 <MX_GPIO_Init+0x8ac>)
 8001074:	f000 fffc 	bl	8002070 <HAL_GPIO_Init>

  /*Configure GPIO pins : RMII_REF_CLK_Pin RMII_MDIO_Pin RMII_CRS_DV_Pin */
  GPIO_InitStruct.Pin = RMII_REF_CLK_Pin|RMII_MDIO_Pin|RMII_CRS_DV_Pin;
 8001078:	2386      	movs	r3, #134	@ 0x86
 800107a:	62fb      	str	r3, [r7, #44]	@ 0x2c
  GPIO_InitStruct.Mode = GPIO_MODE_AF_PP;
 800107c:	2302      	movs	r3, #2
 800107e:	633b      	str	r3, [r7, #48]	@ 0x30
  GPIO_InitStruct.Pull = GPIO_NOPULL;
 8001080:	2300      	movs	r3, #0
 8001082:	637b      	str	r3, [r7, #52]	@ 0x34
  GPIO_InitStruct.Speed = GPIO_SPEED_FREQ_VERY_HIGH;
 8001084:	2303      	movs	r3, #3
 8001086:	63bb      	str	r3, [r7, #56]	@ 0x38
  GPIO_InitStruct.Alternate = GPIO_AF11_ETH;
 8001088:	230b      	movs	r3, #11
 800108a:	63fb      	str	r3, [r7, #60]	@ 0x3c
  HAL_GPIO_Init(GPIOA, &GPIO_InitStruct);
 800108c:	f107 032c 	add.w	r3, r7, #44	@ 0x2c
 8001090:	4619      	mov	r1, r3
 8001092:	482e      	ldr	r0, [pc, #184]	@ (800114c <MX_GPIO_Init+0x8a4>)
 8001094:	f000 ffec 	bl	8002070 <HAL_GPIO_Init>

  /*Configure GPIO pins : DCMI_HSYNC_Pin PA6 */
  GPIO_InitStruct.Pin = DCMI_HSYNC_Pin|GPIO_PIN_6;
 8001098:	2350      	movs	r3, #80	@ 0x50
 800109a:	62fb      	str	r3, [r7, #44]	@ 0x2c
  GPIO_InitStruct.Mode = GPIO_MODE_AF_PP;
 800109c:	2302      	movs	r3, #2
 800109e:	633b      	str	r3, [r7, #48]	@ 0x30
  GPIO_InitStruct.Pull = GPIO_NOPULL;
 80010a0:	2300      	movs	r3, #0
 80010a2:	637b      	str	r3, [r7, #52]	@ 0x34
  GPIO_InitStruct.Speed = GPIO_SPEED_FREQ_LOW;
 80010a4:	2300      	movs	r3, #0
 80010a6:	63bb      	str	r3, [r7, #56]	@ 0x38
  GPIO_InitStruct.Alternate = GPIO_AF13_DCMI;
 80010a8:	230d      	movs	r3, #13
 80010aa:	63fb      	str	r3, [r7, #60]	@ 0x3c
  HAL_GPIO_Init(GPIOA, &GPIO_InitStruct);
 80010ac:	f107 032c 	add.w	r3, r7, #44	@ 0x2c
 80010b0:	4619      	mov	r1, r3
 80010b2:	4826      	ldr	r0, [pc, #152]	@ (800114c <MX_GPIO_Init+0x8a4>)
 80010b4:	f000 ffdc 	bl	8002070 <HAL_GPIO_Init>

  /*Configure GPIO pins : LCD_SCL_Pin LCD_SDA_Pin */
  GPIO_InitStruct.Pin = LCD_SCL_Pin|LCD_SDA_Pin;
 80010b8:	f44f 73c0 	mov.w	r3, #384	@ 0x180
 80010bc:	62fb      	str	r3, [r7, #44]	@ 0x2c
  GPIO_InitStruct.Mode = GPIO_MODE_AF_OD;
 80010be:	2312      	movs	r3, #18
 80010c0:	633b      	str	r3, [r7, #48]	@ 0x30
  GPIO_InitStruct.Pull = GPIO_PULLUP;
 80010c2:	2301      	movs	r3, #1
 80010c4:	637b      	str	r3, [r7, #52]	@ 0x34
  GPIO_InitStruct.Speed = GPIO_SPEED_FREQ_VERY_HIGH;
 80010c6:	2303      	movs	r3, #3
 80010c8:	63bb      	str	r3, [r7, #56]	@ 0x38
  GPIO_InitStruct.Alternate = GPIO_AF4_I2C3;
 80010ca:	2304      	movs	r3, #4
 80010cc:	63fb      	str	r3, [r7, #60]	@ 0x3c
  HAL_GPIO_Init(GPIOH, &GPIO_InitStruct);
 80010ce:	f107 032c 	add.w	r3, r7, #44	@ 0x2c
 80010d2:	4619      	mov	r1, r3
 80010d4:	481b      	ldr	r0, [pc, #108]	@ (8001144 <MX_GPIO_Init+0x89c>)
 80010d6:	f000 ffcb 	bl	8002070 <HAL_GPIO_Init>

  /*Configure GPIO pin : ULPI_D3_Pin */
  GPIO_InitStruct.Pin = ULPI_D3_Pin;
 80010da:	f44f 6380 	mov.w	r3, #1024	@ 0x400
 80010de:	62fb      	str	r3, [r7, #44]	@ 0x2c
  GPIO_InitStruct.Mode = GPIO_MODE_AF_PP;
 80010e0:	2302      	movs	r3, #2
 80010e2:	633b      	str	r3, [r7, #48]	@ 0x30
  GPIO_InitStruct.Pull = GPIO_NOPULL;
 80010e4:	2300      	movs	r3, #0
 80010e6:	637b      	str	r3, [r7, #52]	@ 0x34
  GPIO_InitStruct.Speed = GPIO_SPEED_FREQ_VERY_HIGH;
 80010e8:	2303      	movs	r3, #3
 80010ea:	63bb      	str	r3, [r7, #56]	@ 0x38
  GPIO_InitStruct.Alternate = GPIO_AF10_OTG_HS;
 80010ec:	230a      	movs	r3, #10
 80010ee:	63fb      	str	r3, [r7, #60]	@ 0x3c
  HAL_GPIO_Init(ULPI_D3_GPIO_Port, &GPIO_InitStruct);
 80010f0:	f107 032c 	add.w	r3, r7, #44	@ 0x2c
 80010f4:	4619      	mov	r1, r3
 80010f6:	4818      	ldr	r0, [pc, #96]	@ (8001158 <MX_GPIO_Init+0x8b0>)
 80010f8:	f000 ffba 	bl	8002070 <HAL_GPIO_Init>

  /*Configure GPIO pin : IndicatorBlue3_Pin */
  GPIO_InitStruct.Pin = IndicatorBlue3_Pin;
 80010fc:	2340      	movs	r3, #64	@ 0x40
 80010fe:	62fb      	str	r3, [r7, #44]	@ 0x2c
  GPIO_InitStruct.Mode = GPIO_MODE_OUTPUT_PP;
 8001100:	2301      	movs	r3, #1
 8001102:	633b      	str	r3, [r7, #48]	@ 0x30
  GPIO_InitStruct.Pull = GPIO_PULLDOWN;
 8001104:	2302      	movs	r3, #2
 8001106:	637b      	str	r3, [r7, #52]	@ 0x34
  GPIO_InitStruct.Speed = GPIO_SPEED_FREQ_LOW;
 8001108:	2300      	movs	r3, #0
 800110a:	63bb      	str	r3, [r7, #56]	@ 0x38
  HAL_GPIO_Init(IndicatorBlue3_GPIO_Port, &GPIO_InitStruct);
 800110c:	f107 032c 	add.w	r3, r7, #44	@ 0x2c
 8001110:	4619      	mov	r1, r3
 8001112:	480c      	ldr	r0, [pc, #48]	@ (8001144 <MX_GPIO_Init+0x89c>)
 8001114:	f000 ffac 	bl	8002070 <HAL_GPIO_Init>

  /*Configure GPIO pins : ARDUINO_MISO_D12_Pin ARDUINO_MOSI_PWM_D11_Pin */
  GPIO_InitStruct.Pin = ARDUINO_MISO_D12_Pin|ARDUINO_MOSI_PWM_D11_Pin;
 8001118:	f44f 4340 	mov.w	r3, #49152	@ 0xc000
 800111c:	62fb      	str	r3, [r7, #44]	@ 0x2c
  GPIO_InitStruct.Mode = GPIO_MODE_AF_PP;
 800111e:	2302      	movs	r3, #2
 8001120:	633b      	str	r3, [r7, #48]	@ 0x30
  GPIO_InitStruct.Pull = GPIO_NOPULL;
 8001122:	2300      	movs	r3, #0
 8001124:	637b      	str	r3, [r7, #52]	@ 0x34
  GPIO_InitStruct.Speed = GPIO_SPEED_FREQ_LOW;
 8001126:	2300      	movs	r3, #0
 8001128:	63bb      	str	r3, [r7, #56]	@ 0x38
  GPIO_InitStruct.Alternate = GPIO_AF5_SPI2;
 800112a:	2305      	movs	r3, #5
 800112c:	63fb      	str	r3, [r7, #60]	@ 0x3c
  HAL_GPIO_Init(GPIOB, &GPIO_InitStruct);
 800112e:	f107 032c 	add.w	r3, r7, #44	@ 0x2c
 8001132:	4619      	mov	r1, r3
 8001134:	4808      	ldr	r0, [pc, #32]	@ (8001158 <MX_GPIO_Init+0x8b0>)
 8001136:	f000 ff9b 	bl	8002070 <HAL_GPIO_Init>

/* USER CODE BEGIN MX_GPIO_Init_2 */
/* USER CODE END MX_GPIO_Init_2 */
}
 800113a:	bf00      	nop
 800113c:	3740      	adds	r7, #64	@ 0x40
 800113e:	46bd      	mov	sp, r7
 8001140:	bd80      	pop	{r7, pc}
 8001142:	bf00      	nop
 8001144:	40021c00 	.word	0x40021c00
 8001148:	40022000 	.word	0x40022000
 800114c:	40020000 	.word	0x40020000
 8001150:	40020800 	.word	0x40020800
 8001154:	40021800 	.word	0x40021800
 8001158:	40020400 	.word	0x40020400
 800115c:	40020c00 	.word	0x40020c00

08001160 <StartMainTask>:
  * @param  argument: Not used
  * @retval None
  */
/* USER CODE END Header_StartMainTask */
void StartMainTask(void *argument)
{
 8001160:	b580      	push	{r7, lr}
 8001162:	b084      	sub	sp, #16
 8001164:	af00      	add	r7, sp, #0
 8001166:	6078      	str	r0, [r7, #4]
  /* USER CODE BEGIN 5 */
  /* Infinite loop */
  for(;;)
  {
	  char* msg = "Eve me";
 8001168:	4b05      	ldr	r3, [pc, #20]	@ (8001180 <StartMainTask+0x20>)
 800116a:	60fb      	str	r3, [r7, #12]
	  UART_TransmitString(msg);
 800116c:	68f8      	ldr	r0, [r7, #12]
 800116e:	f7ff f9cf 	bl	8000510 <UART_TransmitString>
    osDelay(1000);
 8001172:	f44f 707a 	mov.w	r0, #1000	@ 0x3e8
 8001176:	f003 feaf 	bl	8004ed8 <osDelay>
  {
 800117a:	bf00      	nop
 800117c:	e7f4      	b.n	8001168 <StartMainTask+0x8>
 800117e:	bf00      	nop
 8001180:	08008098 	.word	0x08008098

08001184 <StartTerminalTask>:
* @param argument: Not used
* @retval None
*/
/* USER CODE END Header_StartTerminalTask */
void StartTerminalTask(void *argument)
{
 8001184:	b580      	push	{r7, lr}
 8001186:	b082      	sub	sp, #8
 8001188:	af00      	add	r7, sp, #0
 800118a:	6078      	str	r0, [r7, #4]
  /* USER CODE BEGIN StartTerminalTask */
  /* Infinite loop */
  for(;;)
  {
    osDelay(1);
 800118c:	2001      	movs	r0, #1
 800118e:	f003 fea3 	bl	8004ed8 <osDelay>
 8001192:	e7fb      	b.n	800118c <StartTerminalTask+0x8>

08001194 <StartButtonTask>:
* @param argument: Not used
* @retval None
*/
/* USER CODE END Header_StartButtonTask */
void StartButtonTask(void *argument)
{
 8001194:	b580      	push	{r7, lr}
 8001196:	b082      	sub	sp, #8
 8001198:	af00      	add	r7, sp, #0
 800119a:	6078      	str	r0, [r7, #4]
  /* USER CODE BEGIN StartButtonTask */
  /* Infinite loop */
  for(;;)
  {
    osDelay(1);
 800119c:	2001      	movs	r0, #1
 800119e:	f003 fe9b 	bl	8004ed8 <osDelay>
 80011a2:	e7fb      	b.n	800119c <StartButtonTask+0x8>

080011a4 <LEDTimerCallback>:
  /* USER CODE END StartButtonTask */
}

/* LEDTimerCallback function */
void LEDTimerCallback(void *argument)
{
 80011a4:	b480      	push	{r7}
 80011a6:	b083      	sub	sp, #12
 80011a8:	af00      	add	r7, sp, #0
 80011aa:	6078      	str	r0, [r7, #4]
  /* USER CODE BEGIN LEDTimerCallback */

  /* USER CODE END LEDTimerCallback */
}
 80011ac:	bf00      	nop
 80011ae:	370c      	adds	r7, #12
 80011b0:	46bd      	mov	sp, r7
 80011b2:	f85d 7b04 	ldr.w	r7, [sp], #4
 80011b6:	4770      	bx	lr

080011b8 <TransmitTimerCallback>:

/* TransmitTimerCallback function */
void TransmitTimerCallback(void *argument)
{
 80011b8:	b480      	push	{r7}
 80011ba:	b083      	sub	sp, #12
 80011bc:	af00      	add	r7, sp, #0
 80011be:	6078      	str	r0, [r7, #4]
  /* USER CODE BEGIN TransmitTimerCallback */

  /* USER CODE END TransmitTimerCallback */
}
 80011c0:	bf00      	nop
 80011c2:	370c      	adds	r7, #12
 80011c4:	46bd      	mov	sp, r7
 80011c6:	f85d 7b04 	ldr.w	r7, [sp], #4
 80011ca:	4770      	bx	lr

080011cc <ButtonTimerCallback>:

/* ButtonTimerCallback function */
void ButtonTimerCallback(void *argument)
{
 80011cc:	b480      	push	{r7}
 80011ce:	b083      	sub	sp, #12
 80011d0:	af00      	add	r7, sp, #0
 80011d2:	6078      	str	r0, [r7, #4]
  /* USER CODE BEGIN ButtonTimerCallback */

  /* USER CODE END ButtonTimerCallback */
}
 80011d4:	bf00      	nop
 80011d6:	370c      	adds	r7, #12
 80011d8:	46bd      	mov	sp, r7
 80011da:	f85d 7b04 	ldr.w	r7, [sp], #4
 80011de:	4770      	bx	lr

080011e0 <HAL_TIM_PeriodElapsedCallback>:
  * a global variable "uwTick" used as application time base.
  * @param  htim : TIM handle
  * @retval None
  */
void HAL_TIM_PeriodElapsedCallback(TIM_HandleTypeDef *htim)
{
 80011e0:	b580      	push	{r7, lr}
 80011e2:	b082      	sub	sp, #8
 80011e4:	af00      	add	r7, sp, #0
 80011e6:	6078      	str	r0, [r7, #4]
  /* USER CODE BEGIN Callback 0 */

  /* USER CODE END Callback 0 */
  if (htim->Instance == TIM14) {
 80011e8:	687b      	ldr	r3, [r7, #4]
 80011ea:	681b      	ldr	r3, [r3, #0]
 80011ec:	4a04      	ldr	r2, [pc, #16]	@ (8001200 <HAL_TIM_PeriodElapsedCallback+0x20>)
 80011ee:	4293      	cmp	r3, r2
 80011f0:	d101      	bne.n	80011f6 <HAL_TIM_PeriodElapsedCallback+0x16>
    HAL_IncTick();
 80011f2:	f000 fa2b 	bl	800164c <HAL_IncTick>
  }
  /* USER CODE BEGIN Callback 1 */

  /* USER CODE END Callback 1 */
}
 80011f6:	bf00      	nop
 80011f8:	3708      	adds	r7, #8
 80011fa:	46bd      	mov	sp, r7
 80011fc:	bd80      	pop	{r7, pc}
 80011fe:	bf00      	nop
 8001200:	40002000 	.word	0x40002000

08001204 <Error_Handler>:
/**
  * @brief  This function is executed in case of error occurrence.
  * @retval None
  */
void Error_Handler(void)
{
 8001204:	b480      	push	{r7}
 8001206:	af00      	add	r7, sp, #0
  \details Disables IRQ interrupts by setting the I-bit in the CPSR.
           Can only be executed in Privileged modes.
 */
__STATIC_FORCEINLINE void __disable_irq(void)
{
  __ASM volatile ("cpsid i" : : : "memory");
 8001208:	b672      	cpsid	i
}
 800120a:	bf00      	nop
  /* USER CODE BEGIN Error_Handler_Debug */
  /* User can add his own implementation to report the HAL error return state */
  __disable_irq();
  while (1)
 800120c:	bf00      	nop
 800120e:	e7fd      	b.n	800120c <Error_Handler+0x8>

08001210 <HAL_MspInit>:
/* USER CODE END 0 */
/**
  * Initializes the Global MSP.
  */
void HAL_MspInit(void)
{
 8001210:	b580      	push	{r7, lr}
 8001212:	b082      	sub	sp, #8
 8001214:	af00      	add	r7, sp, #0

  /* USER CODE BEGIN MspInit 0 */

  /* USER CODE END MspInit 0 */

  __HAL_RCC_PWR_CLK_ENABLE();
 8001216:	4b11      	ldr	r3, [pc, #68]	@ (800125c <HAL_MspInit+0x4c>)
 8001218:	6c1b      	ldr	r3, [r3, #64]	@ 0x40
 800121a:	4a10      	ldr	r2, [pc, #64]	@ (800125c <HAL_MspInit+0x4c>)
 800121c:	f043 5380 	orr.w	r3, r3, #268435456	@ 0x10000000
 8001220:	6413      	str	r3, [r2, #64]	@ 0x40
 8001222:	4b0e      	ldr	r3, [pc, #56]	@ (800125c <HAL_MspInit+0x4c>)
 8001224:	6c1b      	ldr	r3, [r3, #64]	@ 0x40
 8001226:	f003 5380 	and.w	r3, r3, #268435456	@ 0x10000000
 800122a:	607b      	str	r3, [r7, #4]
 800122c:	687b      	ldr	r3, [r7, #4]
  __HAL_RCC_SYSCFG_CLK_ENABLE();
 800122e:	4b0b      	ldr	r3, [pc, #44]	@ (800125c <HAL_MspInit+0x4c>)
 8001230:	6c5b      	ldr	r3, [r3, #68]	@ 0x44
 8001232:	4a0a      	ldr	r2, [pc, #40]	@ (800125c <HAL_MspInit+0x4c>)
 8001234:	f443 4380 	orr.w	r3, r3, #16384	@ 0x4000
 8001238:	6453      	str	r3, [r2, #68]	@ 0x44
 800123a:	4b08      	ldr	r3, [pc, #32]	@ (800125c <HAL_MspInit+0x4c>)
 800123c:	6c5b      	ldr	r3, [r3, #68]	@ 0x44
 800123e:	f403 4380 	and.w	r3, r3, #16384	@ 0x4000
 8001242:	603b      	str	r3, [r7, #0]
 8001244:	683b      	ldr	r3, [r7, #0]

  /* System interrupt init*/
  /* PendSV_IRQn interrupt configuration */
  HAL_NVIC_SetPriority(PendSV_IRQn, 15, 0);
 8001246:	2200      	movs	r2, #0
 8001248:	210f      	movs	r1, #15
 800124a:	f06f 0001 	mvn.w	r0, #1
 800124e:	f000 fd69 	bl	8001d24 <HAL_NVIC_SetPriority>

  /* USER CODE BEGIN MspInit 1 */

  /* USER CODE END MspInit 1 */
}
 8001252:	bf00      	nop
 8001254:	3708      	adds	r7, #8
 8001256:	46bd      	mov	sp, r7
 8001258:	bd80      	pop	{r7, pc}
 800125a:	bf00      	nop
 800125c:	40023800 	.word	0x40023800

08001260 <HAL_ADC_MspInit>:
* This function configures the hardware resources used in this example
* @param hadc: ADC handle pointer
* @retval None
*/
void HAL_ADC_MspInit(ADC_HandleTypeDef* hadc)
{
 8001260:	b580      	push	{r7, lr}
 8001262:	b08a      	sub	sp, #40	@ 0x28
 8001264:	af00      	add	r7, sp, #0
 8001266:	6078      	str	r0, [r7, #4]
  GPIO_InitTypeDef GPIO_InitStruct = {0};
 8001268:	f107 0314 	add.w	r3, r7, #20
 800126c:	2200      	movs	r2, #0
 800126e:	601a      	str	r2, [r3, #0]
 8001270:	605a      	str	r2, [r3, #4]
 8001272:	609a      	str	r2, [r3, #8]
 8001274:	60da      	str	r2, [r3, #12]
 8001276:	611a      	str	r2, [r3, #16]
  if(hadc->Instance==ADC3)
 8001278:	687b      	ldr	r3, [r7, #4]
 800127a:	681b      	ldr	r3, [r3, #0]
 800127c:	4a21      	ldr	r2, [pc, #132]	@ (8001304 <HAL_ADC_MspInit+0xa4>)
 800127e:	4293      	cmp	r3, r2
 8001280:	d13c      	bne.n	80012fc <HAL_ADC_MspInit+0x9c>
  {
  /* USER CODE BEGIN ADC3_MspInit 0 */

  /* USER CODE END ADC3_MspInit 0 */
    /* Peripheral clock enable */
    __HAL_RCC_ADC3_CLK_ENABLE();
 8001282:	4b21      	ldr	r3, [pc, #132]	@ (8001308 <HAL_ADC_MspInit+0xa8>)
 8001284:	6c5b      	ldr	r3, [r3, #68]	@ 0x44
 8001286:	4a20      	ldr	r2, [pc, #128]	@ (8001308 <HAL_ADC_MspInit+0xa8>)
 8001288:	f443 6380 	orr.w	r3, r3, #1024	@ 0x400
 800128c:	6453      	str	r3, [r2, #68]	@ 0x44
 800128e:	4b1e      	ldr	r3, [pc, #120]	@ (8001308 <HAL_ADC_MspInit+0xa8>)
 8001290:	6c5b      	ldr	r3, [r3, #68]	@ 0x44
 8001292:	f403 6380 	and.w	r3, r3, #1024	@ 0x400
 8001296:	613b      	str	r3, [r7, #16]
 8001298:	693b      	ldr	r3, [r7, #16]

    __HAL_RCC_GPIOF_CLK_ENABLE();
 800129a:	4b1b      	ldr	r3, [pc, #108]	@ (8001308 <HAL_ADC_MspInit+0xa8>)
 800129c:	6b1b      	ldr	r3, [r3, #48]	@ 0x30
 800129e:	4a1a      	ldr	r2, [pc, #104]	@ (8001308 <HAL_ADC_MspInit+0xa8>)
 80012a0:	f043 0320 	orr.w	r3, r3, #32
 80012a4:	6313      	str	r3, [r2, #48]	@ 0x30
 80012a6:	4b18      	ldr	r3, [pc, #96]	@ (8001308 <HAL_ADC_MspInit+0xa8>)
 80012a8:	6b1b      	ldr	r3, [r3, #48]	@ 0x30
 80012aa:	f003 0320 	and.w	r3, r3, #32
 80012ae:	60fb      	str	r3, [r7, #12]
 80012b0:	68fb      	ldr	r3, [r7, #12]
    __HAL_RCC_GPIOA_CLK_ENABLE();
 80012b2:	4b15      	ldr	r3, [pc, #84]	@ (8001308 <HAL_ADC_MspInit+0xa8>)
 80012b4:	6b1b      	ldr	r3, [r3, #48]	@ 0x30
 80012b6:	4a14      	ldr	r2, [pc, #80]	@ (8001308 <HAL_ADC_MspInit+0xa8>)
 80012b8:	f043 0301 	orr.w	r3, r3, #1
 80012bc:	6313      	str	r3, [r2, #48]	@ 0x30
 80012be:	4b12      	ldr	r3, [pc, #72]	@ (8001308 <HAL_ADC_MspInit+0xa8>)
 80012c0:	6b1b      	ldr	r3, [r3, #48]	@ 0x30
 80012c2:	f003 0301 	and.w	r3, r3, #1
 80012c6:	60bb      	str	r3, [r7, #8]
 80012c8:	68bb      	ldr	r3, [r7, #8]
    PF10     ------> ADC3_IN8
    PF9     ------> ADC3_IN7
    PF8     ------> ADC3_IN6
    PA0/WKUP     ------> ADC3_IN0
    */
    GPIO_InitStruct.Pin = ARDUINO_A4_Pin|ARDUINO_A5_Pin|ARDUINO_A1_Pin|ARDUINO_A2_Pin
 80012ca:	f44f 63f8 	mov.w	r3, #1984	@ 0x7c0
 80012ce:	617b      	str	r3, [r7, #20]
                          |ARDUINO_A3_Pin;
    GPIO_InitStruct.Mode = GPIO_MODE_ANALOG;
 80012d0:	2303      	movs	r3, #3
 80012d2:	61bb      	str	r3, [r7, #24]
    GPIO_InitStruct.Pull = GPIO_NOPULL;
 80012d4:	2300      	movs	r3, #0
 80012d6:	61fb      	str	r3, [r7, #28]
    HAL_GPIO_Init(GPIOF, &GPIO_InitStruct);
 80012d8:	f107 0314 	add.w	r3, r7, #20
 80012dc:	4619      	mov	r1, r3
 80012de:	480b      	ldr	r0, [pc, #44]	@ (800130c <HAL_ADC_MspInit+0xac>)
 80012e0:	f000 fec6 	bl	8002070 <HAL_GPIO_Init>

    GPIO_InitStruct.Pin = ADC_MQ_in_Pin;
 80012e4:	2301      	movs	r3, #1
 80012e6:	617b      	str	r3, [r7, #20]
    GPIO_InitStruct.Mode = GPIO_MODE_ANALOG;
 80012e8:	2303      	movs	r3, #3
 80012ea:	61bb      	str	r3, [r7, #24]
    GPIO_InitStruct.Pull = GPIO_NOPULL;
 80012ec:	2300      	movs	r3, #0
 80012ee:	61fb      	str	r3, [r7, #28]
    HAL_GPIO_Init(ADC_MQ_in_GPIO_Port, &GPIO_InitStruct);
 80012f0:	f107 0314 	add.w	r3, r7, #20
 80012f4:	4619      	mov	r1, r3
 80012f6:	4806      	ldr	r0, [pc, #24]	@ (8001310 <HAL_ADC_MspInit+0xb0>)
 80012f8:	f000 feba 	bl	8002070 <HAL_GPIO_Init>
  /* USER CODE BEGIN ADC3_MspInit 1 */

  /* USER CODE END ADC3_MspInit 1 */
  }

}
 80012fc:	bf00      	nop
 80012fe:	3728      	adds	r7, #40	@ 0x28
 8001300:	46bd      	mov	sp, r7
 8001302:	bd80      	pop	{r7, pc}
 8001304:	40012200 	.word	0x40012200
 8001308:	40023800 	.word	0x40023800
 800130c:	40021400 	.word	0x40021400
 8001310:	40020000 	.word	0x40020000

08001314 <HAL_CRC_MspInit>:
* This function configures the hardware resources used in this example
* @param hcrc: CRC handle pointer
* @retval None
*/
void HAL_CRC_MspInit(CRC_HandleTypeDef* hcrc)
{
 8001314:	b480      	push	{r7}
 8001316:	b085      	sub	sp, #20
 8001318:	af00      	add	r7, sp, #0
 800131a:	6078      	str	r0, [r7, #4]
  if(hcrc->Instance==CRC)
 800131c:	687b      	ldr	r3, [r7, #4]
 800131e:	681b      	ldr	r3, [r3, #0]
 8001320:	4a0a      	ldr	r2, [pc, #40]	@ (800134c <HAL_CRC_MspInit+0x38>)
 8001322:	4293      	cmp	r3, r2
 8001324:	d10b      	bne.n	800133e <HAL_CRC_MspInit+0x2a>
  {
  /* USER CODE BEGIN CRC_MspInit 0 */

  /* USER CODE END CRC_MspInit 0 */
    /* Peripheral clock enable */
    __HAL_RCC_CRC_CLK_ENABLE();
 8001326:	4b0a      	ldr	r3, [pc, #40]	@ (8001350 <HAL_CRC_MspInit+0x3c>)
 8001328:	6b1b      	ldr	r3, [r3, #48]	@ 0x30
 800132a:	4a09      	ldr	r2, [pc, #36]	@ (8001350 <HAL_CRC_MspInit+0x3c>)
 800132c:	f443 5380 	orr.w	r3, r3, #4096	@ 0x1000
 8001330:	6313      	str	r3, [r2, #48]	@ 0x30
 8001332:	4b07      	ldr	r3, [pc, #28]	@ (8001350 <HAL_CRC_MspInit+0x3c>)
 8001334:	6b1b      	ldr	r3, [r3, #48]	@ 0x30
 8001336:	f403 5380 	and.w	r3, r3, #4096	@ 0x1000
 800133a:	60fb      	str	r3, [r7, #12]
 800133c:	68fb      	ldr	r3, [r7, #12]
  /* USER CODE BEGIN CRC_MspInit 1 */

  /* USER CODE END CRC_MspInit 1 */
  }

}
 800133e:	bf00      	nop
 8001340:	3714      	adds	r7, #20
 8001342:	46bd      	mov	sp, r7
 8001344:	f85d 7b04 	ldr.w	r7, [sp], #4
 8001348:	4770      	bx	lr
 800134a:	bf00      	nop
 800134c:	40023000 	.word	0x40023000
 8001350:	40023800 	.word	0x40023800

08001354 <HAL_UART_MspInit>:
* This function configures the hardware resources used in this example
* @param huart: UART handle pointer
* @retval None
*/
void HAL_UART_MspInit(UART_HandleTypeDef* huart)
{
 8001354:	b580      	push	{r7, lr}
 8001356:	b0ac      	sub	sp, #176	@ 0xb0
 8001358:	af00      	add	r7, sp, #0
 800135a:	6078      	str	r0, [r7, #4]
  GPIO_InitTypeDef GPIO_InitStruct = {0};
 800135c:	f107 039c 	add.w	r3, r7, #156	@ 0x9c
 8001360:	2200      	movs	r2, #0
 8001362:	601a      	str	r2, [r3, #0]
 8001364:	605a      	str	r2, [r3, #4]
 8001366:	609a      	str	r2, [r3, #8]
 8001368:	60da      	str	r2, [r3, #12]
 800136a:	611a      	str	r2, [r3, #16]
  RCC_PeriphCLKInitTypeDef PeriphClkInitStruct = {0};
 800136c:	f107 0318 	add.w	r3, r7, #24
 8001370:	2284      	movs	r2, #132	@ 0x84
 8001372:	2100      	movs	r1, #0
 8001374:	4618      	mov	r0, r3
 8001376:	f006 fd59 	bl	8007e2c <memset>
  if(huart->Instance==USART1)
 800137a:	687b      	ldr	r3, [r7, #4]
 800137c:	681b      	ldr	r3, [r3, #0]
 800137e:	4a36      	ldr	r2, [pc, #216]	@ (8001458 <HAL_UART_MspInit+0x104>)
 8001380:	4293      	cmp	r3, r2
 8001382:	d164      	bne.n	800144e <HAL_UART_MspInit+0xfa>

  /* USER CODE END USART1_MspInit 0 */

  /** Initializes the peripherals clock
  */
    PeriphClkInitStruct.PeriphClockSelection = RCC_PERIPHCLK_USART1;
 8001384:	2340      	movs	r3, #64	@ 0x40
 8001386:	61bb      	str	r3, [r7, #24]
    PeriphClkInitStruct.Usart1ClockSelection = RCC_USART1CLKSOURCE_PCLK2;
 8001388:	2300      	movs	r3, #0
 800138a:	65fb      	str	r3, [r7, #92]	@ 0x5c
    if (HAL_RCCEx_PeriphCLKConfig(&PeriphClkInitStruct) != HAL_OK)
 800138c:	f107 0318 	add.w	r3, r7, #24
 8001390:	4618      	mov	r0, r3
 8001392:	f001 fd4f 	bl	8002e34 <HAL_RCCEx_PeriphCLKConfig>
 8001396:	4603      	mov	r3, r0
 8001398:	2b00      	cmp	r3, #0
 800139a:	d001      	beq.n	80013a0 <HAL_UART_MspInit+0x4c>
    {
      Error_Handler();
 800139c:	f7ff ff32 	bl	8001204 <Error_Handler>
    }

    /* Peripheral clock enable */
    __HAL_RCC_USART1_CLK_ENABLE();
 80013a0:	4b2e      	ldr	r3, [pc, #184]	@ (800145c <HAL_UART_MspInit+0x108>)
 80013a2:	6c5b      	ldr	r3, [r3, #68]	@ 0x44
 80013a4:	4a2d      	ldr	r2, [pc, #180]	@ (800145c <HAL_UART_MspInit+0x108>)
 80013a6:	f043 0310 	orr.w	r3, r3, #16
 80013aa:	6453      	str	r3, [r2, #68]	@ 0x44
 80013ac:	4b2b      	ldr	r3, [pc, #172]	@ (800145c <HAL_UART_MspInit+0x108>)
 80013ae:	6c5b      	ldr	r3, [r3, #68]	@ 0x44
 80013b0:	f003 0310 	and.w	r3, r3, #16
 80013b4:	617b      	str	r3, [r7, #20]
 80013b6:	697b      	ldr	r3, [r7, #20]

    __HAL_RCC_GPIOB_CLK_ENABLE();
 80013b8:	4b28      	ldr	r3, [pc, #160]	@ (800145c <HAL_UART_MspInit+0x108>)
 80013ba:	6b1b      	ldr	r3, [r3, #48]	@ 0x30
 80013bc:	4a27      	ldr	r2, [pc, #156]	@ (800145c <HAL_UART_MspInit+0x108>)
 80013be:	f043 0302 	orr.w	r3, r3, #2
 80013c2:	6313      	str	r3, [r2, #48]	@ 0x30
 80013c4:	4b25      	ldr	r3, [pc, #148]	@ (800145c <HAL_UART_MspInit+0x108>)
 80013c6:	6b1b      	ldr	r3, [r3, #48]	@ 0x30
 80013c8:	f003 0302 	and.w	r3, r3, #2
 80013cc:	613b      	str	r3, [r7, #16]
 80013ce:	693b      	ldr	r3, [r7, #16]
    __HAL_RCC_GPIOA_CLK_ENABLE();
 80013d0:	4b22      	ldr	r3, [pc, #136]	@ (800145c <HAL_UART_MspInit+0x108>)
 80013d2:	6b1b      	ldr	r3, [r3, #48]	@ 0x30
 80013d4:	4a21      	ldr	r2, [pc, #132]	@ (800145c <HAL_UART_MspInit+0x108>)
 80013d6:	f043 0301 	orr.w	r3, r3, #1
 80013da:	6313      	str	r3, [r2, #48]	@ 0x30
 80013dc:	4b1f      	ldr	r3, [pc, #124]	@ (800145c <HAL_UART_MspInit+0x108>)
 80013de:	6b1b      	ldr	r3, [r3, #48]	@ 0x30
 80013e0:	f003 0301 	and.w	r3, r3, #1
 80013e4:	60fb      	str	r3, [r7, #12]
 80013e6:	68fb      	ldr	r3, [r7, #12]
    /**USART1 GPIO Configuration
    PB7     ------> USART1_RX
    PA9     ------> USART1_TX
    */
    GPIO_InitStruct.Pin = VCP_RX_Pin;
 80013e8:	2380      	movs	r3, #128	@ 0x80
 80013ea:	f8c7 309c 	str.w	r3, [r7, #156]	@ 0x9c
    GPIO_InitStruct.Mode = GPIO_MODE_AF_PP;
 80013ee:	2302      	movs	r3, #2
 80013f0:	f8c7 30a0 	str.w	r3, [r7, #160]	@ 0xa0
    GPIO_InitStruct.Pull = GPIO_NOPULL;
 80013f4:	2300      	movs	r3, #0
 80013f6:	f8c7 30a4 	str.w	r3, [r7, #164]	@ 0xa4
    GPIO_InitStruct.Speed = GPIO_SPEED_FREQ_LOW;
 80013fa:	2300      	movs	r3, #0
 80013fc:	f8c7 30a8 	str.w	r3, [r7, #168]	@ 0xa8
    GPIO_InitStruct.Alternate = GPIO_AF7_USART1;
 8001400:	2307      	movs	r3, #7
 8001402:	f8c7 30ac 	str.w	r3, [r7, #172]	@ 0xac
    HAL_GPIO_Init(VCP_RX_GPIO_Port, &GPIO_InitStruct);
 8001406:	f107 039c 	add.w	r3, r7, #156	@ 0x9c
 800140a:	4619      	mov	r1, r3
 800140c:	4814      	ldr	r0, [pc, #80]	@ (8001460 <HAL_UART_MspInit+0x10c>)
 800140e:	f000 fe2f 	bl	8002070 <HAL_GPIO_Init>

    GPIO_InitStruct.Pin = VCP_TX_Pin;
 8001412:	f44f 7300 	mov.w	r3, #512	@ 0x200
 8001416:	f8c7 309c 	str.w	r3, [r7, #156]	@ 0x9c
    GPIO_InitStruct.Mode = GPIO_MODE_AF_PP;
 800141a:	2302      	movs	r3, #2
 800141c:	f8c7 30a0 	str.w	r3, [r7, #160]	@ 0xa0
    GPIO_InitStruct.Pull = GPIO_NOPULL;
 8001420:	2300      	movs	r3, #0
 8001422:	f8c7 30a4 	str.w	r3, [r7, #164]	@ 0xa4
    GPIO_InitStruct.Speed = GPIO_SPEED_FREQ_LOW;
 8001426:	2300      	movs	r3, #0
 8001428:	f8c7 30a8 	str.w	r3, [r7, #168]	@ 0xa8
    GPIO_InitStruct.Alternate = GPIO_AF7_USART1;
 800142c:	2307      	movs	r3, #7
 800142e:	f8c7 30ac 	str.w	r3, [r7, #172]	@ 0xac
    HAL_GPIO_Init(VCP_TX_GPIO_Port, &GPIO_InitStruct);
 8001432:	f107 039c 	add.w	r3, r7, #156	@ 0x9c
 8001436:	4619      	mov	r1, r3
 8001438:	480a      	ldr	r0, [pc, #40]	@ (8001464 <HAL_UART_MspInit+0x110>)
 800143a:	f000 fe19 	bl	8002070 <HAL_GPIO_Init>

    /* USART1 interrupt Init */
    HAL_NVIC_SetPriority(USART1_IRQn, 5, 0);
 800143e:	2200      	movs	r2, #0
 8001440:	2105      	movs	r1, #5
 8001442:	2025      	movs	r0, #37	@ 0x25
 8001444:	f000 fc6e 	bl	8001d24 <HAL_NVIC_SetPriority>
    HAL_NVIC_EnableIRQ(USART1_IRQn);
 8001448:	2025      	movs	r0, #37	@ 0x25
 800144a:	f000 fc87 	bl	8001d5c <HAL_NVIC_EnableIRQ>
  /* USER CODE BEGIN USART1_MspInit 1 */

  /* USER CODE END USART1_MspInit 1 */
  }

}
 800144e:	bf00      	nop
 8001450:	37b0      	adds	r7, #176	@ 0xb0
 8001452:	46bd      	mov	sp, r7
 8001454:	bd80      	pop	{r7, pc}
 8001456:	bf00      	nop
 8001458:	40011000 	.word	0x40011000
 800145c:	40023800 	.word	0x40023800
 8001460:	40020400 	.word	0x40020400
 8001464:	40020000 	.word	0x40020000

08001468 <HAL_InitTick>:
  *         reset by HAL_Init() or at any time when clock is configured, by HAL_RCC_ClockConfig().
  * @param  TickPriority: Tick interrupt priority.
  * @retval HAL status
  */
HAL_StatusTypeDef HAL_InitTick(uint32_t TickPriority)
{
 8001468:	b580      	push	{r7, lr}
 800146a:	b08e      	sub	sp, #56	@ 0x38
 800146c:	af00      	add	r7, sp, #0
 800146e:	6078      	str	r0, [r7, #4]
  RCC_ClkInitTypeDef    clkconfig;
  uint32_t              uwTimclock, uwAPB1Prescaler = 0U;
 8001470:	2300      	movs	r3, #0
 8001472:	62fb      	str	r3, [r7, #44]	@ 0x2c

  uint32_t              uwPrescalerValue = 0U;
 8001474:	2300      	movs	r3, #0
 8001476:	62bb      	str	r3, [r7, #40]	@ 0x28
  uint32_t              pFLatency;
  HAL_StatusTypeDef     status;

  /* Enable TIM14 clock */
  __HAL_RCC_TIM14_CLK_ENABLE();
 8001478:	4b33      	ldr	r3, [pc, #204]	@ (8001548 <HAL_InitTick+0xe0>)
 800147a:	6c1b      	ldr	r3, [r3, #64]	@ 0x40
 800147c:	4a32      	ldr	r2, [pc, #200]	@ (8001548 <HAL_InitTick+0xe0>)
 800147e:	f443 7380 	orr.w	r3, r3, #256	@ 0x100
 8001482:	6413      	str	r3, [r2, #64]	@ 0x40
 8001484:	4b30      	ldr	r3, [pc, #192]	@ (8001548 <HAL_InitTick+0xe0>)
 8001486:	6c1b      	ldr	r3, [r3, #64]	@ 0x40
 8001488:	f403 7380 	and.w	r3, r3, #256	@ 0x100
 800148c:	60fb      	str	r3, [r7, #12]
 800148e:	68fb      	ldr	r3, [r7, #12]

  /* Get clock configuration */
  HAL_RCC_GetClockConfig(&clkconfig, &pFLatency);
 8001490:	f107 0210 	add.w	r2, r7, #16
 8001494:	f107 0314 	add.w	r3, r7, #20
 8001498:	4611      	mov	r1, r2
 800149a:	4618      	mov	r0, r3
 800149c:	f001 fc98 	bl	8002dd0 <HAL_RCC_GetClockConfig>

  /* Get APB1 prescaler */
  uwAPB1Prescaler = clkconfig.APB1CLKDivider;
 80014a0:	6a3b      	ldr	r3, [r7, #32]
 80014a2:	62fb      	str	r3, [r7, #44]	@ 0x2c
  /* Compute TIM14 clock */
  if (uwAPB1Prescaler == RCC_HCLK_DIV1)
 80014a4:	6afb      	ldr	r3, [r7, #44]	@ 0x2c
 80014a6:	2b00      	cmp	r3, #0
 80014a8:	d103      	bne.n	80014b2 <HAL_InitTick+0x4a>
  {
    uwTimclock = HAL_RCC_GetPCLK1Freq();
 80014aa:	f001 fc69 	bl	8002d80 <HAL_RCC_GetPCLK1Freq>
 80014ae:	6378      	str	r0, [r7, #52]	@ 0x34
 80014b0:	e004      	b.n	80014bc <HAL_InitTick+0x54>
  }
  else
  {
    uwTimclock = 2UL * HAL_RCC_GetPCLK1Freq();
 80014b2:	f001 fc65 	bl	8002d80 <HAL_RCC_GetPCLK1Freq>
 80014b6:	4603      	mov	r3, r0
 80014b8:	005b      	lsls	r3, r3, #1
 80014ba:	637b      	str	r3, [r7, #52]	@ 0x34
  }

  /* Compute the prescaler value to have TIM14 counter clock equal to 1MHz */
  uwPrescalerValue = (uint32_t) ((uwTimclock / 1000000U) - 1U);
 80014bc:	6b7b      	ldr	r3, [r7, #52]	@ 0x34
 80014be:	4a23      	ldr	r2, [pc, #140]	@ (800154c <HAL_InitTick+0xe4>)
 80014c0:	fba2 2303 	umull	r2, r3, r2, r3
 80014c4:	0c9b      	lsrs	r3, r3, #18
 80014c6:	3b01      	subs	r3, #1
 80014c8:	62bb      	str	r3, [r7, #40]	@ 0x28

  /* Initialize TIM14 */
  htim14.Instance = TIM14;
 80014ca:	4b21      	ldr	r3, [pc, #132]	@ (8001550 <HAL_InitTick+0xe8>)
 80014cc:	4a21      	ldr	r2, [pc, #132]	@ (8001554 <HAL_InitTick+0xec>)
 80014ce:	601a      	str	r2, [r3, #0]
  + Period = [(TIM14CLK/1000) - 1]. to have a (1/1000) s time base.
  + Prescaler = (uwTimclock/1000000 - 1) to have a 1MHz counter clock.
  + ClockDivision = 0
  + Counter direction = Up
  */
  htim14.Init.Period = (1000000U / 1000U) - 1U;
 80014d0:	4b1f      	ldr	r3, [pc, #124]	@ (8001550 <HAL_InitTick+0xe8>)
 80014d2:	f240 32e7 	movw	r2, #999	@ 0x3e7
 80014d6:	60da      	str	r2, [r3, #12]
  htim14.Init.Prescaler = uwPrescalerValue;
 80014d8:	4a1d      	ldr	r2, [pc, #116]	@ (8001550 <HAL_InitTick+0xe8>)
 80014da:	6abb      	ldr	r3, [r7, #40]	@ 0x28
 80014dc:	6053      	str	r3, [r2, #4]
  htim14.Init.ClockDivision = 0;
 80014de:	4b1c      	ldr	r3, [pc, #112]	@ (8001550 <HAL_InitTick+0xe8>)
 80014e0:	2200      	movs	r2, #0
 80014e2:	611a      	str	r2, [r3, #16]
  htim14.Init.CounterMode = TIM_COUNTERMODE_UP;
 80014e4:	4b1a      	ldr	r3, [pc, #104]	@ (8001550 <HAL_InitTick+0xe8>)
 80014e6:	2200      	movs	r2, #0
 80014e8:	609a      	str	r2, [r3, #8]
  htim14.Init.AutoReloadPreload = TIM_AUTORELOAD_PRELOAD_DISABLE;
 80014ea:	4b19      	ldr	r3, [pc, #100]	@ (8001550 <HAL_InitTick+0xe8>)
 80014ec:	2200      	movs	r2, #0
 80014ee:	619a      	str	r2, [r3, #24]

  status = HAL_TIM_Base_Init(&htim14);
 80014f0:	4817      	ldr	r0, [pc, #92]	@ (8001550 <HAL_InitTick+0xe8>)
 80014f2:	f002 f88f 	bl	8003614 <HAL_TIM_Base_Init>
 80014f6:	4603      	mov	r3, r0
 80014f8:	f887 3033 	strb.w	r3, [r7, #51]	@ 0x33
  if (status == HAL_OK)
 80014fc:	f897 3033 	ldrb.w	r3, [r7, #51]	@ 0x33
 8001500:	2b00      	cmp	r3, #0
 8001502:	d11b      	bne.n	800153c <HAL_InitTick+0xd4>
  {
    /* Start the TIM time Base generation in interrupt mode */
    status = HAL_TIM_Base_Start_IT(&htim14);
 8001504:	4812      	ldr	r0, [pc, #72]	@ (8001550 <HAL_InitTick+0xe8>)
 8001506:	f002 f8e7 	bl	80036d8 <HAL_TIM_Base_Start_IT>
 800150a:	4603      	mov	r3, r0
 800150c:	f887 3033 	strb.w	r3, [r7, #51]	@ 0x33
    if (status == HAL_OK)
 8001510:	f897 3033 	ldrb.w	r3, [r7, #51]	@ 0x33
 8001514:	2b00      	cmp	r3, #0
 8001516:	d111      	bne.n	800153c <HAL_InitTick+0xd4>
    {
    /* Enable the TIM14 global Interrupt */
        HAL_NVIC_EnableIRQ(TIM8_TRG_COM_TIM14_IRQn);
 8001518:	202d      	movs	r0, #45	@ 0x2d
 800151a:	f000 fc1f 	bl	8001d5c <HAL_NVIC_EnableIRQ>
      /* Configure the SysTick IRQ priority */
      if (TickPriority < (1UL << __NVIC_PRIO_BITS))
 800151e:	687b      	ldr	r3, [r7, #4]
 8001520:	2b0f      	cmp	r3, #15
 8001522:	d808      	bhi.n	8001536 <HAL_InitTick+0xce>
      {
        /* Configure the TIM IRQ priority */
        HAL_NVIC_SetPriority(TIM8_TRG_COM_TIM14_IRQn, TickPriority, 0U);
 8001524:	2200      	movs	r2, #0
 8001526:	6879      	ldr	r1, [r7, #4]
 8001528:	202d      	movs	r0, #45	@ 0x2d
 800152a:	f000 fbfb 	bl	8001d24 <HAL_NVIC_SetPriority>
        uwTickPrio = TickPriority;
 800152e:	4a0a      	ldr	r2, [pc, #40]	@ (8001558 <HAL_InitTick+0xf0>)
 8001530:	687b      	ldr	r3, [r7, #4]
 8001532:	6013      	str	r3, [r2, #0]
 8001534:	e002      	b.n	800153c <HAL_InitTick+0xd4>
      }
      else
      {
        status = HAL_ERROR;
 8001536:	2301      	movs	r3, #1
 8001538:	f887 3033 	strb.w	r3, [r7, #51]	@ 0x33
      }
    }
  }

 /* Return function status */
  return status;
 800153c:	f897 3033 	ldrb.w	r3, [r7, #51]	@ 0x33
}
 8001540:	4618      	mov	r0, r3
 8001542:	3738      	adds	r7, #56	@ 0x38
 8001544:	46bd      	mov	sp, r7
 8001546:	bd80      	pop	{r7, pc}
 8001548:	40023800 	.word	0x40023800
 800154c:	431bde83 	.word	0x431bde83
 8001550:	20000194 	.word	0x20000194
 8001554:	40002000 	.word	0x40002000
 8001558:	20000004 	.word	0x20000004

0800155c <NMI_Handler>:
/******************************************************************************/
/**
  * @brief This function handles Non maskable interrupt.
  */
void NMI_Handler(void)
{
 800155c:	b480      	push	{r7}
 800155e:	af00      	add	r7, sp, #0
  /* USER CODE BEGIN NonMaskableInt_IRQn 0 */

  /* USER CODE END NonMaskableInt_IRQn 0 */
  /* USER CODE BEGIN NonMaskableInt_IRQn 1 */
   while (1)
 8001560:	bf00      	nop
 8001562:	e7fd      	b.n	8001560 <NMI_Handler+0x4>

08001564 <HardFault_Handler>:

/**
  * @brief This function handles Hard fault interrupt.
  */
void HardFault_Handler(void)
{
 8001564:	b480      	push	{r7}
 8001566:	af00      	add	r7, sp, #0
  /* USER CODE BEGIN HardFault_IRQn 0 */

  /* USER CODE END HardFault_IRQn 0 */
  while (1)
 8001568:	bf00      	nop
 800156a:	e7fd      	b.n	8001568 <HardFault_Handler+0x4>

0800156c <MemManage_Handler>:

/**
  * @brief This function handles Memory management fault.
  */
void MemManage_Handler(void)
{
 800156c:	b480      	push	{r7}
 800156e:	af00      	add	r7, sp, #0
  /* USER CODE BEGIN MemoryManagement_IRQn 0 */

  /* USER CODE END MemoryManagement_IRQn 0 */
  while (1)
 8001570:	bf00      	nop
 8001572:	e7fd      	b.n	8001570 <MemManage_Handler+0x4>

08001574 <BusFault_Handler>:

/**
  * @brief This function handles Pre-fetch fault, memory access fault.
  */
void BusFault_Handler(void)
{
 8001574:	b480      	push	{r7}
 8001576:	af00      	add	r7, sp, #0
  /* USER CODE BEGIN BusFault_IRQn 0 */

  /* USER CODE END BusFault_IRQn 0 */
  while (1)
 8001578:	bf00      	nop
 800157a:	e7fd      	b.n	8001578 <BusFault_Handler+0x4>

0800157c <UsageFault_Handler>:

/**
  * @brief This function handles Undefined instruction or illegal state.
  */
void UsageFault_Handler(void)
{
 800157c:	b480      	push	{r7}
 800157e:	af00      	add	r7, sp, #0
  /* USER CODE BEGIN UsageFault_IRQn 0 */

  /* USER CODE END UsageFault_IRQn 0 */
  while (1)
 8001580:	bf00      	nop
 8001582:	e7fd      	b.n	8001580 <UsageFault_Handler+0x4>

08001584 <DebugMon_Handler>:

/**
  * @brief This function handles Debug monitor.
  */
void DebugMon_Handler(void)
{
 8001584:	b480      	push	{r7}
 8001586:	af00      	add	r7, sp, #0

  /* USER CODE END DebugMonitor_IRQn 0 */
  /* USER CODE BEGIN DebugMonitor_IRQn 1 */

  /* USER CODE END DebugMonitor_IRQn 1 */
}
 8001588:	bf00      	nop
 800158a:	46bd      	mov	sp, r7
 800158c:	f85d 7b04 	ldr.w	r7, [sp], #4
 8001590:	4770      	bx	lr
	...

08001594 <USART1_IRQHandler>:

/**
  * @brief This function handles USART1 global interrupt.
  */
void USART1_IRQHandler(void)
{
 8001594:	b580      	push	{r7, lr}
 8001596:	af00      	add	r7, sp, #0
  /* USER CODE BEGIN USART1_IRQn 0 */

  /* USER CODE END USART1_IRQn 0 */
  HAL_UART_IRQHandler(&huart1);
 8001598:	4802      	ldr	r0, [pc, #8]	@ (80015a4 <USART1_IRQHandler+0x10>)
 800159a:	f002 fbed 	bl	8003d78 <HAL_UART_IRQHandler>
  /* USER CODE BEGIN USART1_IRQn 1 */

  /* USER CODE END USART1_IRQn 1 */
}
 800159e:	bf00      	nop
 80015a0:	bd80      	pop	{r7, pc}
 80015a2:	bf00      	nop
 80015a4:	200000e8 	.word	0x200000e8

080015a8 <TIM8_TRG_COM_TIM14_IRQHandler>:

/**
  * @brief This function handles TIM8 trigger and commutation interrupts and TIM14 global interrupt.
  */
void TIM8_TRG_COM_TIM14_IRQHandler(void)
{
 80015a8:	b580      	push	{r7, lr}
 80015aa:	af00      	add	r7, sp, #0
  /* USER CODE BEGIN TIM8_TRG_COM_TIM14_IRQn 0 */

  /* USER CODE END TIM8_TRG_COM_TIM14_IRQn 0 */
  HAL_TIM_IRQHandler(&htim14);
 80015ac:	4802      	ldr	r0, [pc, #8]	@ (80015b8 <TIM8_TRG_COM_TIM14_IRQHandler+0x10>)
 80015ae:	f002 f90b 	bl	80037c8 <HAL_TIM_IRQHandler>
  /* USER CODE BEGIN TIM8_TRG_COM_TIM14_IRQn 1 */

  /* USER CODE END TIM8_TRG_COM_TIM14_IRQn 1 */
}
 80015b2:	bf00      	nop
 80015b4:	bd80      	pop	{r7, pc}
 80015b6:	bf00      	nop
 80015b8:	20000194 	.word	0x20000194

080015bc <SystemInit>:
  *         SystemFrequency variable.
  * @param  None
  * @retval None
  */
void SystemInit(void)
{
 80015bc:	b480      	push	{r7}
 80015be:	af00      	add	r7, sp, #0
  /* FPU settings ------------------------------------------------------------*/
#if (__FPU_PRESENT == 1) && (__FPU_USED == 1)
  SCB->CPACR |= ((3UL << 10*2)|(3UL << 11*2));  /* set CP10 and CP11 Full Access */
 80015c0:	4b06      	ldr	r3, [pc, #24]	@ (80015dc <SystemInit+0x20>)
 80015c2:	f8d3 3088 	ldr.w	r3, [r3, #136]	@ 0x88
 80015c6:	4a05      	ldr	r2, [pc, #20]	@ (80015dc <SystemInit+0x20>)
 80015c8:	f443 0370 	orr.w	r3, r3, #15728640	@ 0xf00000
 80015cc:	f8c2 3088 	str.w	r3, [r2, #136]	@ 0x88

  /* Configure the Vector Table location -------------------------------------*/
#if defined(USER_VECT_TAB_ADDRESS)
  SCB->VTOR = VECT_TAB_BASE_ADDRESS | VECT_TAB_OFFSET; /* Vector Table Relocation in Internal SRAM */
#endif /* USER_VECT_TAB_ADDRESS */
}
 80015d0:	bf00      	nop
 80015d2:	46bd      	mov	sp, r7
 80015d4:	f85d 7b04 	ldr.w	r7, [sp], #4
 80015d8:	4770      	bx	lr
 80015da:	bf00      	nop
 80015dc:	e000ed00 	.word	0xe000ed00

080015e0 <Reset_Handler>:

    .section  .text.Reset_Handler
  .weak  Reset_Handler
  .type  Reset_Handler, %function
Reset_Handler:  
  ldr   sp, =_estack      /* set stack pointer */
 80015e0:	f8df d034 	ldr.w	sp, [pc, #52]	@ 8001618 <LoopFillZerobss+0x12>

/* Copy the data segment initializers from flash to SRAM */  
  ldr r0, =_sdata
 80015e4:	480d      	ldr	r0, [pc, #52]	@ (800161c <LoopFillZerobss+0x16>)
  ldr r1, =_edata
 80015e6:	490e      	ldr	r1, [pc, #56]	@ (8001620 <LoopFillZerobss+0x1a>)
  ldr r2, =_sidata
 80015e8:	4a0e      	ldr	r2, [pc, #56]	@ (8001624 <LoopFillZerobss+0x1e>)
  movs r3, #0
 80015ea:	2300      	movs	r3, #0
  b LoopCopyDataInit
 80015ec:	e002      	b.n	80015f4 <LoopCopyDataInit>

080015ee <CopyDataInit>:

CopyDataInit:
  ldr r4, [r2, r3]
 80015ee:	58d4      	ldr	r4, [r2, r3]
  str r4, [r0, r3]
 80015f0:	50c4      	str	r4, [r0, r3]
  adds r3, r3, #4
 80015f2:	3304      	adds	r3, #4

080015f4 <LoopCopyDataInit>:

LoopCopyDataInit:
  adds r4, r0, r3
 80015f4:	18c4      	adds	r4, r0, r3
  cmp r4, r1
 80015f6:	428c      	cmp	r4, r1
  bcc CopyDataInit
 80015f8:	d3f9      	bcc.n	80015ee <CopyDataInit>
  
/* Zero fill the bss segment. */
  ldr r2, =_sbss
 80015fa:	4a0b      	ldr	r2, [pc, #44]	@ (8001628 <LoopFillZerobss+0x22>)
  ldr r4, =_ebss
 80015fc:	4c0b      	ldr	r4, [pc, #44]	@ (800162c <LoopFillZerobss+0x26>)
  movs r3, #0
 80015fe:	2300      	movs	r3, #0
  b LoopFillZerobss
 8001600:	e001      	b.n	8001606 <LoopFillZerobss>

08001602 <FillZerobss>:

FillZerobss:
  str  r3, [r2]
 8001602:	6013      	str	r3, [r2, #0]
  adds r2, r2, #4
 8001604:	3204      	adds	r2, #4

08001606 <LoopFillZerobss>:

LoopFillZerobss:
  cmp r2, r4
 8001606:	42a2      	cmp	r2, r4
  bcc FillZerobss
 8001608:	d3fb      	bcc.n	8001602 <FillZerobss>

/* Call the clock system intitialization function.*/
  bl  SystemInit   
 800160a:	f7ff ffd7 	bl	80015bc <SystemInit>
/* Call static constructors */
    bl __libc_init_array
 800160e:	f006 fc6b 	bl	8007ee8 <__libc_init_array>
/* Call the application's entry point.*/
  bl  main
 8001612:	f7fe ffab 	bl	800056c <main>
  bx  lr    
 8001616:	4770      	bx	lr
  ldr   sp, =_estack      /* set stack pointer */
 8001618:	20050000 	.word	0x20050000
  ldr r0, =_sdata
 800161c:	20000000 	.word	0x20000000
  ldr r1, =_edata
 8001620:	20000060 	.word	0x20000060
  ldr r2, =_sidata
 8001624:	080081ac 	.word	0x080081ac
  ldr r2, =_sbss
 8001628:	20000060 	.word	0x20000060
  ldr r4, =_ebss
 800162c:	20004d04 	.word	0x20004d04

08001630 <ADC_IRQHandler>:
 * @retval None       
*/
    .section  .text.Default_Handler,"ax",%progbits
Default_Handler:
Infinite_Loop:
  b  Infinite_Loop
 8001630:	e7fe      	b.n	8001630 <ADC_IRQHandler>

08001632 <HAL_Init>:
  *         need to ensure that the SysTick time base is always set to 1 millisecond
  *         to have correct HAL operation.
  * @retval HAL status
  */
HAL_StatusTypeDef HAL_Init(void)
{
 8001632:	b580      	push	{r7, lr}
 8001634:	af00      	add	r7, sp, #0
#if (PREFETCH_ENABLE != 0U)
  __HAL_FLASH_PREFETCH_BUFFER_ENABLE();
#endif /* PREFETCH_ENABLE */

  /* Set Interrupt Group Priority */
  HAL_NVIC_SetPriorityGrouping(NVIC_PRIORITYGROUP_4);
 8001636:	2003      	movs	r0, #3
 8001638:	f000 fb69 	bl	8001d0e <HAL_NVIC_SetPriorityGrouping>

  /* Use systick as time base source and configure 1ms tick (default clock after Reset is HSI) */
  HAL_InitTick(TICK_INT_PRIORITY);
 800163c:	200f      	movs	r0, #15
 800163e:	f7ff ff13 	bl	8001468 <HAL_InitTick>

  /* Init the low level hardware */
  HAL_MspInit();
 8001642:	f7ff fde5 	bl	8001210 <HAL_MspInit>

  /* Return function status */
  return HAL_OK;
 8001646:	2300      	movs	r3, #0
}
 8001648:	4618      	mov	r0, r3
 800164a:	bd80      	pop	{r7, pc}

0800164c <HAL_IncTick>:
 * @note This function is declared as __weak to be overwritten in case of other 
  *      implementations in user file.
  * @retval None
  */
__weak void HAL_IncTick(void)
{
 800164c:	b480      	push	{r7}
 800164e:	af00      	add	r7, sp, #0
  uwTick += uwTickFreq;
 8001650:	4b06      	ldr	r3, [pc, #24]	@ (800166c <HAL_IncTick+0x20>)
 8001652:	781b      	ldrb	r3, [r3, #0]
 8001654:	461a      	mov	r2, r3
 8001656:	4b06      	ldr	r3, [pc, #24]	@ (8001670 <HAL_IncTick+0x24>)
 8001658:	681b      	ldr	r3, [r3, #0]
 800165a:	4413      	add	r3, r2
 800165c:	4a04      	ldr	r2, [pc, #16]	@ (8001670 <HAL_IncTick+0x24>)
 800165e:	6013      	str	r3, [r2, #0]
}
 8001660:	bf00      	nop
 8001662:	46bd      	mov	sp, r7
 8001664:	f85d 7b04 	ldr.w	r7, [sp], #4
 8001668:	4770      	bx	lr
 800166a:	bf00      	nop
 800166c:	20000008 	.word	0x20000008
 8001670:	200001e0 	.word	0x200001e0

08001674 <HAL_GetTick>:
  * @note This function is declared as __weak to be overwritten in case of other 
  *       implementations in user file.
  * @retval tick value
  */
__weak uint32_t HAL_GetTick(void)
{
 8001674:	b480      	push	{r7}
 8001676:	af00      	add	r7, sp, #0
  return uwTick;
 8001678:	4b03      	ldr	r3, [pc, #12]	@ (8001688 <HAL_GetTick+0x14>)
 800167a:	681b      	ldr	r3, [r3, #0]
}
 800167c:	4618      	mov	r0, r3
 800167e:	46bd      	mov	sp, r7
 8001680:	f85d 7b04 	ldr.w	r7, [sp], #4
 8001684:	4770      	bx	lr
 8001686:	bf00      	nop
 8001688:	200001e0 	.word	0x200001e0

0800168c <HAL_ADC_Init>:
  * @param  hadc pointer to a ADC_HandleTypeDef structure that contains
  *         the configuration information for the specified ADC.  
  * @retval HAL status
  */
HAL_StatusTypeDef HAL_ADC_Init(ADC_HandleTypeDef* hadc)
{
 800168c:	b580      	push	{r7, lr}
 800168e:	b084      	sub	sp, #16
 8001690:	af00      	add	r7, sp, #0
 8001692:	6078      	str	r0, [r7, #4]
  HAL_StatusTypeDef tmp_hal_status = HAL_OK;
 8001694:	2300      	movs	r3, #0
 8001696:	73fb      	strb	r3, [r7, #15]
  
  /* Check ADC handle */
  if(hadc == NULL)
 8001698:	687b      	ldr	r3, [r7, #4]
 800169a:	2b00      	cmp	r3, #0
 800169c:	d101      	bne.n	80016a2 <HAL_ADC_Init+0x16>
  {
    return HAL_ERROR;
 800169e:	2301      	movs	r3, #1
 80016a0:	e031      	b.n	8001706 <HAL_ADC_Init+0x7a>
  if(hadc->Init.ExternalTrigConv != ADC_SOFTWARE_START)
  {
    assert_param(IS_ADC_EXT_TRIG_EDGE(hadc->Init.ExternalTrigConvEdge));
  }

  if(hadc->State == HAL_ADC_STATE_RESET)
 80016a2:	687b      	ldr	r3, [r7, #4]
 80016a4:	6c1b      	ldr	r3, [r3, #64]	@ 0x40
 80016a6:	2b00      	cmp	r3, #0
 80016a8:	d109      	bne.n	80016be <HAL_ADC_Init+0x32>

    /* Init the low level hardware */
    hadc->MspInitCallback(hadc);
#else
    /* Init the low level hardware */
    HAL_ADC_MspInit(hadc);
 80016aa:	6878      	ldr	r0, [r7, #4]
 80016ac:	f7ff fdd8 	bl	8001260 <HAL_ADC_MspInit>
#endif /* USE_HAL_ADC_REGISTER_CALLBACKS */

    /* Initialize ADC error code */
    ADC_CLEAR_ERRORCODE(hadc);
 80016b0:	687b      	ldr	r3, [r7, #4]
 80016b2:	2200      	movs	r2, #0
 80016b4:	645a      	str	r2, [r3, #68]	@ 0x44
    
    /* Allocate lock resource and initialize it */
    hadc->Lock = HAL_UNLOCKED;
 80016b6:	687b      	ldr	r3, [r7, #4]
 80016b8:	2200      	movs	r2, #0
 80016ba:	f883 203c 	strb.w	r2, [r3, #60]	@ 0x3c
  }
  
  /* Configuration of ADC parameters if previous preliminary actions are      */ 
  /* correctly completed.                                                     */
  if (HAL_IS_BIT_CLR(hadc->State, HAL_ADC_STATE_ERROR_INTERNAL))
 80016be:	687b      	ldr	r3, [r7, #4]
 80016c0:	6c1b      	ldr	r3, [r3, #64]	@ 0x40
 80016c2:	f003 0310 	and.w	r3, r3, #16
 80016c6:	2b00      	cmp	r3, #0
 80016c8:	d116      	bne.n	80016f8 <HAL_ADC_Init+0x6c>
  {
    /* Set ADC state */
    ADC_STATE_CLR_SET(hadc->State,
 80016ca:	687b      	ldr	r3, [r7, #4]
 80016cc:	6c1a      	ldr	r2, [r3, #64]	@ 0x40
 80016ce:	4b10      	ldr	r3, [pc, #64]	@ (8001710 <HAL_ADC_Init+0x84>)
 80016d0:	4013      	ands	r3, r2
 80016d2:	f043 0202 	orr.w	r2, r3, #2
 80016d6:	687b      	ldr	r3, [r7, #4]
 80016d8:	641a      	str	r2, [r3, #64]	@ 0x40
                      HAL_ADC_STATE_REG_BUSY | HAL_ADC_STATE_INJ_BUSY,
                      HAL_ADC_STATE_BUSY_INTERNAL);
    
    /* Set ADC parameters */
    ADC_Init(hadc);
 80016da:	6878      	ldr	r0, [r7, #4]
 80016dc:	f000 f970 	bl	80019c0 <ADC_Init>
    
    /* Set ADC error code to none */
    ADC_CLEAR_ERRORCODE(hadc);
 80016e0:	687b      	ldr	r3, [r7, #4]
 80016e2:	2200      	movs	r2, #0
 80016e4:	645a      	str	r2, [r3, #68]	@ 0x44
    
    /* Set the ADC state */
    ADC_STATE_CLR_SET(hadc->State,
 80016e6:	687b      	ldr	r3, [r7, #4]
 80016e8:	6c1b      	ldr	r3, [r3, #64]	@ 0x40
 80016ea:	f023 0303 	bic.w	r3, r3, #3
 80016ee:	f043 0201 	orr.w	r2, r3, #1
 80016f2:	687b      	ldr	r3, [r7, #4]
 80016f4:	641a      	str	r2, [r3, #64]	@ 0x40
 80016f6:	e001      	b.n	80016fc <HAL_ADC_Init+0x70>
                      HAL_ADC_STATE_BUSY_INTERNAL,
                      HAL_ADC_STATE_READY);
  }
  else
  {
    tmp_hal_status = HAL_ERROR;
 80016f8:	2301      	movs	r3, #1
 80016fa:	73fb      	strb	r3, [r7, #15]
  }
  
  /* Release Lock */
  __HAL_UNLOCK(hadc);
 80016fc:	687b      	ldr	r3, [r7, #4]
 80016fe:	2200      	movs	r2, #0
 8001700:	f883 203c 	strb.w	r2, [r3, #60]	@ 0x3c

  /* Return function status */
  return tmp_hal_status;
 8001704:	7bfb      	ldrb	r3, [r7, #15]
}
 8001706:	4618      	mov	r0, r3
 8001708:	3710      	adds	r7, #16
 800170a:	46bd      	mov	sp, r7
 800170c:	bd80      	pop	{r7, pc}
 800170e:	bf00      	nop
 8001710:	ffffeefd 	.word	0xffffeefd

08001714 <HAL_ADC_ConfigChannel>:
  *         the configuration information for the specified ADC.
  * @param  sConfig ADC configuration structure. 
  * @retval HAL status
  */
HAL_StatusTypeDef HAL_ADC_ConfigChannel(ADC_HandleTypeDef* hadc, ADC_ChannelConfTypeDef* sConfig)
{
 8001714:	b480      	push	{r7}
 8001716:	b085      	sub	sp, #20
 8001718:	af00      	add	r7, sp, #0
 800171a:	6078      	str	r0, [r7, #4]
 800171c:	6039      	str	r1, [r7, #0]
  __IO uint32_t counter = 0;
 800171e:	2300      	movs	r3, #0
 8001720:	60fb      	str	r3, [r7, #12]
  assert_param(IS_ADC_CHANNEL(sConfig->Channel));
  assert_param(IS_ADC_REGULAR_RANK(sConfig->Rank));
  assert_param(IS_ADC_SAMPLE_TIME(sConfig->SamplingTime));
  
  /* Process locked */
  __HAL_LOCK(hadc);
 8001722:	687b      	ldr	r3, [r7, #4]
 8001724:	f893 303c 	ldrb.w	r3, [r3, #60]	@ 0x3c
 8001728:	2b01      	cmp	r3, #1
 800172a:	d101      	bne.n	8001730 <HAL_ADC_ConfigChannel+0x1c>
 800172c:	2302      	movs	r3, #2
 800172e:	e136      	b.n	800199e <HAL_ADC_ConfigChannel+0x28a>
 8001730:	687b      	ldr	r3, [r7, #4]
 8001732:	2201      	movs	r2, #1
 8001734:	f883 203c 	strb.w	r2, [r3, #60]	@ 0x3c
  
  /* if ADC_Channel_10 ... ADC_Channel_18 is selected */
  if ((sConfig->Channel > ADC_CHANNEL_9) && (sConfig->Channel != ADC_INTERNAL_NONE))
 8001738:	683b      	ldr	r3, [r7, #0]
 800173a:	681b      	ldr	r3, [r3, #0]
 800173c:	2b09      	cmp	r3, #9
 800173e:	d93a      	bls.n	80017b6 <HAL_ADC_ConfigChannel+0xa2>
 8001740:	683b      	ldr	r3, [r7, #0]
 8001742:	681b      	ldr	r3, [r3, #0]
 8001744:	f1b3 4f00 	cmp.w	r3, #2147483648	@ 0x80000000
 8001748:	d035      	beq.n	80017b6 <HAL_ADC_ConfigChannel+0xa2>
  {
    /* Clear the old sample time */
    hadc->Instance->SMPR1 &= ~ADC_SMPR1(ADC_SMPR1_SMP10, sConfig->Channel);
 800174a:	687b      	ldr	r3, [r7, #4]
 800174c:	681b      	ldr	r3, [r3, #0]
 800174e:	68d9      	ldr	r1, [r3, #12]
 8001750:	683b      	ldr	r3, [r7, #0]
 8001752:	681b      	ldr	r3, [r3, #0]
 8001754:	b29b      	uxth	r3, r3
 8001756:	461a      	mov	r2, r3
 8001758:	4613      	mov	r3, r2
 800175a:	005b      	lsls	r3, r3, #1
 800175c:	4413      	add	r3, r2
 800175e:	3b1e      	subs	r3, #30
 8001760:	2207      	movs	r2, #7
 8001762:	fa02 f303 	lsl.w	r3, r2, r3
 8001766:	43da      	mvns	r2, r3
 8001768:	687b      	ldr	r3, [r7, #4]
 800176a:	681b      	ldr	r3, [r3, #0]
 800176c:	400a      	ands	r2, r1
 800176e:	60da      	str	r2, [r3, #12]

    if (sConfig->Channel == ADC_CHANNEL_TEMPSENSOR)
 8001770:	683b      	ldr	r3, [r7, #0]
 8001772:	681b      	ldr	r3, [r3, #0]
 8001774:	4a8d      	ldr	r2, [pc, #564]	@ (80019ac <HAL_ADC_ConfigChannel+0x298>)
 8001776:	4293      	cmp	r3, r2
 8001778:	d10a      	bne.n	8001790 <HAL_ADC_ConfigChannel+0x7c>
    {
      /* Set the new sample time */
      hadc->Instance->SMPR1 |= ADC_SMPR1(sConfig->SamplingTime, ADC_CHANNEL_18);
 800177a:	687b      	ldr	r3, [r7, #4]
 800177c:	681b      	ldr	r3, [r3, #0]
 800177e:	68d9      	ldr	r1, [r3, #12]
 8001780:	683b      	ldr	r3, [r7, #0]
 8001782:	689b      	ldr	r3, [r3, #8]
 8001784:	061a      	lsls	r2, r3, #24
 8001786:	687b      	ldr	r3, [r7, #4]
 8001788:	681b      	ldr	r3, [r3, #0]
 800178a:	430a      	orrs	r2, r1
 800178c:	60da      	str	r2, [r3, #12]
    if (sConfig->Channel == ADC_CHANNEL_TEMPSENSOR)
 800178e:	e035      	b.n	80017fc <HAL_ADC_ConfigChannel+0xe8>
    }
    else
    {
      /* Set the new sample time */
      hadc->Instance->SMPR1 |= ADC_SMPR1(sConfig->SamplingTime, sConfig->Channel);
 8001790:	687b      	ldr	r3, [r7, #4]
 8001792:	681b      	ldr	r3, [r3, #0]
 8001794:	68d9      	ldr	r1, [r3, #12]
 8001796:	683b      	ldr	r3, [r7, #0]
 8001798:	689a      	ldr	r2, [r3, #8]
 800179a:	683b      	ldr	r3, [r7, #0]
 800179c:	681b      	ldr	r3, [r3, #0]
 800179e:	b29b      	uxth	r3, r3
 80017a0:	4618      	mov	r0, r3
 80017a2:	4603      	mov	r3, r0
 80017a4:	005b      	lsls	r3, r3, #1
 80017a6:	4403      	add	r3, r0
 80017a8:	3b1e      	subs	r3, #30
 80017aa:	409a      	lsls	r2, r3
 80017ac:	687b      	ldr	r3, [r7, #4]
 80017ae:	681b      	ldr	r3, [r3, #0]
 80017b0:	430a      	orrs	r2, r1
 80017b2:	60da      	str	r2, [r3, #12]
    if (sConfig->Channel == ADC_CHANNEL_TEMPSENSOR)
 80017b4:	e022      	b.n	80017fc <HAL_ADC_ConfigChannel+0xe8>
    }
  }
  else /* ADC_Channel include in ADC_Channel_[0..9] */
  {
    /* Clear the old sample time */
    hadc->Instance->SMPR2 &= ~ADC_SMPR2(ADC_SMPR2_SMP0, sConfig->Channel);
 80017b6:	687b      	ldr	r3, [r7, #4]
 80017b8:	681b      	ldr	r3, [r3, #0]
 80017ba:	6919      	ldr	r1, [r3, #16]
 80017bc:	683b      	ldr	r3, [r7, #0]
 80017be:	681b      	ldr	r3, [r3, #0]
 80017c0:	b29b      	uxth	r3, r3
 80017c2:	461a      	mov	r2, r3
 80017c4:	4613      	mov	r3, r2
 80017c6:	005b      	lsls	r3, r3, #1
 80017c8:	4413      	add	r3, r2
 80017ca:	2207      	movs	r2, #7
 80017cc:	fa02 f303 	lsl.w	r3, r2, r3
 80017d0:	43da      	mvns	r2, r3
 80017d2:	687b      	ldr	r3, [r7, #4]
 80017d4:	681b      	ldr	r3, [r3, #0]
 80017d6:	400a      	ands	r2, r1
 80017d8:	611a      	str	r2, [r3, #16]
    
    /* Set the new sample time */
    hadc->Instance->SMPR2 |= ADC_SMPR2(sConfig->SamplingTime, sConfig->Channel);
 80017da:	687b      	ldr	r3, [r7, #4]
 80017dc:	681b      	ldr	r3, [r3, #0]
 80017de:	6919      	ldr	r1, [r3, #16]
 80017e0:	683b      	ldr	r3, [r7, #0]
 80017e2:	689a      	ldr	r2, [r3, #8]
 80017e4:	683b      	ldr	r3, [r7, #0]
 80017e6:	681b      	ldr	r3, [r3, #0]
 80017e8:	b29b      	uxth	r3, r3
 80017ea:	4618      	mov	r0, r3
 80017ec:	4603      	mov	r3, r0
 80017ee:	005b      	lsls	r3, r3, #1
 80017f0:	4403      	add	r3, r0
 80017f2:	409a      	lsls	r2, r3
 80017f4:	687b      	ldr	r3, [r7, #4]
 80017f6:	681b      	ldr	r3, [r3, #0]
 80017f8:	430a      	orrs	r2, r1
 80017fa:	611a      	str	r2, [r3, #16]
  }
  
  /* For Rank 1 to 6 */
  if (sConfig->Rank < 7)
 80017fc:	683b      	ldr	r3, [r7, #0]
 80017fe:	685b      	ldr	r3, [r3, #4]
 8001800:	2b06      	cmp	r3, #6
 8001802:	d824      	bhi.n	800184e <HAL_ADC_ConfigChannel+0x13a>
  {
    /* Clear the old SQx bits for the selected rank */
    hadc->Instance->SQR3 &= ~ADC_SQR3_RK(ADC_SQR3_SQ1, sConfig->Rank);
 8001804:	687b      	ldr	r3, [r7, #4]
 8001806:	681b      	ldr	r3, [r3, #0]
 8001808:	6b59      	ldr	r1, [r3, #52]	@ 0x34
 800180a:	683b      	ldr	r3, [r7, #0]
 800180c:	685a      	ldr	r2, [r3, #4]
 800180e:	4613      	mov	r3, r2
 8001810:	009b      	lsls	r3, r3, #2
 8001812:	4413      	add	r3, r2
 8001814:	3b05      	subs	r3, #5
 8001816:	221f      	movs	r2, #31
 8001818:	fa02 f303 	lsl.w	r3, r2, r3
 800181c:	43da      	mvns	r2, r3
 800181e:	687b      	ldr	r3, [r7, #4]
 8001820:	681b      	ldr	r3, [r3, #0]
 8001822:	400a      	ands	r2, r1
 8001824:	635a      	str	r2, [r3, #52]	@ 0x34
    
    /* Set the SQx bits for the selected rank */
    hadc->Instance->SQR3 |= ADC_SQR3_RK(sConfig->Channel, sConfig->Rank);
 8001826:	687b      	ldr	r3, [r7, #4]
 8001828:	681b      	ldr	r3, [r3, #0]
 800182a:	6b59      	ldr	r1, [r3, #52]	@ 0x34
 800182c:	683b      	ldr	r3, [r7, #0]
 800182e:	681b      	ldr	r3, [r3, #0]
 8001830:	b29b      	uxth	r3, r3
 8001832:	4618      	mov	r0, r3
 8001834:	683b      	ldr	r3, [r7, #0]
 8001836:	685a      	ldr	r2, [r3, #4]
 8001838:	4613      	mov	r3, r2
 800183a:	009b      	lsls	r3, r3, #2
 800183c:	4413      	add	r3, r2
 800183e:	3b05      	subs	r3, #5
 8001840:	fa00 f203 	lsl.w	r2, r0, r3
 8001844:	687b      	ldr	r3, [r7, #4]
 8001846:	681b      	ldr	r3, [r3, #0]
 8001848:	430a      	orrs	r2, r1
 800184a:	635a      	str	r2, [r3, #52]	@ 0x34
 800184c:	e04c      	b.n	80018e8 <HAL_ADC_ConfigChannel+0x1d4>
  }
  /* For Rank 7 to 12 */
  else if (sConfig->Rank < 13)
 800184e:	683b      	ldr	r3, [r7, #0]
 8001850:	685b      	ldr	r3, [r3, #4]
 8001852:	2b0c      	cmp	r3, #12
 8001854:	d824      	bhi.n	80018a0 <HAL_ADC_ConfigChannel+0x18c>
  {
    /* Clear the old SQx bits for the selected rank */
    hadc->Instance->SQR2 &= ~ADC_SQR2_RK(ADC_SQR2_SQ7, sConfig->Rank);
 8001856:	687b      	ldr	r3, [r7, #4]
 8001858:	681b      	ldr	r3, [r3, #0]
 800185a:	6b19      	ldr	r1, [r3, #48]	@ 0x30
 800185c:	683b      	ldr	r3, [r7, #0]
 800185e:	685a      	ldr	r2, [r3, #4]
 8001860:	4613      	mov	r3, r2
 8001862:	009b      	lsls	r3, r3, #2
 8001864:	4413      	add	r3, r2
 8001866:	3b23      	subs	r3, #35	@ 0x23
 8001868:	221f      	movs	r2, #31
 800186a:	fa02 f303 	lsl.w	r3, r2, r3
 800186e:	43da      	mvns	r2, r3
 8001870:	687b      	ldr	r3, [r7, #4]
 8001872:	681b      	ldr	r3, [r3, #0]
 8001874:	400a      	ands	r2, r1
 8001876:	631a      	str	r2, [r3, #48]	@ 0x30
    
    /* Set the SQx bits for the selected rank */
    hadc->Instance->SQR2 |= ADC_SQR2_RK(sConfig->Channel, sConfig->Rank);
 8001878:	687b      	ldr	r3, [r7, #4]
 800187a:	681b      	ldr	r3, [r3, #0]
 800187c:	6b19      	ldr	r1, [r3, #48]	@ 0x30
 800187e:	683b      	ldr	r3, [r7, #0]
 8001880:	681b      	ldr	r3, [r3, #0]
 8001882:	b29b      	uxth	r3, r3
 8001884:	4618      	mov	r0, r3
 8001886:	683b      	ldr	r3, [r7, #0]
 8001888:	685a      	ldr	r2, [r3, #4]
 800188a:	4613      	mov	r3, r2
 800188c:	009b      	lsls	r3, r3, #2
 800188e:	4413      	add	r3, r2
 8001890:	3b23      	subs	r3, #35	@ 0x23
 8001892:	fa00 f203 	lsl.w	r2, r0, r3
 8001896:	687b      	ldr	r3, [r7, #4]
 8001898:	681b      	ldr	r3, [r3, #0]
 800189a:	430a      	orrs	r2, r1
 800189c:	631a      	str	r2, [r3, #48]	@ 0x30
 800189e:	e023      	b.n	80018e8 <HAL_ADC_ConfigChannel+0x1d4>
  }
  /* For Rank 13 to 16 */
  else
  {
    /* Clear the old SQx bits for the selected rank */
    hadc->Instance->SQR1 &= ~ADC_SQR1_RK(ADC_SQR1_SQ13, sConfig->Rank);
 80018a0:	687b      	ldr	r3, [r7, #4]
 80018a2:	681b      	ldr	r3, [r3, #0]
 80018a4:	6ad9      	ldr	r1, [r3, #44]	@ 0x2c
 80018a6:	683b      	ldr	r3, [r7, #0]
 80018a8:	685a      	ldr	r2, [r3, #4]
 80018aa:	4613      	mov	r3, r2
 80018ac:	009b      	lsls	r3, r3, #2
 80018ae:	4413      	add	r3, r2
 80018b0:	3b41      	subs	r3, #65	@ 0x41
 80018b2:	221f      	movs	r2, #31
 80018b4:	fa02 f303 	lsl.w	r3, r2, r3
 80018b8:	43da      	mvns	r2, r3
 80018ba:	687b      	ldr	r3, [r7, #4]
 80018bc:	681b      	ldr	r3, [r3, #0]
 80018be:	400a      	ands	r2, r1
 80018c0:	62da      	str	r2, [r3, #44]	@ 0x2c
    
    /* Set the SQx bits for the selected rank */
    hadc->Instance->SQR1 |= ADC_SQR1_RK(sConfig->Channel, sConfig->Rank);
 80018c2:	687b      	ldr	r3, [r7, #4]
 80018c4:	681b      	ldr	r3, [r3, #0]
 80018c6:	6ad9      	ldr	r1, [r3, #44]	@ 0x2c
 80018c8:	683b      	ldr	r3, [r7, #0]
 80018ca:	681b      	ldr	r3, [r3, #0]
 80018cc:	b29b      	uxth	r3, r3
 80018ce:	4618      	mov	r0, r3
 80018d0:	683b      	ldr	r3, [r7, #0]
 80018d2:	685a      	ldr	r2, [r3, #4]
 80018d4:	4613      	mov	r3, r2
 80018d6:	009b      	lsls	r3, r3, #2
 80018d8:	4413      	add	r3, r2
 80018da:	3b41      	subs	r3, #65	@ 0x41
 80018dc:	fa00 f203 	lsl.w	r2, r0, r3
 80018e0:	687b      	ldr	r3, [r7, #4]
 80018e2:	681b      	ldr	r3, [r3, #0]
 80018e4:	430a      	orrs	r2, r1
 80018e6:	62da      	str	r2, [r3, #44]	@ 0x2c
  }
  
  /* if no internal channel selected */
  if ((hadc->Instance == ADC1) && (sConfig->Channel == ADC_INTERNAL_NONE))
 80018e8:	687b      	ldr	r3, [r7, #4]
 80018ea:	681b      	ldr	r3, [r3, #0]
 80018ec:	4a30      	ldr	r2, [pc, #192]	@ (80019b0 <HAL_ADC_ConfigChannel+0x29c>)
 80018ee:	4293      	cmp	r3, r2
 80018f0:	d10a      	bne.n	8001908 <HAL_ADC_ConfigChannel+0x1f4>
 80018f2:	683b      	ldr	r3, [r7, #0]
 80018f4:	681b      	ldr	r3, [r3, #0]
 80018f6:	f1b3 4f00 	cmp.w	r3, #2147483648	@ 0x80000000
 80018fa:	d105      	bne.n	8001908 <HAL_ADC_ConfigChannel+0x1f4>
  {
    /* Disable the VBAT & TSVREFE channel*/
    ADC->CCR &= ~(ADC_CCR_VBATE | ADC_CCR_TSVREFE);
 80018fc:	4b2d      	ldr	r3, [pc, #180]	@ (80019b4 <HAL_ADC_ConfigChannel+0x2a0>)
 80018fe:	685b      	ldr	r3, [r3, #4]
 8001900:	4a2c      	ldr	r2, [pc, #176]	@ (80019b4 <HAL_ADC_ConfigChannel+0x2a0>)
 8001902:	f423 0340 	bic.w	r3, r3, #12582912	@ 0xc00000
 8001906:	6053      	str	r3, [r2, #4]
  }

  /* if ADC1 Channel_18 is selected enable VBAT Channel */
  if ((hadc->Instance == ADC1) && (sConfig->Channel == ADC_CHANNEL_VBAT))
 8001908:	687b      	ldr	r3, [r7, #4]
 800190a:	681b      	ldr	r3, [r3, #0]
 800190c:	4a28      	ldr	r2, [pc, #160]	@ (80019b0 <HAL_ADC_ConfigChannel+0x29c>)
 800190e:	4293      	cmp	r3, r2
 8001910:	d10f      	bne.n	8001932 <HAL_ADC_ConfigChannel+0x21e>
 8001912:	683b      	ldr	r3, [r7, #0]
 8001914:	681b      	ldr	r3, [r3, #0]
 8001916:	2b12      	cmp	r3, #18
 8001918:	d10b      	bne.n	8001932 <HAL_ADC_ConfigChannel+0x21e>
  {
    /* Disable the TEMPSENSOR channel as it is multiplixed with the VBAT channel */
    ADC->CCR &= ~ADC_CCR_TSVREFE;
 800191a:	4b26      	ldr	r3, [pc, #152]	@ (80019b4 <HAL_ADC_ConfigChannel+0x2a0>)
 800191c:	685b      	ldr	r3, [r3, #4]
 800191e:	4a25      	ldr	r2, [pc, #148]	@ (80019b4 <HAL_ADC_ConfigChannel+0x2a0>)
 8001920:	f423 0300 	bic.w	r3, r3, #8388608	@ 0x800000
 8001924:	6053      	str	r3, [r2, #4]

    /* Enable the VBAT channel*/
    ADC->CCR |= ADC_CCR_VBATE;
 8001926:	4b23      	ldr	r3, [pc, #140]	@ (80019b4 <HAL_ADC_ConfigChannel+0x2a0>)
 8001928:	685b      	ldr	r3, [r3, #4]
 800192a:	4a22      	ldr	r2, [pc, #136]	@ (80019b4 <HAL_ADC_ConfigChannel+0x2a0>)
 800192c:	f443 0380 	orr.w	r3, r3, #4194304	@ 0x400000
 8001930:	6053      	str	r3, [r2, #4]
  }
  
  /* if ADC1 Channel_18 or Channel_17 is selected enable TSVREFE Channel(Temperature sensor and VREFINT) */
  if ((hadc->Instance == ADC1) && ((sConfig->Channel == ADC_CHANNEL_TEMPSENSOR) || (sConfig->Channel == ADC_CHANNEL_VREFINT)))
 8001932:	687b      	ldr	r3, [r7, #4]
 8001934:	681b      	ldr	r3, [r3, #0]
 8001936:	4a1e      	ldr	r2, [pc, #120]	@ (80019b0 <HAL_ADC_ConfigChannel+0x29c>)
 8001938:	4293      	cmp	r3, r2
 800193a:	d12b      	bne.n	8001994 <HAL_ADC_ConfigChannel+0x280>
 800193c:	683b      	ldr	r3, [r7, #0]
 800193e:	681b      	ldr	r3, [r3, #0]
 8001940:	4a1a      	ldr	r2, [pc, #104]	@ (80019ac <HAL_ADC_ConfigChannel+0x298>)
 8001942:	4293      	cmp	r3, r2
 8001944:	d003      	beq.n	800194e <HAL_ADC_ConfigChannel+0x23a>
 8001946:	683b      	ldr	r3, [r7, #0]
 8001948:	681b      	ldr	r3, [r3, #0]
 800194a:	2b11      	cmp	r3, #17
 800194c:	d122      	bne.n	8001994 <HAL_ADC_ConfigChannel+0x280>
  {
    /* Disable the VBAT channel as it is multiplixed with TEMPSENSOR channel */
    ADC->CCR &= ~ADC_CCR_VBATE;
 800194e:	4b19      	ldr	r3, [pc, #100]	@ (80019b4 <HAL_ADC_ConfigChannel+0x2a0>)
 8001950:	685b      	ldr	r3, [r3, #4]
 8001952:	4a18      	ldr	r2, [pc, #96]	@ (80019b4 <HAL_ADC_ConfigChannel+0x2a0>)
 8001954:	f423 0380 	bic.w	r3, r3, #4194304	@ 0x400000
 8001958:	6053      	str	r3, [r2, #4]

    /* Enable the TSVREFE channel*/
    ADC->CCR |= ADC_CCR_TSVREFE;
 800195a:	4b16      	ldr	r3, [pc, #88]	@ (80019b4 <HAL_ADC_ConfigChannel+0x2a0>)
 800195c:	685b      	ldr	r3, [r3, #4]
 800195e:	4a15      	ldr	r2, [pc, #84]	@ (80019b4 <HAL_ADC_ConfigChannel+0x2a0>)
 8001960:	f443 0300 	orr.w	r3, r3, #8388608	@ 0x800000
 8001964:	6053      	str	r3, [r2, #4]

    if(sConfig->Channel == ADC_CHANNEL_TEMPSENSOR)
 8001966:	683b      	ldr	r3, [r7, #0]
 8001968:	681b      	ldr	r3, [r3, #0]
 800196a:	4a10      	ldr	r2, [pc, #64]	@ (80019ac <HAL_ADC_ConfigChannel+0x298>)
 800196c:	4293      	cmp	r3, r2
 800196e:	d111      	bne.n	8001994 <HAL_ADC_ConfigChannel+0x280>
    {
      /* Delay for temperature sensor stabilization time */
      /* Compute number of CPU cycles to wait for */
      counter = (ADC_TEMPSENSOR_DELAY_US * (SystemCoreClock / 1000000));
 8001970:	4b11      	ldr	r3, [pc, #68]	@ (80019b8 <HAL_ADC_ConfigChannel+0x2a4>)
 8001972:	681b      	ldr	r3, [r3, #0]
 8001974:	4a11      	ldr	r2, [pc, #68]	@ (80019bc <HAL_ADC_ConfigChannel+0x2a8>)
 8001976:	fba2 2303 	umull	r2, r3, r2, r3
 800197a:	0c9a      	lsrs	r2, r3, #18
 800197c:	4613      	mov	r3, r2
 800197e:	009b      	lsls	r3, r3, #2
 8001980:	4413      	add	r3, r2
 8001982:	005b      	lsls	r3, r3, #1
 8001984:	60fb      	str	r3, [r7, #12]
      while(counter != 0)
 8001986:	e002      	b.n	800198e <HAL_ADC_ConfigChannel+0x27a>
      {
        counter--;
 8001988:	68fb      	ldr	r3, [r7, #12]
 800198a:	3b01      	subs	r3, #1
 800198c:	60fb      	str	r3, [r7, #12]
      while(counter != 0)
 800198e:	68fb      	ldr	r3, [r7, #12]
 8001990:	2b00      	cmp	r3, #0
 8001992:	d1f9      	bne.n	8001988 <HAL_ADC_ConfigChannel+0x274>
      }
    }
  }
  
  /* Process unlocked */
  __HAL_UNLOCK(hadc);
 8001994:	687b      	ldr	r3, [r7, #4]
 8001996:	2200      	movs	r2, #0
 8001998:	f883 203c 	strb.w	r2, [r3, #60]	@ 0x3c
  
  /* Return function status */
  return HAL_OK;
 800199c:	2300      	movs	r3, #0
}
 800199e:	4618      	mov	r0, r3
 80019a0:	3714      	adds	r7, #20
 80019a2:	46bd      	mov	sp, r7
 80019a4:	f85d 7b04 	ldr.w	r7, [sp], #4
 80019a8:	4770      	bx	lr
 80019aa:	bf00      	nop
 80019ac:	10000012 	.word	0x10000012
 80019b0:	40012000 	.word	0x40012000
 80019b4:	40012300 	.word	0x40012300
 80019b8:	20000000 	.word	0x20000000
 80019bc:	431bde83 	.word	0x431bde83

080019c0 <ADC_Init>:
  * @param  hadc pointer to a ADC_HandleTypeDef structure that contains
  *         the configuration information for the specified ADC.  
  * @retval None
  */
static void ADC_Init(ADC_HandleTypeDef* hadc)
{
 80019c0:	b480      	push	{r7}
 80019c2:	b083      	sub	sp, #12
 80019c4:	af00      	add	r7, sp, #0
 80019c6:	6078      	str	r0, [r7, #4]
  /* Set ADC parameters */
  /* Set the ADC clock prescaler */
  ADC->CCR &= ~(ADC_CCR_ADCPRE);
 80019c8:	4b78      	ldr	r3, [pc, #480]	@ (8001bac <ADC_Init+0x1ec>)
 80019ca:	685b      	ldr	r3, [r3, #4]
 80019cc:	4a77      	ldr	r2, [pc, #476]	@ (8001bac <ADC_Init+0x1ec>)
 80019ce:	f423 3340 	bic.w	r3, r3, #196608	@ 0x30000
 80019d2:	6053      	str	r3, [r2, #4]
  ADC->CCR |=  hadc->Init.ClockPrescaler;
 80019d4:	4b75      	ldr	r3, [pc, #468]	@ (8001bac <ADC_Init+0x1ec>)
 80019d6:	685a      	ldr	r2, [r3, #4]
 80019d8:	687b      	ldr	r3, [r7, #4]
 80019da:	685b      	ldr	r3, [r3, #4]
 80019dc:	4973      	ldr	r1, [pc, #460]	@ (8001bac <ADC_Init+0x1ec>)
 80019de:	4313      	orrs	r3, r2
 80019e0:	604b      	str	r3, [r1, #4]
  
  /* Set ADC scan mode */
  hadc->Instance->CR1 &= ~(ADC_CR1_SCAN);
 80019e2:	687b      	ldr	r3, [r7, #4]
 80019e4:	681b      	ldr	r3, [r3, #0]
 80019e6:	685a      	ldr	r2, [r3, #4]
 80019e8:	687b      	ldr	r3, [r7, #4]
 80019ea:	681b      	ldr	r3, [r3, #0]
 80019ec:	f422 7280 	bic.w	r2, r2, #256	@ 0x100
 80019f0:	605a      	str	r2, [r3, #4]
  hadc->Instance->CR1 |=  ADC_CR1_SCANCONV(hadc->Init.ScanConvMode);
 80019f2:	687b      	ldr	r3, [r7, #4]
 80019f4:	681b      	ldr	r3, [r3, #0]
 80019f6:	6859      	ldr	r1, [r3, #4]
 80019f8:	687b      	ldr	r3, [r7, #4]
 80019fa:	691b      	ldr	r3, [r3, #16]
 80019fc:	021a      	lsls	r2, r3, #8
 80019fe:	687b      	ldr	r3, [r7, #4]
 8001a00:	681b      	ldr	r3, [r3, #0]
 8001a02:	430a      	orrs	r2, r1
 8001a04:	605a      	str	r2, [r3, #4]
  
  /* Set ADC resolution */
  hadc->Instance->CR1 &= ~(ADC_CR1_RES);
 8001a06:	687b      	ldr	r3, [r7, #4]
 8001a08:	681b      	ldr	r3, [r3, #0]
 8001a0a:	685a      	ldr	r2, [r3, #4]
 8001a0c:	687b      	ldr	r3, [r7, #4]
 8001a0e:	681b      	ldr	r3, [r3, #0]
 8001a10:	f022 7240 	bic.w	r2, r2, #50331648	@ 0x3000000
 8001a14:	605a      	str	r2, [r3, #4]
  hadc->Instance->CR1 |=  hadc->Init.Resolution;
 8001a16:	687b      	ldr	r3, [r7, #4]
 8001a18:	681b      	ldr	r3, [r3, #0]
 8001a1a:	6859      	ldr	r1, [r3, #4]
 8001a1c:	687b      	ldr	r3, [r7, #4]
 8001a1e:	689a      	ldr	r2, [r3, #8]
 8001a20:	687b      	ldr	r3, [r7, #4]
 8001a22:	681b      	ldr	r3, [r3, #0]
 8001a24:	430a      	orrs	r2, r1
 8001a26:	605a      	str	r2, [r3, #4]
  
  /* Set ADC data alignment */
  hadc->Instance->CR2 &= ~(ADC_CR2_ALIGN);
 8001a28:	687b      	ldr	r3, [r7, #4]
 8001a2a:	681b      	ldr	r3, [r3, #0]
 8001a2c:	689a      	ldr	r2, [r3, #8]
 8001a2e:	687b      	ldr	r3, [r7, #4]
 8001a30:	681b      	ldr	r3, [r3, #0]
 8001a32:	f422 6200 	bic.w	r2, r2, #2048	@ 0x800
 8001a36:	609a      	str	r2, [r3, #8]
  hadc->Instance->CR2 |= hadc->Init.DataAlign;
 8001a38:	687b      	ldr	r3, [r7, #4]
 8001a3a:	681b      	ldr	r3, [r3, #0]
 8001a3c:	6899      	ldr	r1, [r3, #8]
 8001a3e:	687b      	ldr	r3, [r7, #4]
 8001a40:	68da      	ldr	r2, [r3, #12]
 8001a42:	687b      	ldr	r3, [r7, #4]
 8001a44:	681b      	ldr	r3, [r3, #0]
 8001a46:	430a      	orrs	r2, r1
 8001a48:	609a      	str	r2, [r3, #8]
  /* Enable external trigger if trigger selection is different of software  */
  /* start.                                                                 */
  /* Note: This configuration keeps the hardware feature of parameter       */
  /*       ExternalTrigConvEdge "trigger edge none" equivalent to           */
  /*       software start.                                                  */
  if(hadc->Init.ExternalTrigConv != ADC_SOFTWARE_START)
 8001a4a:	687b      	ldr	r3, [r7, #4]
 8001a4c:	6a9b      	ldr	r3, [r3, #40]	@ 0x28
 8001a4e:	4a58      	ldr	r2, [pc, #352]	@ (8001bb0 <ADC_Init+0x1f0>)
 8001a50:	4293      	cmp	r3, r2
 8001a52:	d022      	beq.n	8001a9a <ADC_Init+0xda>
  {
    /* Select external trigger to start conversion */
    hadc->Instance->CR2 &= ~(ADC_CR2_EXTSEL);
 8001a54:	687b      	ldr	r3, [r7, #4]
 8001a56:	681b      	ldr	r3, [r3, #0]
 8001a58:	689a      	ldr	r2, [r3, #8]
 8001a5a:	687b      	ldr	r3, [r7, #4]
 8001a5c:	681b      	ldr	r3, [r3, #0]
 8001a5e:	f022 6270 	bic.w	r2, r2, #251658240	@ 0xf000000
 8001a62:	609a      	str	r2, [r3, #8]
    hadc->Instance->CR2 |= hadc->Init.ExternalTrigConv;
 8001a64:	687b      	ldr	r3, [r7, #4]
 8001a66:	681b      	ldr	r3, [r3, #0]
 8001a68:	6899      	ldr	r1, [r3, #8]
 8001a6a:	687b      	ldr	r3, [r7, #4]
 8001a6c:	6a9a      	ldr	r2, [r3, #40]	@ 0x28
 8001a6e:	687b      	ldr	r3, [r7, #4]
 8001a70:	681b      	ldr	r3, [r3, #0]
 8001a72:	430a      	orrs	r2, r1
 8001a74:	609a      	str	r2, [r3, #8]
    
    /* Select external trigger polarity */
    hadc->Instance->CR2 &= ~(ADC_CR2_EXTEN);
 8001a76:	687b      	ldr	r3, [r7, #4]
 8001a78:	681b      	ldr	r3, [r3, #0]
 8001a7a:	689a      	ldr	r2, [r3, #8]
 8001a7c:	687b      	ldr	r3, [r7, #4]
 8001a7e:	681b      	ldr	r3, [r3, #0]
 8001a80:	f022 5240 	bic.w	r2, r2, #805306368	@ 0x30000000
 8001a84:	609a      	str	r2, [r3, #8]
    hadc->Instance->CR2 |= hadc->Init.ExternalTrigConvEdge;
 8001a86:	687b      	ldr	r3, [r7, #4]
 8001a88:	681b      	ldr	r3, [r3, #0]
 8001a8a:	6899      	ldr	r1, [r3, #8]
 8001a8c:	687b      	ldr	r3, [r7, #4]
 8001a8e:	6ada      	ldr	r2, [r3, #44]	@ 0x2c
 8001a90:	687b      	ldr	r3, [r7, #4]
 8001a92:	681b      	ldr	r3, [r3, #0]
 8001a94:	430a      	orrs	r2, r1
 8001a96:	609a      	str	r2, [r3, #8]
 8001a98:	e00f      	b.n	8001aba <ADC_Init+0xfa>
  }
  else
  {
    /* Reset the external trigger */
    hadc->Instance->CR2 &= ~(ADC_CR2_EXTSEL);
 8001a9a:	687b      	ldr	r3, [r7, #4]
 8001a9c:	681b      	ldr	r3, [r3, #0]
 8001a9e:	689a      	ldr	r2, [r3, #8]
 8001aa0:	687b      	ldr	r3, [r7, #4]
 8001aa2:	681b      	ldr	r3, [r3, #0]
 8001aa4:	f022 6270 	bic.w	r2, r2, #251658240	@ 0xf000000
 8001aa8:	609a      	str	r2, [r3, #8]
    hadc->Instance->CR2 &= ~(ADC_CR2_EXTEN);
 8001aaa:	687b      	ldr	r3, [r7, #4]
 8001aac:	681b      	ldr	r3, [r3, #0]
 8001aae:	689a      	ldr	r2, [r3, #8]
 8001ab0:	687b      	ldr	r3, [r7, #4]
 8001ab2:	681b      	ldr	r3, [r3, #0]
 8001ab4:	f022 5240 	bic.w	r2, r2, #805306368	@ 0x30000000
 8001ab8:	609a      	str	r2, [r3, #8]
  }
  
  /* Enable or disable ADC continuous conversion mode */
  hadc->Instance->CR2 &= ~(ADC_CR2_CONT);
 8001aba:	687b      	ldr	r3, [r7, #4]
 8001abc:	681b      	ldr	r3, [r3, #0]
 8001abe:	689a      	ldr	r2, [r3, #8]
 8001ac0:	687b      	ldr	r3, [r7, #4]
 8001ac2:	681b      	ldr	r3, [r3, #0]
 8001ac4:	f022 0202 	bic.w	r2, r2, #2
 8001ac8:	609a      	str	r2, [r3, #8]
  hadc->Instance->CR2 |= ADC_CR2_CONTINUOUS((uint32_t)hadc->Init.ContinuousConvMode);
 8001aca:	687b      	ldr	r3, [r7, #4]
 8001acc:	681b      	ldr	r3, [r3, #0]
 8001ace:	6899      	ldr	r1, [r3, #8]
 8001ad0:	687b      	ldr	r3, [r7, #4]
 8001ad2:	699b      	ldr	r3, [r3, #24]
 8001ad4:	005a      	lsls	r2, r3, #1
 8001ad6:	687b      	ldr	r3, [r7, #4]
 8001ad8:	681b      	ldr	r3, [r3, #0]
 8001ada:	430a      	orrs	r2, r1
 8001adc:	609a      	str	r2, [r3, #8]
  
  if(hadc->Init.DiscontinuousConvMode != DISABLE)
 8001ade:	687b      	ldr	r3, [r7, #4]
 8001ae0:	f893 3020 	ldrb.w	r3, [r3, #32]
 8001ae4:	2b00      	cmp	r3, #0
 8001ae6:	d01b      	beq.n	8001b20 <ADC_Init+0x160>
  {
    assert_param(IS_ADC_REGULAR_DISC_NUMBER(hadc->Init.NbrOfDiscConversion));
  
    /* Enable the selected ADC regular discontinuous mode */
    hadc->Instance->CR1 |= (uint32_t)ADC_CR1_DISCEN;
 8001ae8:	687b      	ldr	r3, [r7, #4]
 8001aea:	681b      	ldr	r3, [r3, #0]
 8001aec:	685a      	ldr	r2, [r3, #4]
 8001aee:	687b      	ldr	r3, [r7, #4]
 8001af0:	681b      	ldr	r3, [r3, #0]
 8001af2:	f442 6200 	orr.w	r2, r2, #2048	@ 0x800
 8001af6:	605a      	str	r2, [r3, #4]
    
    /* Set the number of channels to be converted in discontinuous mode */
    hadc->Instance->CR1 &= ~(ADC_CR1_DISCNUM);
 8001af8:	687b      	ldr	r3, [r7, #4]
 8001afa:	681b      	ldr	r3, [r3, #0]
 8001afc:	685a      	ldr	r2, [r3, #4]
 8001afe:	687b      	ldr	r3, [r7, #4]
 8001b00:	681b      	ldr	r3, [r3, #0]
 8001b02:	f422 4260 	bic.w	r2, r2, #57344	@ 0xe000
 8001b06:	605a      	str	r2, [r3, #4]
    hadc->Instance->CR1 |=  ADC_CR1_DISCONTINUOUS(hadc->Init.NbrOfDiscConversion);
 8001b08:	687b      	ldr	r3, [r7, #4]
 8001b0a:	681b      	ldr	r3, [r3, #0]
 8001b0c:	6859      	ldr	r1, [r3, #4]
 8001b0e:	687b      	ldr	r3, [r7, #4]
 8001b10:	6a5b      	ldr	r3, [r3, #36]	@ 0x24
 8001b12:	3b01      	subs	r3, #1
 8001b14:	035a      	lsls	r2, r3, #13
 8001b16:	687b      	ldr	r3, [r7, #4]
 8001b18:	681b      	ldr	r3, [r3, #0]
 8001b1a:	430a      	orrs	r2, r1
 8001b1c:	605a      	str	r2, [r3, #4]
 8001b1e:	e007      	b.n	8001b30 <ADC_Init+0x170>
  }
  else
  {
    /* Disable the selected ADC regular discontinuous mode */
    hadc->Instance->CR1 &= ~(ADC_CR1_DISCEN);
 8001b20:	687b      	ldr	r3, [r7, #4]
 8001b22:	681b      	ldr	r3, [r3, #0]
 8001b24:	685a      	ldr	r2, [r3, #4]
 8001b26:	687b      	ldr	r3, [r7, #4]
 8001b28:	681b      	ldr	r3, [r3, #0]
 8001b2a:	f422 6200 	bic.w	r2, r2, #2048	@ 0x800
 8001b2e:	605a      	str	r2, [r3, #4]
  }
  
  /* Set ADC number of conversion */
  hadc->Instance->SQR1 &= ~(ADC_SQR1_L);
 8001b30:	687b      	ldr	r3, [r7, #4]
 8001b32:	681b      	ldr	r3, [r3, #0]
 8001b34:	6ada      	ldr	r2, [r3, #44]	@ 0x2c
 8001b36:	687b      	ldr	r3, [r7, #4]
 8001b38:	681b      	ldr	r3, [r3, #0]
 8001b3a:	f422 0270 	bic.w	r2, r2, #15728640	@ 0xf00000
 8001b3e:	62da      	str	r2, [r3, #44]	@ 0x2c
  hadc->Instance->SQR1 |=  ADC_SQR1(hadc->Init.NbrOfConversion);
 8001b40:	687b      	ldr	r3, [r7, #4]
 8001b42:	681b      	ldr	r3, [r3, #0]
 8001b44:	6ad9      	ldr	r1, [r3, #44]	@ 0x2c
 8001b46:	687b      	ldr	r3, [r7, #4]
 8001b48:	69db      	ldr	r3, [r3, #28]
 8001b4a:	3b01      	subs	r3, #1
 8001b4c:	051a      	lsls	r2, r3, #20
 8001b4e:	687b      	ldr	r3, [r7, #4]
 8001b50:	681b      	ldr	r3, [r3, #0]
 8001b52:	430a      	orrs	r2, r1
 8001b54:	62da      	str	r2, [r3, #44]	@ 0x2c
  
  /* Enable or disable ADC DMA continuous request */
  hadc->Instance->CR2 &= ~(ADC_CR2_DDS);
 8001b56:	687b      	ldr	r3, [r7, #4]
 8001b58:	681b      	ldr	r3, [r3, #0]
 8001b5a:	689a      	ldr	r2, [r3, #8]
 8001b5c:	687b      	ldr	r3, [r7, #4]
 8001b5e:	681b      	ldr	r3, [r3, #0]
 8001b60:	f422 7200 	bic.w	r2, r2, #512	@ 0x200
 8001b64:	609a      	str	r2, [r3, #8]
  hadc->Instance->CR2 |= ADC_CR2_DMAContReq((uint32_t)hadc->Init.DMAContinuousRequests);
 8001b66:	687b      	ldr	r3, [r7, #4]
 8001b68:	681b      	ldr	r3, [r3, #0]
 8001b6a:	6899      	ldr	r1, [r3, #8]
 8001b6c:	687b      	ldr	r3, [r7, #4]
 8001b6e:	f893 3030 	ldrb.w	r3, [r3, #48]	@ 0x30
 8001b72:	025a      	lsls	r2, r3, #9
 8001b74:	687b      	ldr	r3, [r7, #4]
 8001b76:	681b      	ldr	r3, [r3, #0]
 8001b78:	430a      	orrs	r2, r1
 8001b7a:	609a      	str	r2, [r3, #8]
  
  /* Enable or disable ADC end of conversion selection */
  hadc->Instance->CR2 &= ~(ADC_CR2_EOCS);
 8001b7c:	687b      	ldr	r3, [r7, #4]
 8001b7e:	681b      	ldr	r3, [r3, #0]
 8001b80:	689a      	ldr	r2, [r3, #8]
 8001b82:	687b      	ldr	r3, [r7, #4]
 8001b84:	681b      	ldr	r3, [r3, #0]
 8001b86:	f422 6280 	bic.w	r2, r2, #1024	@ 0x400
 8001b8a:	609a      	str	r2, [r3, #8]
  hadc->Instance->CR2 |= ADC_CR2_EOCSelection(hadc->Init.EOCSelection);
 8001b8c:	687b      	ldr	r3, [r7, #4]
 8001b8e:	681b      	ldr	r3, [r3, #0]
 8001b90:	6899      	ldr	r1, [r3, #8]
 8001b92:	687b      	ldr	r3, [r7, #4]
 8001b94:	695b      	ldr	r3, [r3, #20]
 8001b96:	029a      	lsls	r2, r3, #10
 8001b98:	687b      	ldr	r3, [r7, #4]
 8001b9a:	681b      	ldr	r3, [r3, #0]
 8001b9c:	430a      	orrs	r2, r1
 8001b9e:	609a      	str	r2, [r3, #8]
}
 8001ba0:	bf00      	nop
 8001ba2:	370c      	adds	r7, #12
 8001ba4:	46bd      	mov	sp, r7
 8001ba6:	f85d 7b04 	ldr.w	r7, [sp], #4
 8001baa:	4770      	bx	lr
 8001bac:	40012300 	.word	0x40012300
 8001bb0:	0f000001 	.word	0x0f000001

08001bb4 <__NVIC_SetPriorityGrouping>:
           In case of a conflict between priority grouping and available
           priority bits (__NVIC_PRIO_BITS), the smallest possible priority group is set.
  \param [in]      PriorityGroup  Priority grouping field.
 */
__STATIC_INLINE void __NVIC_SetPriorityGrouping(uint32_t PriorityGroup)
{
 8001bb4:	b480      	push	{r7}
 8001bb6:	b085      	sub	sp, #20
 8001bb8:	af00      	add	r7, sp, #0
 8001bba:	6078      	str	r0, [r7, #4]
  uint32_t reg_value;
  uint32_t PriorityGroupTmp = (PriorityGroup & (uint32_t)0x07UL);             /* only values 0..7 are used          */
 8001bbc:	687b      	ldr	r3, [r7, #4]
 8001bbe:	f003 0307 	and.w	r3, r3, #7
 8001bc2:	60fb      	str	r3, [r7, #12]

  reg_value  =  SCB->AIRCR;                                                   /* read old register configuration    */
 8001bc4:	4b0b      	ldr	r3, [pc, #44]	@ (8001bf4 <__NVIC_SetPriorityGrouping+0x40>)
 8001bc6:	68db      	ldr	r3, [r3, #12]
 8001bc8:	60bb      	str	r3, [r7, #8]
  reg_value &= ~((uint32_t)(SCB_AIRCR_VECTKEY_Msk | SCB_AIRCR_PRIGROUP_Msk)); /* clear bits to change               */
 8001bca:	68ba      	ldr	r2, [r7, #8]
 8001bcc:	f64f 03ff 	movw	r3, #63743	@ 0xf8ff
 8001bd0:	4013      	ands	r3, r2
 8001bd2:	60bb      	str	r3, [r7, #8]
  reg_value  =  (reg_value                                   |
                ((uint32_t)0x5FAUL << SCB_AIRCR_VECTKEY_Pos) |
                (PriorityGroupTmp << SCB_AIRCR_PRIGROUP_Pos)  );              /* Insert write key and priority group */
 8001bd4:	68fb      	ldr	r3, [r7, #12]
 8001bd6:	021a      	lsls	r2, r3, #8
                ((uint32_t)0x5FAUL << SCB_AIRCR_VECTKEY_Pos) |
 8001bd8:	68bb      	ldr	r3, [r7, #8]
 8001bda:	431a      	orrs	r2, r3
  reg_value  =  (reg_value                                   |
 8001bdc:	4b06      	ldr	r3, [pc, #24]	@ (8001bf8 <__NVIC_SetPriorityGrouping+0x44>)
 8001bde:	4313      	orrs	r3, r2
 8001be0:	60bb      	str	r3, [r7, #8]
  SCB->AIRCR =  reg_value;
 8001be2:	4a04      	ldr	r2, [pc, #16]	@ (8001bf4 <__NVIC_SetPriorityGrouping+0x40>)
 8001be4:	68bb      	ldr	r3, [r7, #8]
 8001be6:	60d3      	str	r3, [r2, #12]
}
 8001be8:	bf00      	nop
 8001bea:	3714      	adds	r7, #20
 8001bec:	46bd      	mov	sp, r7
 8001bee:	f85d 7b04 	ldr.w	r7, [sp], #4
 8001bf2:	4770      	bx	lr
 8001bf4:	e000ed00 	.word	0xe000ed00
 8001bf8:	05fa0000 	.word	0x05fa0000

08001bfc <__NVIC_GetPriorityGrouping>:
  \brief   Get Priority Grouping
  \details Reads the priority grouping field from the NVIC Interrupt Controller.
  \return                Priority grouping field (SCB->AIRCR [10:8] PRIGROUP field).
 */
__STATIC_INLINE uint32_t __NVIC_GetPriorityGrouping(void)
{
 8001bfc:	b480      	push	{r7}
 8001bfe:	af00      	add	r7, sp, #0
  return ((uint32_t)((SCB->AIRCR & SCB_AIRCR_PRIGROUP_Msk) >> SCB_AIRCR_PRIGROUP_Pos));
 8001c00:	4b04      	ldr	r3, [pc, #16]	@ (8001c14 <__NVIC_GetPriorityGrouping+0x18>)
 8001c02:	68db      	ldr	r3, [r3, #12]
 8001c04:	0a1b      	lsrs	r3, r3, #8
 8001c06:	f003 0307 	and.w	r3, r3, #7
}
 8001c0a:	4618      	mov	r0, r3
 8001c0c:	46bd      	mov	sp, r7
 8001c0e:	f85d 7b04 	ldr.w	r7, [sp], #4
 8001c12:	4770      	bx	lr
 8001c14:	e000ed00 	.word	0xe000ed00

08001c18 <__NVIC_EnableIRQ>:
  \details Enables a device specific interrupt in the NVIC interrupt controller.
  \param [in]      IRQn  Device specific interrupt number.
  \note    IRQn must not be negative.
 */
__STATIC_INLINE void __NVIC_EnableIRQ(IRQn_Type IRQn)
{
 8001c18:	b480      	push	{r7}
 8001c1a:	b083      	sub	sp, #12
 8001c1c:	af00      	add	r7, sp, #0
 8001c1e:	4603      	mov	r3, r0
 8001c20:	71fb      	strb	r3, [r7, #7]
  if ((int32_t)(IRQn) >= 0)
 8001c22:	f997 3007 	ldrsb.w	r3, [r7, #7]
 8001c26:	2b00      	cmp	r3, #0
 8001c28:	db0b      	blt.n	8001c42 <__NVIC_EnableIRQ+0x2a>
  {
    NVIC->ISER[(((uint32_t)IRQn) >> 5UL)] = (uint32_t)(1UL << (((uint32_t)IRQn) & 0x1FUL));
 8001c2a:	79fb      	ldrb	r3, [r7, #7]
 8001c2c:	f003 021f 	and.w	r2, r3, #31
 8001c30:	4907      	ldr	r1, [pc, #28]	@ (8001c50 <__NVIC_EnableIRQ+0x38>)
 8001c32:	f997 3007 	ldrsb.w	r3, [r7, #7]
 8001c36:	095b      	lsrs	r3, r3, #5
 8001c38:	2001      	movs	r0, #1
 8001c3a:	fa00 f202 	lsl.w	r2, r0, r2
 8001c3e:	f841 2023 	str.w	r2, [r1, r3, lsl #2]
  }
}
 8001c42:	bf00      	nop
 8001c44:	370c      	adds	r7, #12
 8001c46:	46bd      	mov	sp, r7
 8001c48:	f85d 7b04 	ldr.w	r7, [sp], #4
 8001c4c:	4770      	bx	lr
 8001c4e:	bf00      	nop
 8001c50:	e000e100 	.word	0xe000e100

08001c54 <__NVIC_SetPriority>:
  \param [in]      IRQn  Interrupt number.
  \param [in]  priority  Priority to set.
  \note    The priority cannot be set for every processor exception.
 */
__STATIC_INLINE void __NVIC_SetPriority(IRQn_Type IRQn, uint32_t priority)
{
 8001c54:	b480      	push	{r7}
 8001c56:	b083      	sub	sp, #12
 8001c58:	af00      	add	r7, sp, #0
 8001c5a:	4603      	mov	r3, r0
 8001c5c:	6039      	str	r1, [r7, #0]
 8001c5e:	71fb      	strb	r3, [r7, #7]
  if ((int32_t)(IRQn) >= 0)
 8001c60:	f997 3007 	ldrsb.w	r3, [r7, #7]
 8001c64:	2b00      	cmp	r3, #0
 8001c66:	db0a      	blt.n	8001c7e <__NVIC_SetPriority+0x2a>
  {
    NVIC->IP[((uint32_t)IRQn)]                = (uint8_t)((priority << (8U - __NVIC_PRIO_BITS)) & (uint32_t)0xFFUL);
 8001c68:	683b      	ldr	r3, [r7, #0]
 8001c6a:	b2da      	uxtb	r2, r3
 8001c6c:	490c      	ldr	r1, [pc, #48]	@ (8001ca0 <__NVIC_SetPriority+0x4c>)
 8001c6e:	f997 3007 	ldrsb.w	r3, [r7, #7]
 8001c72:	0112      	lsls	r2, r2, #4
 8001c74:	b2d2      	uxtb	r2, r2
 8001c76:	440b      	add	r3, r1
 8001c78:	f883 2300 	strb.w	r2, [r3, #768]	@ 0x300
  }
  else
  {
    SCB->SHPR[(((uint32_t)IRQn) & 0xFUL)-4UL] = (uint8_t)((priority << (8U - __NVIC_PRIO_BITS)) & (uint32_t)0xFFUL);
  }
}
 8001c7c:	e00a      	b.n	8001c94 <__NVIC_SetPriority+0x40>
    SCB->SHPR[(((uint32_t)IRQn) & 0xFUL)-4UL] = (uint8_t)((priority << (8U - __NVIC_PRIO_BITS)) & (uint32_t)0xFFUL);
 8001c7e:	683b      	ldr	r3, [r7, #0]
 8001c80:	b2da      	uxtb	r2, r3
 8001c82:	4908      	ldr	r1, [pc, #32]	@ (8001ca4 <__NVIC_SetPriority+0x50>)
 8001c84:	79fb      	ldrb	r3, [r7, #7]
 8001c86:	f003 030f 	and.w	r3, r3, #15
 8001c8a:	3b04      	subs	r3, #4
 8001c8c:	0112      	lsls	r2, r2, #4
 8001c8e:	b2d2      	uxtb	r2, r2
 8001c90:	440b      	add	r3, r1
 8001c92:	761a      	strb	r2, [r3, #24]
}
 8001c94:	bf00      	nop
 8001c96:	370c      	adds	r7, #12
 8001c98:	46bd      	mov	sp, r7
 8001c9a:	f85d 7b04 	ldr.w	r7, [sp], #4
 8001c9e:	4770      	bx	lr
 8001ca0:	e000e100 	.word	0xe000e100
 8001ca4:	e000ed00 	.word	0xe000ed00

08001ca8 <NVIC_EncodePriority>:
  \param [in]   PreemptPriority  Preemptive priority value (starting from 0).
  \param [in]       SubPriority  Subpriority value (starting from 0).
  \return                        Encoded priority. Value can be used in the function \ref NVIC_SetPriority().
 */
__STATIC_INLINE uint32_t NVIC_EncodePriority (uint32_t PriorityGroup, uint32_t PreemptPriority, uint32_t SubPriority)
{
 8001ca8:	b480      	push	{r7}
 8001caa:	b089      	sub	sp, #36	@ 0x24
 8001cac:	af00      	add	r7, sp, #0
 8001cae:	60f8      	str	r0, [r7, #12]
 8001cb0:	60b9      	str	r1, [r7, #8]
 8001cb2:	607a      	str	r2, [r7, #4]
  uint32_t PriorityGroupTmp = (PriorityGroup & (uint32_t)0x07UL);   /* only values 0..7 are used          */
 8001cb4:	68fb      	ldr	r3, [r7, #12]
 8001cb6:	f003 0307 	and.w	r3, r3, #7
 8001cba:	61fb      	str	r3, [r7, #28]
  uint32_t PreemptPriorityBits;
  uint32_t SubPriorityBits;

  PreemptPriorityBits = ((7UL - PriorityGroupTmp) > (uint32_t)(__NVIC_PRIO_BITS)) ? (uint32_t)(__NVIC_PRIO_BITS) : (uint32_t)(7UL - PriorityGroupTmp);
 8001cbc:	69fb      	ldr	r3, [r7, #28]
 8001cbe:	f1c3 0307 	rsb	r3, r3, #7
 8001cc2:	2b04      	cmp	r3, #4
 8001cc4:	bf28      	it	cs
 8001cc6:	2304      	movcs	r3, #4
 8001cc8:	61bb      	str	r3, [r7, #24]
  SubPriorityBits     = ((PriorityGroupTmp + (uint32_t)(__NVIC_PRIO_BITS)) < (uint32_t)7UL) ? (uint32_t)0UL : (uint32_t)((PriorityGroupTmp - 7UL) + (uint32_t)(__NVIC_PRIO_BITS));
 8001cca:	69fb      	ldr	r3, [r7, #28]
 8001ccc:	3304      	adds	r3, #4
 8001cce:	2b06      	cmp	r3, #6
 8001cd0:	d902      	bls.n	8001cd8 <NVIC_EncodePriority+0x30>
 8001cd2:	69fb      	ldr	r3, [r7, #28]
 8001cd4:	3b03      	subs	r3, #3
 8001cd6:	e000      	b.n	8001cda <NVIC_EncodePriority+0x32>
 8001cd8:	2300      	movs	r3, #0
 8001cda:	617b      	str	r3, [r7, #20]

  return (
           ((PreemptPriority & (uint32_t)((1UL << (PreemptPriorityBits)) - 1UL)) << SubPriorityBits) |
 8001cdc:	f04f 32ff 	mov.w	r2, #4294967295
 8001ce0:	69bb      	ldr	r3, [r7, #24]
 8001ce2:	fa02 f303 	lsl.w	r3, r2, r3
 8001ce6:	43da      	mvns	r2, r3
 8001ce8:	68bb      	ldr	r3, [r7, #8]
 8001cea:	401a      	ands	r2, r3
 8001cec:	697b      	ldr	r3, [r7, #20]
 8001cee:	409a      	lsls	r2, r3
           ((SubPriority     & (uint32_t)((1UL << (SubPriorityBits    )) - 1UL)))
 8001cf0:	f04f 31ff 	mov.w	r1, #4294967295
 8001cf4:	697b      	ldr	r3, [r7, #20]
 8001cf6:	fa01 f303 	lsl.w	r3, r1, r3
 8001cfa:	43d9      	mvns	r1, r3
 8001cfc:	687b      	ldr	r3, [r7, #4]
 8001cfe:	400b      	ands	r3, r1
           ((PreemptPriority & (uint32_t)((1UL << (PreemptPriorityBits)) - 1UL)) << SubPriorityBits) |
 8001d00:	4313      	orrs	r3, r2
         );
}
 8001d02:	4618      	mov	r0, r3
 8001d04:	3724      	adds	r7, #36	@ 0x24
 8001d06:	46bd      	mov	sp, r7
 8001d08:	f85d 7b04 	ldr.w	r7, [sp], #4
 8001d0c:	4770      	bx	lr

08001d0e <HAL_NVIC_SetPriorityGrouping>:
  * @note   When the NVIC_PriorityGroup_0 is selected, IRQ preemption is no more possible. 
  *         The pending IRQ priority will be managed only by the subpriority. 
  * @retval None
  */
void HAL_NVIC_SetPriorityGrouping(uint32_t PriorityGroup)
{
 8001d0e:	b580      	push	{r7, lr}
 8001d10:	b082      	sub	sp, #8
 8001d12:	af00      	add	r7, sp, #0
 8001d14:	6078      	str	r0, [r7, #4]
  /* Check the parameters */
  assert_param(IS_NVIC_PRIORITY_GROUP(PriorityGroup));
  
  /* Set the PRIGROUP[10:8] bits according to the PriorityGroup parameter value */
  NVIC_SetPriorityGrouping(PriorityGroup);
 8001d16:	6878      	ldr	r0, [r7, #4]
 8001d18:	f7ff ff4c 	bl	8001bb4 <__NVIC_SetPriorityGrouping>
}
 8001d1c:	bf00      	nop
 8001d1e:	3708      	adds	r7, #8
 8001d20:	46bd      	mov	sp, r7
 8001d22:	bd80      	pop	{r7, pc}

08001d24 <HAL_NVIC_SetPriority>:
  *         This parameter can be a value between 0 and 15
  *         A lower priority value indicates a higher priority.          
  * @retval None
  */
void HAL_NVIC_SetPriority(IRQn_Type IRQn, uint32_t PreemptPriority, uint32_t SubPriority)
{ 
 8001d24:	b580      	push	{r7, lr}
 8001d26:	b086      	sub	sp, #24
 8001d28:	af00      	add	r7, sp, #0
 8001d2a:	4603      	mov	r3, r0
 8001d2c:	60b9      	str	r1, [r7, #8]
 8001d2e:	607a      	str	r2, [r7, #4]
 8001d30:	73fb      	strb	r3, [r7, #15]
  uint32_t prioritygroup = 0x00;
 8001d32:	2300      	movs	r3, #0
 8001d34:	617b      	str	r3, [r7, #20]
  
  /* Check the parameters */
  assert_param(IS_NVIC_SUB_PRIORITY(SubPriority));
  assert_param(IS_NVIC_PREEMPTION_PRIORITY(PreemptPriority));
  
  prioritygroup = NVIC_GetPriorityGrouping();
 8001d36:	f7ff ff61 	bl	8001bfc <__NVIC_GetPriorityGrouping>
 8001d3a:	6178      	str	r0, [r7, #20]
  
  NVIC_SetPriority(IRQn, NVIC_EncodePriority(prioritygroup, PreemptPriority, SubPriority));
 8001d3c:	687a      	ldr	r2, [r7, #4]
 8001d3e:	68b9      	ldr	r1, [r7, #8]
 8001d40:	6978      	ldr	r0, [r7, #20]
 8001d42:	f7ff ffb1 	bl	8001ca8 <NVIC_EncodePriority>
 8001d46:	4602      	mov	r2, r0
 8001d48:	f997 300f 	ldrsb.w	r3, [r7, #15]
 8001d4c:	4611      	mov	r1, r2
 8001d4e:	4618      	mov	r0, r3
 8001d50:	f7ff ff80 	bl	8001c54 <__NVIC_SetPriority>
}
 8001d54:	bf00      	nop
 8001d56:	3718      	adds	r7, #24
 8001d58:	46bd      	mov	sp, r7
 8001d5a:	bd80      	pop	{r7, pc}

08001d5c <HAL_NVIC_EnableIRQ>:
  *         This parameter can be an enumerator of IRQn_Type enumeration
  *         (For the complete STM32 Devices IRQ Channels list, please refer to the appropriate CMSIS device file (stm32f7xxxx.h))
  * @retval None
  */
void HAL_NVIC_EnableIRQ(IRQn_Type IRQn)
{
 8001d5c:	b580      	push	{r7, lr}
 8001d5e:	b082      	sub	sp, #8
 8001d60:	af00      	add	r7, sp, #0
 8001d62:	4603      	mov	r3, r0
 8001d64:	71fb      	strb	r3, [r7, #7]
  /* Check the parameters */
  assert_param(IS_NVIC_DEVICE_IRQ(IRQn));
  
  /* Enable interrupt */
  NVIC_EnableIRQ(IRQn);
 8001d66:	f997 3007 	ldrsb.w	r3, [r7, #7]
 8001d6a:	4618      	mov	r0, r3
 8001d6c:	f7ff ff54 	bl	8001c18 <__NVIC_EnableIRQ>
}
 8001d70:	bf00      	nop
 8001d72:	3708      	adds	r7, #8
 8001d74:	46bd      	mov	sp, r7
 8001d76:	bd80      	pop	{r7, pc}

08001d78 <HAL_CRC_Init>:
  *         parameters in the CRC_InitTypeDef and create the associated handle.
  * @param  hcrc CRC handle
  * @retval HAL status
  */
HAL_StatusTypeDef HAL_CRC_Init(CRC_HandleTypeDef *hcrc)
{
 8001d78:	b580      	push	{r7, lr}
 8001d7a:	b082      	sub	sp, #8
 8001d7c:	af00      	add	r7, sp, #0
 8001d7e:	6078      	str	r0, [r7, #4]
  /* Check the CRC handle allocation */
  if (hcrc == NULL)
 8001d80:	687b      	ldr	r3, [r7, #4]
 8001d82:	2b00      	cmp	r3, #0
 8001d84:	d101      	bne.n	8001d8a <HAL_CRC_Init+0x12>
  {
    return HAL_ERROR;
 8001d86:	2301      	movs	r3, #1
 8001d88:	e054      	b.n	8001e34 <HAL_CRC_Init+0xbc>
  }

  /* Check the parameters */
  assert_param(IS_CRC_ALL_INSTANCE(hcrc->Instance));

  if (hcrc->State == HAL_CRC_STATE_RESET)
 8001d8a:	687b      	ldr	r3, [r7, #4]
 8001d8c:	7f5b      	ldrb	r3, [r3, #29]
 8001d8e:	b2db      	uxtb	r3, r3
 8001d90:	2b00      	cmp	r3, #0
 8001d92:	d105      	bne.n	8001da0 <HAL_CRC_Init+0x28>
  {
    /* Allocate lock resource and initialize it */
    hcrc->Lock = HAL_UNLOCKED;
 8001d94:	687b      	ldr	r3, [r7, #4]
 8001d96:	2200      	movs	r2, #0
 8001d98:	771a      	strb	r2, [r3, #28]
    /* Init the low level hardware */
    HAL_CRC_MspInit(hcrc);
 8001d9a:	6878      	ldr	r0, [r7, #4]
 8001d9c:	f7ff faba 	bl	8001314 <HAL_CRC_MspInit>
  }

  hcrc->State = HAL_CRC_STATE_BUSY;
 8001da0:	687b      	ldr	r3, [r7, #4]
 8001da2:	2202      	movs	r2, #2
 8001da4:	775a      	strb	r2, [r3, #29]

  /* check whether or not non-default generating polynomial has been
   * picked up by user */
  assert_param(IS_DEFAULT_POLYNOMIAL(hcrc->Init.DefaultPolynomialUse));
  if (hcrc->Init.DefaultPolynomialUse == DEFAULT_POLYNOMIAL_ENABLE)
 8001da6:	687b      	ldr	r3, [r7, #4]
 8001da8:	791b      	ldrb	r3, [r3, #4]
 8001daa:	2b00      	cmp	r3, #0
 8001dac:	d10c      	bne.n	8001dc8 <HAL_CRC_Init+0x50>
  {
    /* initialize peripheral with default generating polynomial */
    WRITE_REG(hcrc->Instance->POL, DEFAULT_CRC32_POLY);
 8001dae:	687b      	ldr	r3, [r7, #4]
 8001db0:	681b      	ldr	r3, [r3, #0]
 8001db2:	4a22      	ldr	r2, [pc, #136]	@ (8001e3c <HAL_CRC_Init+0xc4>)
 8001db4:	615a      	str	r2, [r3, #20]
    MODIFY_REG(hcrc->Instance->CR, CRC_CR_POLYSIZE, CRC_POLYLENGTH_32B);
 8001db6:	687b      	ldr	r3, [r7, #4]
 8001db8:	681b      	ldr	r3, [r3, #0]
 8001dba:	689a      	ldr	r2, [r3, #8]
 8001dbc:	687b      	ldr	r3, [r7, #4]
 8001dbe:	681b      	ldr	r3, [r3, #0]
 8001dc0:	f022 0218 	bic.w	r2, r2, #24
 8001dc4:	609a      	str	r2, [r3, #8]
 8001dc6:	e00c      	b.n	8001de2 <HAL_CRC_Init+0x6a>
  }
  else
  {
    /* initialize CRC peripheral with generating polynomial defined by user */
    if (HAL_CRCEx_Polynomial_Set(hcrc, hcrc->Init.GeneratingPolynomial, hcrc->Init.CRCLength) != HAL_OK)
 8001dc8:	687b      	ldr	r3, [r7, #4]
 8001dca:	6899      	ldr	r1, [r3, #8]
 8001dcc:	687b      	ldr	r3, [r7, #4]
 8001dce:	68db      	ldr	r3, [r3, #12]
 8001dd0:	461a      	mov	r2, r3
 8001dd2:	6878      	ldr	r0, [r7, #4]
 8001dd4:	f000 f834 	bl	8001e40 <HAL_CRCEx_Polynomial_Set>
 8001dd8:	4603      	mov	r3, r0
 8001dda:	2b00      	cmp	r3, #0
 8001ddc:	d001      	beq.n	8001de2 <HAL_CRC_Init+0x6a>
    {
      return HAL_ERROR;
 8001dde:	2301      	movs	r3, #1
 8001de0:	e028      	b.n	8001e34 <HAL_CRC_Init+0xbc>
  }

  /* check whether or not non-default CRC initial value has been
   * picked up by user */
  assert_param(IS_DEFAULT_INIT_VALUE(hcrc->Init.DefaultInitValueUse));
  if (hcrc->Init.DefaultInitValueUse == DEFAULT_INIT_VALUE_ENABLE)
 8001de2:	687b      	ldr	r3, [r7, #4]
 8001de4:	795b      	ldrb	r3, [r3, #5]
 8001de6:	2b00      	cmp	r3, #0
 8001de8:	d105      	bne.n	8001df6 <HAL_CRC_Init+0x7e>
  {
    WRITE_REG(hcrc->Instance->INIT, DEFAULT_CRC_INITVALUE);
 8001dea:	687b      	ldr	r3, [r7, #4]
 8001dec:	681b      	ldr	r3, [r3, #0]
 8001dee:	f04f 32ff 	mov.w	r2, #4294967295
 8001df2:	611a      	str	r2, [r3, #16]
 8001df4:	e004      	b.n	8001e00 <HAL_CRC_Init+0x88>
  }
  else
  {
    WRITE_REG(hcrc->Instance->INIT, hcrc->Init.InitValue);
 8001df6:	687b      	ldr	r3, [r7, #4]
 8001df8:	681b      	ldr	r3, [r3, #0]
 8001dfa:	687a      	ldr	r2, [r7, #4]
 8001dfc:	6912      	ldr	r2, [r2, #16]
 8001dfe:	611a      	str	r2, [r3, #16]
  }


  /* set input data inversion mode */
  assert_param(IS_CRC_INPUTDATA_INVERSION_MODE(hcrc->Init.InputDataInversionMode));
  MODIFY_REG(hcrc->Instance->CR, CRC_CR_REV_IN, hcrc->Init.InputDataInversionMode);
 8001e00:	687b      	ldr	r3, [r7, #4]
 8001e02:	681b      	ldr	r3, [r3, #0]
 8001e04:	689b      	ldr	r3, [r3, #8]
 8001e06:	f023 0160 	bic.w	r1, r3, #96	@ 0x60
 8001e0a:	687b      	ldr	r3, [r7, #4]
 8001e0c:	695a      	ldr	r2, [r3, #20]
 8001e0e:	687b      	ldr	r3, [r7, #4]
 8001e10:	681b      	ldr	r3, [r3, #0]
 8001e12:	430a      	orrs	r2, r1
 8001e14:	609a      	str	r2, [r3, #8]

  /* set output data inversion mode */
  assert_param(IS_CRC_OUTPUTDATA_INVERSION_MODE(hcrc->Init.OutputDataInversionMode));
  MODIFY_REG(hcrc->Instance->CR, CRC_CR_REV_OUT, hcrc->Init.OutputDataInversionMode);
 8001e16:	687b      	ldr	r3, [r7, #4]
 8001e18:	681b      	ldr	r3, [r3, #0]
 8001e1a:	689b      	ldr	r3, [r3, #8]
 8001e1c:	f023 0180 	bic.w	r1, r3, #128	@ 0x80
 8001e20:	687b      	ldr	r3, [r7, #4]
 8001e22:	699a      	ldr	r2, [r3, #24]
 8001e24:	687b      	ldr	r3, [r7, #4]
 8001e26:	681b      	ldr	r3, [r3, #0]
 8001e28:	430a      	orrs	r2, r1
 8001e2a:	609a      	str	r2, [r3, #8]
  /* makes sure the input data format (bytes, halfwords or words stream)
   * is properly specified by user */
  assert_param(IS_CRC_INPUTDATA_FORMAT(hcrc->InputDataFormat));

  /* Change CRC peripheral state */
  hcrc->State = HAL_CRC_STATE_READY;
 8001e2c:	687b      	ldr	r3, [r7, #4]
 8001e2e:	2201      	movs	r2, #1
 8001e30:	775a      	strb	r2, [r3, #29]

  /* Return function status */
  return HAL_OK;
 8001e32:	2300      	movs	r3, #0
}
 8001e34:	4618      	mov	r0, r3
 8001e36:	3708      	adds	r7, #8
 8001e38:	46bd      	mov	sp, r7
 8001e3a:	bd80      	pop	{r7, pc}
 8001e3c:	04c11db7 	.word	0x04c11db7

08001e40 <HAL_CRCEx_Polynomial_Set>:
  *          @arg @ref CRC_POLYLENGTH_16B 16-bit long CRC (generating polynomial of degree 16)
  *          @arg @ref CRC_POLYLENGTH_32B 32-bit long CRC (generating polynomial of degree 32)
  * @retval HAL status
  */
HAL_StatusTypeDef HAL_CRCEx_Polynomial_Set(CRC_HandleTypeDef *hcrc, uint32_t Pol, uint32_t PolyLength)
{
 8001e40:	b480      	push	{r7}
 8001e42:	b087      	sub	sp, #28
 8001e44:	af00      	add	r7, sp, #0
 8001e46:	60f8      	str	r0, [r7, #12]
 8001e48:	60b9      	str	r1, [r7, #8]
 8001e4a:	607a      	str	r2, [r7, #4]
  HAL_StatusTypeDef status = HAL_OK;
 8001e4c:	2300      	movs	r3, #0
 8001e4e:	75fb      	strb	r3, [r7, #23]
  uint32_t msb = 31U; /* polynomial degree is 32 at most, so msb is initialized to max value */
 8001e50:	231f      	movs	r3, #31
 8001e52:	613b      	str	r3, [r7, #16]
   * definition. HAL_ERROR is reported if Pol degree is
   * larger than that indicated by PolyLength.
   * Look for MSB position: msb will contain the degree of
   *  the second to the largest polynomial member. E.g., for
   *  X^7 + X^6 + X^5 + X^2 + 1, msb = 6. */
  while ((msb-- > 0U) && ((Pol & ((uint32_t)(0x1U) << (msb & 0x1FU))) == 0U))
 8001e54:	bf00      	nop
 8001e56:	693b      	ldr	r3, [r7, #16]
 8001e58:	1e5a      	subs	r2, r3, #1
 8001e5a:	613a      	str	r2, [r7, #16]
 8001e5c:	2b00      	cmp	r3, #0
 8001e5e:	d009      	beq.n	8001e74 <HAL_CRCEx_Polynomial_Set+0x34>
 8001e60:	693b      	ldr	r3, [r7, #16]
 8001e62:	f003 031f 	and.w	r3, r3, #31
 8001e66:	68ba      	ldr	r2, [r7, #8]
 8001e68:	fa22 f303 	lsr.w	r3, r2, r3
 8001e6c:	f003 0301 	and.w	r3, r3, #1
 8001e70:	2b00      	cmp	r3, #0
 8001e72:	d0f0      	beq.n	8001e56 <HAL_CRCEx_Polynomial_Set+0x16>
  {
  }

  switch (PolyLength)
 8001e74:	687b      	ldr	r3, [r7, #4]
 8001e76:	2b18      	cmp	r3, #24
 8001e78:	d846      	bhi.n	8001f08 <HAL_CRCEx_Polynomial_Set+0xc8>
 8001e7a:	a201      	add	r2, pc, #4	@ (adr r2, 8001e80 <HAL_CRCEx_Polynomial_Set+0x40>)
 8001e7c:	f852 f023 	ldr.w	pc, [r2, r3, lsl #2]
 8001e80:	08001f0f 	.word	0x08001f0f
 8001e84:	08001f09 	.word	0x08001f09
 8001e88:	08001f09 	.word	0x08001f09
 8001e8c:	08001f09 	.word	0x08001f09
 8001e90:	08001f09 	.word	0x08001f09
 8001e94:	08001f09 	.word	0x08001f09
 8001e98:	08001f09 	.word	0x08001f09
 8001e9c:	08001f09 	.word	0x08001f09
 8001ea0:	08001efd 	.word	0x08001efd
 8001ea4:	08001f09 	.word	0x08001f09
 8001ea8:	08001f09 	.word	0x08001f09
 8001eac:	08001f09 	.word	0x08001f09
 8001eb0:	08001f09 	.word	0x08001f09
 8001eb4:	08001f09 	.word	0x08001f09
 8001eb8:	08001f09 	.word	0x08001f09
 8001ebc:	08001f09 	.word	0x08001f09
 8001ec0:	08001ef1 	.word	0x08001ef1
 8001ec4:	08001f09 	.word	0x08001f09
 8001ec8:	08001f09 	.word	0x08001f09
 8001ecc:	08001f09 	.word	0x08001f09
 8001ed0:	08001f09 	.word	0x08001f09
 8001ed4:	08001f09 	.word	0x08001f09
 8001ed8:	08001f09 	.word	0x08001f09
 8001edc:	08001f09 	.word	0x08001f09
 8001ee0:	08001ee5 	.word	0x08001ee5
  {
    case CRC_POLYLENGTH_7B:
      if (msb >= HAL_CRC_LENGTH_7B)
 8001ee4:	693b      	ldr	r3, [r7, #16]
 8001ee6:	2b06      	cmp	r3, #6
 8001ee8:	d913      	bls.n	8001f12 <HAL_CRCEx_Polynomial_Set+0xd2>
      {
        status =   HAL_ERROR;
 8001eea:	2301      	movs	r3, #1
 8001eec:	75fb      	strb	r3, [r7, #23]
      }
      break;
 8001eee:	e010      	b.n	8001f12 <HAL_CRCEx_Polynomial_Set+0xd2>
    case CRC_POLYLENGTH_8B:
      if (msb >= HAL_CRC_LENGTH_8B)
 8001ef0:	693b      	ldr	r3, [r7, #16]
 8001ef2:	2b07      	cmp	r3, #7
 8001ef4:	d90f      	bls.n	8001f16 <HAL_CRCEx_Polynomial_Set+0xd6>
      {
        status =   HAL_ERROR;
 8001ef6:	2301      	movs	r3, #1
 8001ef8:	75fb      	strb	r3, [r7, #23]
      }
      break;
 8001efa:	e00c      	b.n	8001f16 <HAL_CRCEx_Polynomial_Set+0xd6>
    case CRC_POLYLENGTH_16B:
      if (msb >= HAL_CRC_LENGTH_16B)
 8001efc:	693b      	ldr	r3, [r7, #16]
 8001efe:	2b0f      	cmp	r3, #15
 8001f00:	d90b      	bls.n	8001f1a <HAL_CRCEx_Polynomial_Set+0xda>
      {
        status =   HAL_ERROR;
 8001f02:	2301      	movs	r3, #1
 8001f04:	75fb      	strb	r3, [r7, #23]
      }
      break;
 8001f06:	e008      	b.n	8001f1a <HAL_CRCEx_Polynomial_Set+0xda>

    case CRC_POLYLENGTH_32B:
      /* no polynomial definition vs. polynomial length issue possible */
      break;
    default:
      status =  HAL_ERROR;
 8001f08:	2301      	movs	r3, #1
 8001f0a:	75fb      	strb	r3, [r7, #23]
      break;
 8001f0c:	e006      	b.n	8001f1c <HAL_CRCEx_Polynomial_Set+0xdc>
      break;
 8001f0e:	bf00      	nop
 8001f10:	e004      	b.n	8001f1c <HAL_CRCEx_Polynomial_Set+0xdc>
      break;
 8001f12:	bf00      	nop
 8001f14:	e002      	b.n	8001f1c <HAL_CRCEx_Polynomial_Set+0xdc>
      break;
 8001f16:	bf00      	nop
 8001f18:	e000      	b.n	8001f1c <HAL_CRCEx_Polynomial_Set+0xdc>
      break;
 8001f1a:	bf00      	nop
  }
  if (status == HAL_OK)
 8001f1c:	7dfb      	ldrb	r3, [r7, #23]
 8001f1e:	2b00      	cmp	r3, #0
 8001f20:	d10d      	bne.n	8001f3e <HAL_CRCEx_Polynomial_Set+0xfe>
  {
    /* set generating polynomial */
    WRITE_REG(hcrc->Instance->POL, Pol);
 8001f22:	68fb      	ldr	r3, [r7, #12]
 8001f24:	681b      	ldr	r3, [r3, #0]
 8001f26:	68ba      	ldr	r2, [r7, #8]
 8001f28:	615a      	str	r2, [r3, #20]

    /* set generating polynomial size */
    MODIFY_REG(hcrc->Instance->CR, CRC_CR_POLYSIZE, PolyLength);
 8001f2a:	68fb      	ldr	r3, [r7, #12]
 8001f2c:	681b      	ldr	r3, [r3, #0]
 8001f2e:	689b      	ldr	r3, [r3, #8]
 8001f30:	f023 0118 	bic.w	r1, r3, #24
 8001f34:	68fb      	ldr	r3, [r7, #12]
 8001f36:	681b      	ldr	r3, [r3, #0]
 8001f38:	687a      	ldr	r2, [r7, #4]
 8001f3a:	430a      	orrs	r2, r1
 8001f3c:	609a      	str	r2, [r3, #8]
  }
  /* Return function status */
  return status;
 8001f3e:	7dfb      	ldrb	r3, [r7, #23]
}
 8001f40:	4618      	mov	r0, r3
 8001f42:	371c      	adds	r7, #28
 8001f44:	46bd      	mov	sp, r7
 8001f46:	f85d 7b04 	ldr.w	r7, [sp], #4
 8001f4a:	4770      	bx	lr

08001f4c <HAL_DMA_Abort>:
  *        and the Stream will be effectively disabled only after the transfer of
  *        this single data is finished.  
  * @retval HAL status
  */
HAL_StatusTypeDef HAL_DMA_Abort(DMA_HandleTypeDef *hdma)
{
 8001f4c:	b580      	push	{r7, lr}
 8001f4e:	b084      	sub	sp, #16
 8001f50:	af00      	add	r7, sp, #0
 8001f52:	6078      	str	r0, [r7, #4]
  /* calculate DMA base and stream number */
  DMA_Base_Registers *regs = (DMA_Base_Registers *)hdma->StreamBaseAddress;
 8001f54:	687b      	ldr	r3, [r7, #4]
 8001f56:	6d9b      	ldr	r3, [r3, #88]	@ 0x58
 8001f58:	60fb      	str	r3, [r7, #12]
  
  uint32_t tickstart = HAL_GetTick();
 8001f5a:	f7ff fb8b 	bl	8001674 <HAL_GetTick>
 8001f5e:	60b8      	str	r0, [r7, #8]
  
  if(hdma->State != HAL_DMA_STATE_BUSY)
 8001f60:	687b      	ldr	r3, [r7, #4]
 8001f62:	f893 3035 	ldrb.w	r3, [r3, #53]	@ 0x35
 8001f66:	b2db      	uxtb	r3, r3
 8001f68:	2b02      	cmp	r3, #2
 8001f6a:	d008      	beq.n	8001f7e <HAL_DMA_Abort+0x32>
  {
    hdma->ErrorCode = HAL_DMA_ERROR_NO_XFER;
 8001f6c:	687b      	ldr	r3, [r7, #4]
 8001f6e:	2280      	movs	r2, #128	@ 0x80
 8001f70:	655a      	str	r2, [r3, #84]	@ 0x54
    
    /* Process Unlocked */
    __HAL_UNLOCK(hdma);
 8001f72:	687b      	ldr	r3, [r7, #4]
 8001f74:	2200      	movs	r2, #0
 8001f76:	f883 2034 	strb.w	r2, [r3, #52]	@ 0x34
    
    return HAL_ERROR;
 8001f7a:	2301      	movs	r3, #1
 8001f7c:	e052      	b.n	8002024 <HAL_DMA_Abort+0xd8>
  }
  else
  {
    /* Disable all the transfer interrupts */
    hdma->Instance->CR  &= ~(DMA_IT_TC | DMA_IT_TE | DMA_IT_DME);
 8001f7e:	687b      	ldr	r3, [r7, #4]
 8001f80:	681b      	ldr	r3, [r3, #0]
 8001f82:	681a      	ldr	r2, [r3, #0]
 8001f84:	687b      	ldr	r3, [r7, #4]
 8001f86:	681b      	ldr	r3, [r3, #0]
 8001f88:	f022 0216 	bic.w	r2, r2, #22
 8001f8c:	601a      	str	r2, [r3, #0]
    hdma->Instance->FCR &= ~(DMA_IT_FE);
 8001f8e:	687b      	ldr	r3, [r7, #4]
 8001f90:	681b      	ldr	r3, [r3, #0]
 8001f92:	695a      	ldr	r2, [r3, #20]
 8001f94:	687b      	ldr	r3, [r7, #4]
 8001f96:	681b      	ldr	r3, [r3, #0]
 8001f98:	f022 0280 	bic.w	r2, r2, #128	@ 0x80
 8001f9c:	615a      	str	r2, [r3, #20]
    
    if((hdma->XferHalfCpltCallback != NULL) || (hdma->XferM1HalfCpltCallback != NULL))
 8001f9e:	687b      	ldr	r3, [r7, #4]
 8001fa0:	6c1b      	ldr	r3, [r3, #64]	@ 0x40
 8001fa2:	2b00      	cmp	r3, #0
 8001fa4:	d103      	bne.n	8001fae <HAL_DMA_Abort+0x62>
 8001fa6:	687b      	ldr	r3, [r7, #4]
 8001fa8:	6c9b      	ldr	r3, [r3, #72]	@ 0x48
 8001faa:	2b00      	cmp	r3, #0
 8001fac:	d007      	beq.n	8001fbe <HAL_DMA_Abort+0x72>
    {
      hdma->Instance->CR  &= ~(DMA_IT_HT);
 8001fae:	687b      	ldr	r3, [r7, #4]
 8001fb0:	681b      	ldr	r3, [r3, #0]
 8001fb2:	681a      	ldr	r2, [r3, #0]
 8001fb4:	687b      	ldr	r3, [r7, #4]
 8001fb6:	681b      	ldr	r3, [r3, #0]
 8001fb8:	f022 0208 	bic.w	r2, r2, #8
 8001fbc:	601a      	str	r2, [r3, #0]
    }
    
    /* Disable the stream */
    __HAL_DMA_DISABLE(hdma);
 8001fbe:	687b      	ldr	r3, [r7, #4]
 8001fc0:	681b      	ldr	r3, [r3, #0]
 8001fc2:	681a      	ldr	r2, [r3, #0]
 8001fc4:	687b      	ldr	r3, [r7, #4]
 8001fc6:	681b      	ldr	r3, [r3, #0]
 8001fc8:	f022 0201 	bic.w	r2, r2, #1
 8001fcc:	601a      	str	r2, [r3, #0]
    
    /* Check if the DMA Stream is effectively disabled */
    while((hdma->Instance->CR & DMA_SxCR_EN) != RESET)
 8001fce:	e013      	b.n	8001ff8 <HAL_DMA_Abort+0xac>
    {
      /* Check for the Timeout */
      if((HAL_GetTick() - tickstart ) > HAL_TIMEOUT_DMA_ABORT)
 8001fd0:	f7ff fb50 	bl	8001674 <HAL_GetTick>
 8001fd4:	4602      	mov	r2, r0
 8001fd6:	68bb      	ldr	r3, [r7, #8]
 8001fd8:	1ad3      	subs	r3, r2, r3
 8001fda:	2b05      	cmp	r3, #5
 8001fdc:	d90c      	bls.n	8001ff8 <HAL_DMA_Abort+0xac>
      {
        /* Update error code */
        hdma->ErrorCode = HAL_DMA_ERROR_TIMEOUT;
 8001fde:	687b      	ldr	r3, [r7, #4]
 8001fe0:	2220      	movs	r2, #32
 8001fe2:	655a      	str	r2, [r3, #84]	@ 0x54
        
        /* Change the DMA state */
        hdma->State = HAL_DMA_STATE_TIMEOUT;
 8001fe4:	687b      	ldr	r3, [r7, #4]
 8001fe6:	2203      	movs	r2, #3
 8001fe8:	f883 2035 	strb.w	r2, [r3, #53]	@ 0x35
        
        /* Process Unlocked */
        __HAL_UNLOCK(hdma);
 8001fec:	687b      	ldr	r3, [r7, #4]
 8001fee:	2200      	movs	r2, #0
 8001ff0:	f883 2034 	strb.w	r2, [r3, #52]	@ 0x34

        return HAL_TIMEOUT;
 8001ff4:	2303      	movs	r3, #3
 8001ff6:	e015      	b.n	8002024 <HAL_DMA_Abort+0xd8>
    while((hdma->Instance->CR & DMA_SxCR_EN) != RESET)
 8001ff8:	687b      	ldr	r3, [r7, #4]
 8001ffa:	681b      	ldr	r3, [r3, #0]
 8001ffc:	681b      	ldr	r3, [r3, #0]
 8001ffe:	f003 0301 	and.w	r3, r3, #1
 8002002:	2b00      	cmp	r3, #0
 8002004:	d1e4      	bne.n	8001fd0 <HAL_DMA_Abort+0x84>
      }
    }
    
    /* Clear all interrupt flags at correct offset within the register */
    regs->IFCR = 0x3FU << hdma->StreamIndex;
 8002006:	687b      	ldr	r3, [r7, #4]
 8002008:	6ddb      	ldr	r3, [r3, #92]	@ 0x5c
 800200a:	223f      	movs	r2, #63	@ 0x3f
 800200c:	409a      	lsls	r2, r3
 800200e:	68fb      	ldr	r3, [r7, #12]
 8002010:	609a      	str	r2, [r3, #8]
    
    /* Change the DMA state*/
    hdma->State = HAL_DMA_STATE_READY;
 8002012:	687b      	ldr	r3, [r7, #4]
 8002014:	2201      	movs	r2, #1
 8002016:	f883 2035 	strb.w	r2, [r3, #53]	@ 0x35
    
    /* Process Unlocked */
    __HAL_UNLOCK(hdma);
 800201a:	687b      	ldr	r3, [r7, #4]
 800201c:	2200      	movs	r2, #0
 800201e:	f883 2034 	strb.w	r2, [r3, #52]	@ 0x34
    
  }
  return HAL_OK;
 8002022:	2300      	movs	r3, #0
}
 8002024:	4618      	mov	r0, r3
 8002026:	3710      	adds	r7, #16
 8002028:	46bd      	mov	sp, r7
 800202a:	bd80      	pop	{r7, pc}

0800202c <HAL_DMA_Abort_IT>:
  * @param  hdma   pointer to a DMA_HandleTypeDef structure that contains
  *                 the configuration information for the specified DMA Stream.
  * @retval HAL status
  */
HAL_StatusTypeDef HAL_DMA_Abort_IT(DMA_HandleTypeDef *hdma)
{
 800202c:	b480      	push	{r7}
 800202e:	b083      	sub	sp, #12
 8002030:	af00      	add	r7, sp, #0
 8002032:	6078      	str	r0, [r7, #4]
  if(hdma->State != HAL_DMA_STATE_BUSY)
 8002034:	687b      	ldr	r3, [r7, #4]
 8002036:	f893 3035 	ldrb.w	r3, [r3, #53]	@ 0x35
 800203a:	b2db      	uxtb	r3, r3
 800203c:	2b02      	cmp	r3, #2
 800203e:	d004      	beq.n	800204a <HAL_DMA_Abort_IT+0x1e>
  {
    hdma->ErrorCode = HAL_DMA_ERROR_NO_XFER;
 8002040:	687b      	ldr	r3, [r7, #4]
 8002042:	2280      	movs	r2, #128	@ 0x80
 8002044:	655a      	str	r2, [r3, #84]	@ 0x54
    return HAL_ERROR;
 8002046:	2301      	movs	r3, #1
 8002048:	e00c      	b.n	8002064 <HAL_DMA_Abort_IT+0x38>
  }
  else
  {
    /* Set Abort State  */
    hdma->State = HAL_DMA_STATE_ABORT;
 800204a:	687b      	ldr	r3, [r7, #4]
 800204c:	2205      	movs	r2, #5
 800204e:	f883 2035 	strb.w	r2, [r3, #53]	@ 0x35
    
    /* Disable the stream */
    __HAL_DMA_DISABLE(hdma);
 8002052:	687b      	ldr	r3, [r7, #4]
 8002054:	681b      	ldr	r3, [r3, #0]
 8002056:	681a      	ldr	r2, [r3, #0]
 8002058:	687b      	ldr	r3, [r7, #4]
 800205a:	681b      	ldr	r3, [r3, #0]
 800205c:	f022 0201 	bic.w	r2, r2, #1
 8002060:	601a      	str	r2, [r3, #0]
  }

  return HAL_OK;
 8002062:	2300      	movs	r3, #0
}
 8002064:	4618      	mov	r0, r3
 8002066:	370c      	adds	r7, #12
 8002068:	46bd      	mov	sp, r7
 800206a:	f85d 7b04 	ldr.w	r7, [sp], #4
 800206e:	4770      	bx	lr

08002070 <HAL_GPIO_Init>:
  * @param  GPIO_Init pointer to a GPIO_InitTypeDef structure that contains
  *         the configuration information for the specified GPIO peripheral.
  * @retval None
  */
void HAL_GPIO_Init(GPIO_TypeDef  *GPIOx, GPIO_InitTypeDef *GPIO_Init)
{
 8002070:	b480      	push	{r7}
 8002072:	b089      	sub	sp, #36	@ 0x24
 8002074:	af00      	add	r7, sp, #0
 8002076:	6078      	str	r0, [r7, #4]
 8002078:	6039      	str	r1, [r7, #0]
  uint32_t position = 0x00;
 800207a:	2300      	movs	r3, #0
 800207c:	61fb      	str	r3, [r7, #28]
  uint32_t ioposition = 0x00;
 800207e:	2300      	movs	r3, #0
 8002080:	617b      	str	r3, [r7, #20]
  uint32_t iocurrent = 0x00;
 8002082:	2300      	movs	r3, #0
 8002084:	613b      	str	r3, [r7, #16]
  uint32_t temp = 0x00;
 8002086:	2300      	movs	r3, #0
 8002088:	61bb      	str	r3, [r7, #24]
  assert_param(IS_GPIO_ALL_INSTANCE(GPIOx));
  assert_param(IS_GPIO_PIN(GPIO_Init->Pin));
  assert_param(IS_GPIO_MODE(GPIO_Init->Mode));

  /* Configure the port pins */
  for(position = 0; position < GPIO_NUMBER; position++)
 800208a:	2300      	movs	r3, #0
 800208c:	61fb      	str	r3, [r7, #28]
 800208e:	e175      	b.n	800237c <HAL_GPIO_Init+0x30c>
  {
    /* Get the IO position */
    ioposition = ((uint32_t)0x01) << position;
 8002090:	2201      	movs	r2, #1
 8002092:	69fb      	ldr	r3, [r7, #28]
 8002094:	fa02 f303 	lsl.w	r3, r2, r3
 8002098:	617b      	str	r3, [r7, #20]
    /* Get the current IO position */
    iocurrent = (uint32_t)(GPIO_Init->Pin) & ioposition;
 800209a:	683b      	ldr	r3, [r7, #0]
 800209c:	681b      	ldr	r3, [r3, #0]
 800209e:	697a      	ldr	r2, [r7, #20]
 80020a0:	4013      	ands	r3, r2
 80020a2:	613b      	str	r3, [r7, #16]

    if(iocurrent == ioposition)
 80020a4:	693a      	ldr	r2, [r7, #16]
 80020a6:	697b      	ldr	r3, [r7, #20]
 80020a8:	429a      	cmp	r2, r3
 80020aa:	f040 8164 	bne.w	8002376 <HAL_GPIO_Init+0x306>
    {
      /*--------------------- GPIO Mode Configuration ------------------------*/
      /* In case of Output or Alternate function mode selection */
      if(((GPIO_Init->Mode & GPIO_MODE) == MODE_OUTPUT) || ((GPIO_Init->Mode & GPIO_MODE) == MODE_AF))
 80020ae:	683b      	ldr	r3, [r7, #0]
 80020b0:	685b      	ldr	r3, [r3, #4]
 80020b2:	f003 0303 	and.w	r3, r3, #3
 80020b6:	2b01      	cmp	r3, #1
 80020b8:	d005      	beq.n	80020c6 <HAL_GPIO_Init+0x56>
 80020ba:	683b      	ldr	r3, [r7, #0]
 80020bc:	685b      	ldr	r3, [r3, #4]
 80020be:	f003 0303 	and.w	r3, r3, #3
 80020c2:	2b02      	cmp	r3, #2
 80020c4:	d130      	bne.n	8002128 <HAL_GPIO_Init+0xb8>
      {
        /* Check the Speed parameter */
        assert_param(IS_GPIO_SPEED(GPIO_Init->Speed));
        /* Configure the IO Speed */
        temp = GPIOx->OSPEEDR; 
 80020c6:	687b      	ldr	r3, [r7, #4]
 80020c8:	689b      	ldr	r3, [r3, #8]
 80020ca:	61bb      	str	r3, [r7, #24]
        temp &= ~(GPIO_OSPEEDER_OSPEEDR0 << (position * 2));
 80020cc:	69fb      	ldr	r3, [r7, #28]
 80020ce:	005b      	lsls	r3, r3, #1
 80020d0:	2203      	movs	r2, #3
 80020d2:	fa02 f303 	lsl.w	r3, r2, r3
 80020d6:	43db      	mvns	r3, r3
 80020d8:	69ba      	ldr	r2, [r7, #24]
 80020da:	4013      	ands	r3, r2
 80020dc:	61bb      	str	r3, [r7, #24]
        temp |= (GPIO_Init->Speed << (position * 2));
 80020de:	683b      	ldr	r3, [r7, #0]
 80020e0:	68da      	ldr	r2, [r3, #12]
 80020e2:	69fb      	ldr	r3, [r7, #28]
 80020e4:	005b      	lsls	r3, r3, #1
 80020e6:	fa02 f303 	lsl.w	r3, r2, r3
 80020ea:	69ba      	ldr	r2, [r7, #24]
 80020ec:	4313      	orrs	r3, r2
 80020ee:	61bb      	str	r3, [r7, #24]
        GPIOx->OSPEEDR = temp;
 80020f0:	687b      	ldr	r3, [r7, #4]
 80020f2:	69ba      	ldr	r2, [r7, #24]
 80020f4:	609a      	str	r2, [r3, #8]

        /* Configure the IO Output Type */
        temp = GPIOx->OTYPER;
 80020f6:	687b      	ldr	r3, [r7, #4]
 80020f8:	685b      	ldr	r3, [r3, #4]
 80020fa:	61bb      	str	r3, [r7, #24]
        temp &= ~(GPIO_OTYPER_OT_0 << position) ;
 80020fc:	2201      	movs	r2, #1
 80020fe:	69fb      	ldr	r3, [r7, #28]
 8002100:	fa02 f303 	lsl.w	r3, r2, r3
 8002104:	43db      	mvns	r3, r3
 8002106:	69ba      	ldr	r2, [r7, #24]
 8002108:	4013      	ands	r3, r2
 800210a:	61bb      	str	r3, [r7, #24]
        temp |= (((GPIO_Init->Mode & OUTPUT_TYPE) >> OUTPUT_TYPE_Pos) << position);
 800210c:	683b      	ldr	r3, [r7, #0]
 800210e:	685b      	ldr	r3, [r3, #4]
 8002110:	091b      	lsrs	r3, r3, #4
 8002112:	f003 0201 	and.w	r2, r3, #1
 8002116:	69fb      	ldr	r3, [r7, #28]
 8002118:	fa02 f303 	lsl.w	r3, r2, r3
 800211c:	69ba      	ldr	r2, [r7, #24]
 800211e:	4313      	orrs	r3, r2
 8002120:	61bb      	str	r3, [r7, #24]
        GPIOx->OTYPER = temp;
 8002122:	687b      	ldr	r3, [r7, #4]
 8002124:	69ba      	ldr	r2, [r7, #24]
 8002126:	605a      	str	r2, [r3, #4]
      }
      
      if((GPIO_Init->Mode & GPIO_MODE) != MODE_ANALOG)
 8002128:	683b      	ldr	r3, [r7, #0]
 800212a:	685b      	ldr	r3, [r3, #4]
 800212c:	f003 0303 	and.w	r3, r3, #3
 8002130:	2b03      	cmp	r3, #3
 8002132:	d017      	beq.n	8002164 <HAL_GPIO_Init+0xf4>
      {
        /* Check the Pull parameter */
        assert_param(IS_GPIO_PULL(GPIO_Init->Pull));

        /* Activate the Pull-up or Pull down resistor for the current IO */
        temp = GPIOx->PUPDR;
 8002134:	687b      	ldr	r3, [r7, #4]
 8002136:	68db      	ldr	r3, [r3, #12]
 8002138:	61bb      	str	r3, [r7, #24]
        temp &= ~(GPIO_PUPDR_PUPDR0 << (position * 2));
 800213a:	69fb      	ldr	r3, [r7, #28]
 800213c:	005b      	lsls	r3, r3, #1
 800213e:	2203      	movs	r2, #3
 8002140:	fa02 f303 	lsl.w	r3, r2, r3
 8002144:	43db      	mvns	r3, r3
 8002146:	69ba      	ldr	r2, [r7, #24]
 8002148:	4013      	ands	r3, r2
 800214a:	61bb      	str	r3, [r7, #24]
        temp |= ((GPIO_Init->Pull) << (position * 2));
 800214c:	683b      	ldr	r3, [r7, #0]
 800214e:	689a      	ldr	r2, [r3, #8]
 8002150:	69fb      	ldr	r3, [r7, #28]
 8002152:	005b      	lsls	r3, r3, #1
 8002154:	fa02 f303 	lsl.w	r3, r2, r3
 8002158:	69ba      	ldr	r2, [r7, #24]
 800215a:	4313      	orrs	r3, r2
 800215c:	61bb      	str	r3, [r7, #24]
        GPIOx->PUPDR = temp;
 800215e:	687b      	ldr	r3, [r7, #4]
 8002160:	69ba      	ldr	r2, [r7, #24]
 8002162:	60da      	str	r2, [r3, #12]
      }

      /* In case of Alternate function mode selection */
      if((GPIO_Init->Mode & GPIO_MODE) == MODE_AF)
 8002164:	683b      	ldr	r3, [r7, #0]
 8002166:	685b      	ldr	r3, [r3, #4]
 8002168:	f003 0303 	and.w	r3, r3, #3
 800216c:	2b02      	cmp	r3, #2
 800216e:	d123      	bne.n	80021b8 <HAL_GPIO_Init+0x148>
      {
        /* Check the Alternate function parameter */
        assert_param(IS_GPIO_AF(GPIO_Init->Alternate));

        /* Configure Alternate function mapped with the current IO */
        temp = GPIOx->AFR[position >> 3];
 8002170:	69fb      	ldr	r3, [r7, #28]
 8002172:	08da      	lsrs	r2, r3, #3
 8002174:	687b      	ldr	r3, [r7, #4]
 8002176:	3208      	adds	r2, #8
 8002178:	f853 3022 	ldr.w	r3, [r3, r2, lsl #2]
 800217c:	61bb      	str	r3, [r7, #24]
        temp &= ~((uint32_t)0xF << ((uint32_t)(position & (uint32_t)0x07) * 4)) ;
 800217e:	69fb      	ldr	r3, [r7, #28]
 8002180:	f003 0307 	and.w	r3, r3, #7
 8002184:	009b      	lsls	r3, r3, #2
 8002186:	220f      	movs	r2, #15
 8002188:	fa02 f303 	lsl.w	r3, r2, r3
 800218c:	43db      	mvns	r3, r3
 800218e:	69ba      	ldr	r2, [r7, #24]
 8002190:	4013      	ands	r3, r2
 8002192:	61bb      	str	r3, [r7, #24]
        temp |= ((uint32_t)(GPIO_Init->Alternate) << (((uint32_t)position & (uint32_t)0x07) * 4));
 8002194:	683b      	ldr	r3, [r7, #0]
 8002196:	691a      	ldr	r2, [r3, #16]
 8002198:	69fb      	ldr	r3, [r7, #28]
 800219a:	f003 0307 	and.w	r3, r3, #7
 800219e:	009b      	lsls	r3, r3, #2
 80021a0:	fa02 f303 	lsl.w	r3, r2, r3
 80021a4:	69ba      	ldr	r2, [r7, #24]
 80021a6:	4313      	orrs	r3, r2
 80021a8:	61bb      	str	r3, [r7, #24]
        GPIOx->AFR[position >> 3] = temp;
 80021aa:	69fb      	ldr	r3, [r7, #28]
 80021ac:	08da      	lsrs	r2, r3, #3
 80021ae:	687b      	ldr	r3, [r7, #4]
 80021b0:	3208      	adds	r2, #8
 80021b2:	69b9      	ldr	r1, [r7, #24]
 80021b4:	f843 1022 	str.w	r1, [r3, r2, lsl #2]
      }
      
      /* Configure IO Direction mode (Input, Output, Alternate or Analog) */
      temp = GPIOx->MODER;
 80021b8:	687b      	ldr	r3, [r7, #4]
 80021ba:	681b      	ldr	r3, [r3, #0]
 80021bc:	61bb      	str	r3, [r7, #24]
      temp &= ~(GPIO_MODER_MODER0 << (position * 2));
 80021be:	69fb      	ldr	r3, [r7, #28]
 80021c0:	005b      	lsls	r3, r3, #1
 80021c2:	2203      	movs	r2, #3
 80021c4:	fa02 f303 	lsl.w	r3, r2, r3
 80021c8:	43db      	mvns	r3, r3
 80021ca:	69ba      	ldr	r2, [r7, #24]
 80021cc:	4013      	ands	r3, r2
 80021ce:	61bb      	str	r3, [r7, #24]
      temp |= ((GPIO_Init->Mode & GPIO_MODE) << (position * 2));
 80021d0:	683b      	ldr	r3, [r7, #0]
 80021d2:	685b      	ldr	r3, [r3, #4]
 80021d4:	f003 0203 	and.w	r2, r3, #3
 80021d8:	69fb      	ldr	r3, [r7, #28]
 80021da:	005b      	lsls	r3, r3, #1
 80021dc:	fa02 f303 	lsl.w	r3, r2, r3
 80021e0:	69ba      	ldr	r2, [r7, #24]
 80021e2:	4313      	orrs	r3, r2
 80021e4:	61bb      	str	r3, [r7, #24]
      GPIOx->MODER = temp;
 80021e6:	687b      	ldr	r3, [r7, #4]
 80021e8:	69ba      	ldr	r2, [r7, #24]
 80021ea:	601a      	str	r2, [r3, #0]

      /*--------------------- EXTI Mode Configuration ------------------------*/
      /* Configure the External Interrupt or event for the current IO */
      if((GPIO_Init->Mode & EXTI_MODE) != 0x00u)
 80021ec:	683b      	ldr	r3, [r7, #0]
 80021ee:	685b      	ldr	r3, [r3, #4]
 80021f0:	f403 3340 	and.w	r3, r3, #196608	@ 0x30000
 80021f4:	2b00      	cmp	r3, #0
 80021f6:	f000 80be 	beq.w	8002376 <HAL_GPIO_Init+0x306>
      {
        /* Enable SYSCFG Clock */
        __HAL_RCC_SYSCFG_CLK_ENABLE();
 80021fa:	4b66      	ldr	r3, [pc, #408]	@ (8002394 <HAL_GPIO_Init+0x324>)
 80021fc:	6c5b      	ldr	r3, [r3, #68]	@ 0x44
 80021fe:	4a65      	ldr	r2, [pc, #404]	@ (8002394 <HAL_GPIO_Init+0x324>)
 8002200:	f443 4380 	orr.w	r3, r3, #16384	@ 0x4000
 8002204:	6453      	str	r3, [r2, #68]	@ 0x44
 8002206:	4b63      	ldr	r3, [pc, #396]	@ (8002394 <HAL_GPIO_Init+0x324>)
 8002208:	6c5b      	ldr	r3, [r3, #68]	@ 0x44
 800220a:	f403 4380 	and.w	r3, r3, #16384	@ 0x4000
 800220e:	60fb      	str	r3, [r7, #12]
 8002210:	68fb      	ldr	r3, [r7, #12]

        temp = SYSCFG->EXTICR[position >> 2];
 8002212:	4a61      	ldr	r2, [pc, #388]	@ (8002398 <HAL_GPIO_Init+0x328>)
 8002214:	69fb      	ldr	r3, [r7, #28]
 8002216:	089b      	lsrs	r3, r3, #2
 8002218:	3302      	adds	r3, #2
 800221a:	f852 3023 	ldr.w	r3, [r2, r3, lsl #2]
 800221e:	61bb      	str	r3, [r7, #24]
        temp &= ~(((uint32_t)0x0F) << (4 * (position & 0x03)));
 8002220:	69fb      	ldr	r3, [r7, #28]
 8002222:	f003 0303 	and.w	r3, r3, #3
 8002226:	009b      	lsls	r3, r3, #2
 8002228:	220f      	movs	r2, #15
 800222a:	fa02 f303 	lsl.w	r3, r2, r3
 800222e:	43db      	mvns	r3, r3
 8002230:	69ba      	ldr	r2, [r7, #24]
 8002232:	4013      	ands	r3, r2
 8002234:	61bb      	str	r3, [r7, #24]
        temp |= ((uint32_t)(GPIO_GET_INDEX(GPIOx)) << (4 * (position & 0x03)));
 8002236:	687b      	ldr	r3, [r7, #4]
 8002238:	4a58      	ldr	r2, [pc, #352]	@ (800239c <HAL_GPIO_Init+0x32c>)
 800223a:	4293      	cmp	r3, r2
 800223c:	d037      	beq.n	80022ae <HAL_GPIO_Init+0x23e>
 800223e:	687b      	ldr	r3, [r7, #4]
 8002240:	4a57      	ldr	r2, [pc, #348]	@ (80023a0 <HAL_GPIO_Init+0x330>)
 8002242:	4293      	cmp	r3, r2
 8002244:	d031      	beq.n	80022aa <HAL_GPIO_Init+0x23a>
 8002246:	687b      	ldr	r3, [r7, #4]
 8002248:	4a56      	ldr	r2, [pc, #344]	@ (80023a4 <HAL_GPIO_Init+0x334>)
 800224a:	4293      	cmp	r3, r2
 800224c:	d02b      	beq.n	80022a6 <HAL_GPIO_Init+0x236>
 800224e:	687b      	ldr	r3, [r7, #4]
 8002250:	4a55      	ldr	r2, [pc, #340]	@ (80023a8 <HAL_GPIO_Init+0x338>)
 8002252:	4293      	cmp	r3, r2
 8002254:	d025      	beq.n	80022a2 <HAL_GPIO_Init+0x232>
 8002256:	687b      	ldr	r3, [r7, #4]
 8002258:	4a54      	ldr	r2, [pc, #336]	@ (80023ac <HAL_GPIO_Init+0x33c>)
 800225a:	4293      	cmp	r3, r2
 800225c:	d01f      	beq.n	800229e <HAL_GPIO_Init+0x22e>
 800225e:	687b      	ldr	r3, [r7, #4]
 8002260:	4a53      	ldr	r2, [pc, #332]	@ (80023b0 <HAL_GPIO_Init+0x340>)
 8002262:	4293      	cmp	r3, r2
 8002264:	d019      	beq.n	800229a <HAL_GPIO_Init+0x22a>
 8002266:	687b      	ldr	r3, [r7, #4]
 8002268:	4a52      	ldr	r2, [pc, #328]	@ (80023b4 <HAL_GPIO_Init+0x344>)
 800226a:	4293      	cmp	r3, r2
 800226c:	d013      	beq.n	8002296 <HAL_GPIO_Init+0x226>
 800226e:	687b      	ldr	r3, [r7, #4]
 8002270:	4a51      	ldr	r2, [pc, #324]	@ (80023b8 <HAL_GPIO_Init+0x348>)
 8002272:	4293      	cmp	r3, r2
 8002274:	d00d      	beq.n	8002292 <HAL_GPIO_Init+0x222>
 8002276:	687b      	ldr	r3, [r7, #4]
 8002278:	4a50      	ldr	r2, [pc, #320]	@ (80023bc <HAL_GPIO_Init+0x34c>)
 800227a:	4293      	cmp	r3, r2
 800227c:	d007      	beq.n	800228e <HAL_GPIO_Init+0x21e>
 800227e:	687b      	ldr	r3, [r7, #4]
 8002280:	4a4f      	ldr	r2, [pc, #316]	@ (80023c0 <HAL_GPIO_Init+0x350>)
 8002282:	4293      	cmp	r3, r2
 8002284:	d101      	bne.n	800228a <HAL_GPIO_Init+0x21a>
 8002286:	2309      	movs	r3, #9
 8002288:	e012      	b.n	80022b0 <HAL_GPIO_Init+0x240>
 800228a:	230a      	movs	r3, #10
 800228c:	e010      	b.n	80022b0 <HAL_GPIO_Init+0x240>
 800228e:	2308      	movs	r3, #8
 8002290:	e00e      	b.n	80022b0 <HAL_GPIO_Init+0x240>
 8002292:	2307      	movs	r3, #7
 8002294:	e00c      	b.n	80022b0 <HAL_GPIO_Init+0x240>
 8002296:	2306      	movs	r3, #6
 8002298:	e00a      	b.n	80022b0 <HAL_GPIO_Init+0x240>
 800229a:	2305      	movs	r3, #5
 800229c:	e008      	b.n	80022b0 <HAL_GPIO_Init+0x240>
 800229e:	2304      	movs	r3, #4
 80022a0:	e006      	b.n	80022b0 <HAL_GPIO_Init+0x240>
 80022a2:	2303      	movs	r3, #3
 80022a4:	e004      	b.n	80022b0 <HAL_GPIO_Init+0x240>
 80022a6:	2302      	movs	r3, #2
 80022a8:	e002      	b.n	80022b0 <HAL_GPIO_Init+0x240>
 80022aa:	2301      	movs	r3, #1
 80022ac:	e000      	b.n	80022b0 <HAL_GPIO_Init+0x240>
 80022ae:	2300      	movs	r3, #0
 80022b0:	69fa      	ldr	r2, [r7, #28]
 80022b2:	f002 0203 	and.w	r2, r2, #3
 80022b6:	0092      	lsls	r2, r2, #2
 80022b8:	4093      	lsls	r3, r2
 80022ba:	69ba      	ldr	r2, [r7, #24]
 80022bc:	4313      	orrs	r3, r2
 80022be:	61bb      	str	r3, [r7, #24]
        SYSCFG->EXTICR[position >> 2] = temp;
 80022c0:	4935      	ldr	r1, [pc, #212]	@ (8002398 <HAL_GPIO_Init+0x328>)
 80022c2:	69fb      	ldr	r3, [r7, #28]
 80022c4:	089b      	lsrs	r3, r3, #2
 80022c6:	3302      	adds	r3, #2
 80022c8:	69ba      	ldr	r2, [r7, #24]
 80022ca:	f841 2023 	str.w	r2, [r1, r3, lsl #2]

        /* Clear Rising Falling edge configuration */
        temp = EXTI->RTSR;
 80022ce:	4b3d      	ldr	r3, [pc, #244]	@ (80023c4 <HAL_GPIO_Init+0x354>)
 80022d0:	689b      	ldr	r3, [r3, #8]
 80022d2:	61bb      	str	r3, [r7, #24]
        temp &= ~((uint32_t)iocurrent);
 80022d4:	693b      	ldr	r3, [r7, #16]
 80022d6:	43db      	mvns	r3, r3
 80022d8:	69ba      	ldr	r2, [r7, #24]
 80022da:	4013      	ands	r3, r2
 80022dc:	61bb      	str	r3, [r7, #24]
        if((GPIO_Init->Mode & TRIGGER_RISING) != 0x00u)
 80022de:	683b      	ldr	r3, [r7, #0]
 80022e0:	685b      	ldr	r3, [r3, #4]
 80022e2:	f403 1380 	and.w	r3, r3, #1048576	@ 0x100000
 80022e6:	2b00      	cmp	r3, #0
 80022e8:	d003      	beq.n	80022f2 <HAL_GPIO_Init+0x282>
        {
          temp |= iocurrent;
 80022ea:	69ba      	ldr	r2, [r7, #24]
 80022ec:	693b      	ldr	r3, [r7, #16]
 80022ee:	4313      	orrs	r3, r2
 80022f0:	61bb      	str	r3, [r7, #24]
        }
        EXTI->RTSR = temp;
 80022f2:	4a34      	ldr	r2, [pc, #208]	@ (80023c4 <HAL_GPIO_Init+0x354>)
 80022f4:	69bb      	ldr	r3, [r7, #24]
 80022f6:	6093      	str	r3, [r2, #8]

        temp = EXTI->FTSR;
 80022f8:	4b32      	ldr	r3, [pc, #200]	@ (80023c4 <HAL_GPIO_Init+0x354>)
 80022fa:	68db      	ldr	r3, [r3, #12]
 80022fc:	61bb      	str	r3, [r7, #24]
        temp &= ~((uint32_t)iocurrent);
 80022fe:	693b      	ldr	r3, [r7, #16]
 8002300:	43db      	mvns	r3, r3
 8002302:	69ba      	ldr	r2, [r7, #24]
 8002304:	4013      	ands	r3, r2
 8002306:	61bb      	str	r3, [r7, #24]
        if((GPIO_Init->Mode & TRIGGER_FALLING) != 0x00u)
 8002308:	683b      	ldr	r3, [r7, #0]
 800230a:	685b      	ldr	r3, [r3, #4]
 800230c:	f403 1300 	and.w	r3, r3, #2097152	@ 0x200000
 8002310:	2b00      	cmp	r3, #0
 8002312:	d003      	beq.n	800231c <HAL_GPIO_Init+0x2ac>
        {
          temp |= iocurrent;
 8002314:	69ba      	ldr	r2, [r7, #24]
 8002316:	693b      	ldr	r3, [r7, #16]
 8002318:	4313      	orrs	r3, r2
 800231a:	61bb      	str	r3, [r7, #24]
        }
        EXTI->FTSR = temp;
 800231c:	4a29      	ldr	r2, [pc, #164]	@ (80023c4 <HAL_GPIO_Init+0x354>)
 800231e:	69bb      	ldr	r3, [r7, #24]
 8002320:	60d3      	str	r3, [r2, #12]

        temp = EXTI->EMR;
 8002322:	4b28      	ldr	r3, [pc, #160]	@ (80023c4 <HAL_GPIO_Init+0x354>)
 8002324:	685b      	ldr	r3, [r3, #4]
 8002326:	61bb      	str	r3, [r7, #24]
        temp &= ~((uint32_t)iocurrent);
 8002328:	693b      	ldr	r3, [r7, #16]
 800232a:	43db      	mvns	r3, r3
 800232c:	69ba      	ldr	r2, [r7, #24]
 800232e:	4013      	ands	r3, r2
 8002330:	61bb      	str	r3, [r7, #24]
        if((GPIO_Init->Mode & EXTI_EVT) != 0x00u)
 8002332:	683b      	ldr	r3, [r7, #0]
 8002334:	685b      	ldr	r3, [r3, #4]
 8002336:	f403 3300 	and.w	r3, r3, #131072	@ 0x20000
 800233a:	2b00      	cmp	r3, #0
 800233c:	d003      	beq.n	8002346 <HAL_GPIO_Init+0x2d6>
        {
          temp |= iocurrent;
 800233e:	69ba      	ldr	r2, [r7, #24]
 8002340:	693b      	ldr	r3, [r7, #16]
 8002342:	4313      	orrs	r3, r2
 8002344:	61bb      	str	r3, [r7, #24]
        }
        EXTI->EMR = temp;
 8002346:	4a1f      	ldr	r2, [pc, #124]	@ (80023c4 <HAL_GPIO_Init+0x354>)
 8002348:	69bb      	ldr	r3, [r7, #24]
 800234a:	6053      	str	r3, [r2, #4]

        /* Clear EXTI line configuration */
        temp = EXTI->IMR;
 800234c:	4b1d      	ldr	r3, [pc, #116]	@ (80023c4 <HAL_GPIO_Init+0x354>)
 800234e:	681b      	ldr	r3, [r3, #0]
 8002350:	61bb      	str	r3, [r7, #24]
        temp &= ~((uint32_t)iocurrent);
 8002352:	693b      	ldr	r3, [r7, #16]
 8002354:	43db      	mvns	r3, r3
 8002356:	69ba      	ldr	r2, [r7, #24]
 8002358:	4013      	ands	r3, r2
 800235a:	61bb      	str	r3, [r7, #24]
        if((GPIO_Init->Mode & EXTI_IT) != 0x00u)
 800235c:	683b      	ldr	r3, [r7, #0]
 800235e:	685b      	ldr	r3, [r3, #4]
 8002360:	f403 3380 	and.w	r3, r3, #65536	@ 0x10000
 8002364:	2b00      	cmp	r3, #0
 8002366:	d003      	beq.n	8002370 <HAL_GPIO_Init+0x300>
        {
          temp |= iocurrent;
 8002368:	69ba      	ldr	r2, [r7, #24]
 800236a:	693b      	ldr	r3, [r7, #16]
 800236c:	4313      	orrs	r3, r2
 800236e:	61bb      	str	r3, [r7, #24]
        }
        EXTI->IMR = temp;
 8002370:	4a14      	ldr	r2, [pc, #80]	@ (80023c4 <HAL_GPIO_Init+0x354>)
 8002372:	69bb      	ldr	r3, [r7, #24]
 8002374:	6013      	str	r3, [r2, #0]
  for(position = 0; position < GPIO_NUMBER; position++)
 8002376:	69fb      	ldr	r3, [r7, #28]
 8002378:	3301      	adds	r3, #1
 800237a:	61fb      	str	r3, [r7, #28]
 800237c:	69fb      	ldr	r3, [r7, #28]
 800237e:	2b0f      	cmp	r3, #15
 8002380:	f67f ae86 	bls.w	8002090 <HAL_GPIO_Init+0x20>
      }
    }
  }
}
 8002384:	bf00      	nop
 8002386:	bf00      	nop
 8002388:	3724      	adds	r7, #36	@ 0x24
 800238a:	46bd      	mov	sp, r7
 800238c:	f85d 7b04 	ldr.w	r7, [sp], #4
 8002390:	4770      	bx	lr
 8002392:	bf00      	nop
 8002394:	40023800 	.word	0x40023800
 8002398:	40013800 	.word	0x40013800
 800239c:	40020000 	.word	0x40020000
 80023a0:	40020400 	.word	0x40020400
 80023a4:	40020800 	.word	0x40020800
 80023a8:	40020c00 	.word	0x40020c00
 80023ac:	40021000 	.word	0x40021000
 80023b0:	40021400 	.word	0x40021400
 80023b4:	40021800 	.word	0x40021800
 80023b8:	40021c00 	.word	0x40021c00
 80023bc:	40022000 	.word	0x40022000
 80023c0:	40022400 	.word	0x40022400
 80023c4:	40013c00 	.word	0x40013c00

080023c8 <HAL_GPIO_WritePin>:
  *            @arg GPIO_PIN_RESET: to clear the port pin
  *            @arg GPIO_PIN_SET: to set the port pin
  * @retval None
  */
void HAL_GPIO_WritePin(GPIO_TypeDef* GPIOx, uint16_t GPIO_Pin, GPIO_PinState PinState)
{
 80023c8:	b480      	push	{r7}
 80023ca:	b083      	sub	sp, #12
 80023cc:	af00      	add	r7, sp, #0
 80023ce:	6078      	str	r0, [r7, #4]
 80023d0:	460b      	mov	r3, r1
 80023d2:	807b      	strh	r3, [r7, #2]
 80023d4:	4613      	mov	r3, r2
 80023d6:	707b      	strb	r3, [r7, #1]
  /* Check the parameters */
  assert_param(IS_GPIO_PIN(GPIO_Pin));
  assert_param(IS_GPIO_PIN_ACTION(PinState));

  if(PinState != GPIO_PIN_RESET)
 80023d8:	787b      	ldrb	r3, [r7, #1]
 80023da:	2b00      	cmp	r3, #0
 80023dc:	d003      	beq.n	80023e6 <HAL_GPIO_WritePin+0x1e>
  {
    GPIOx->BSRR = GPIO_Pin;
 80023de:	887a      	ldrh	r2, [r7, #2]
 80023e0:	687b      	ldr	r3, [r7, #4]
 80023e2:	619a      	str	r2, [r3, #24]
  }
  else
  {
    GPIOx->BSRR = (uint32_t)GPIO_Pin << 16;
  }
}
 80023e4:	e003      	b.n	80023ee <HAL_GPIO_WritePin+0x26>
    GPIOx->BSRR = (uint32_t)GPIO_Pin << 16;
 80023e6:	887b      	ldrh	r3, [r7, #2]
 80023e8:	041a      	lsls	r2, r3, #16
 80023ea:	687b      	ldr	r3, [r7, #4]
 80023ec:	619a      	str	r2, [r3, #24]
}
 80023ee:	bf00      	nop
 80023f0:	370c      	adds	r7, #12
 80023f2:	46bd      	mov	sp, r7
 80023f4:	f85d 7b04 	ldr.w	r7, [sp], #4
 80023f8:	4770      	bx	lr
	...

080023fc <HAL_PWR_EnableBkUpAccess>:
  * @note If the HSE divided by 2, 3, ..31 is used as the RTC clock, the 
  *         Backup Domain Access should be kept enabled.
  * @retval None
  */
void HAL_PWR_EnableBkUpAccess(void)
{
 80023fc:	b480      	push	{r7}
 80023fe:	af00      	add	r7, sp, #0
  /* Enable access to RTC and backup registers */
  SET_BIT(PWR->CR1, PWR_CR1_DBP);
 8002400:	4b05      	ldr	r3, [pc, #20]	@ (8002418 <HAL_PWR_EnableBkUpAccess+0x1c>)
 8002402:	681b      	ldr	r3, [r3, #0]
 8002404:	4a04      	ldr	r2, [pc, #16]	@ (8002418 <HAL_PWR_EnableBkUpAccess+0x1c>)
 8002406:	f443 7380 	orr.w	r3, r3, #256	@ 0x100
 800240a:	6013      	str	r3, [r2, #0]
}
 800240c:	bf00      	nop
 800240e:	46bd      	mov	sp, r7
 8002410:	f85d 7b04 	ldr.w	r7, [sp], #4
 8002414:	4770      	bx	lr
 8002416:	bf00      	nop
 8002418:	40007000 	.word	0x40007000

0800241c <HAL_PWREx_EnableOverDrive>:
  *         During the Over-drive switch activation, no peripheral clocks should be enabled.   
  *         The peripheral clocks must be enabled once the Over-drive mode is activated.   
  * @retval HAL status
  */
HAL_StatusTypeDef HAL_PWREx_EnableOverDrive(void)
{
 800241c:	b580      	push	{r7, lr}
 800241e:	b082      	sub	sp, #8
 8002420:	af00      	add	r7, sp, #0
  uint32_t tickstart = 0;
 8002422:	2300      	movs	r3, #0
 8002424:	607b      	str	r3, [r7, #4]

  __HAL_RCC_PWR_CLK_ENABLE();
 8002426:	4b23      	ldr	r3, [pc, #140]	@ (80024b4 <HAL_PWREx_EnableOverDrive+0x98>)
 8002428:	6c1b      	ldr	r3, [r3, #64]	@ 0x40
 800242a:	4a22      	ldr	r2, [pc, #136]	@ (80024b4 <HAL_PWREx_EnableOverDrive+0x98>)
 800242c:	f043 5380 	orr.w	r3, r3, #268435456	@ 0x10000000
 8002430:	6413      	str	r3, [r2, #64]	@ 0x40
 8002432:	4b20      	ldr	r3, [pc, #128]	@ (80024b4 <HAL_PWREx_EnableOverDrive+0x98>)
 8002434:	6c1b      	ldr	r3, [r3, #64]	@ 0x40
 8002436:	f003 5380 	and.w	r3, r3, #268435456	@ 0x10000000
 800243a:	603b      	str	r3, [r7, #0]
 800243c:	683b      	ldr	r3, [r7, #0]
  
  /* Enable the Over-drive to extend the clock frequency to 216 MHz */
  __HAL_PWR_OVERDRIVE_ENABLE();
 800243e:	4b1e      	ldr	r3, [pc, #120]	@ (80024b8 <HAL_PWREx_EnableOverDrive+0x9c>)
 8002440:	681b      	ldr	r3, [r3, #0]
 8002442:	4a1d      	ldr	r2, [pc, #116]	@ (80024b8 <HAL_PWREx_EnableOverDrive+0x9c>)
 8002444:	f443 3380 	orr.w	r3, r3, #65536	@ 0x10000
 8002448:	6013      	str	r3, [r2, #0]

  /* Get tick */
  tickstart = HAL_GetTick();
 800244a:	f7ff f913 	bl	8001674 <HAL_GetTick>
 800244e:	6078      	str	r0, [r7, #4]

  while(!__HAL_PWR_GET_FLAG(PWR_FLAG_ODRDY))
 8002450:	e009      	b.n	8002466 <HAL_PWREx_EnableOverDrive+0x4a>
  {
    if((HAL_GetTick() - tickstart ) > PWR_OVERDRIVE_TIMEOUT_VALUE)
 8002452:	f7ff f90f 	bl	8001674 <HAL_GetTick>
 8002456:	4602      	mov	r2, r0
 8002458:	687b      	ldr	r3, [r7, #4]
 800245a:	1ad3      	subs	r3, r2, r3
 800245c:	f5b3 7f7a 	cmp.w	r3, #1000	@ 0x3e8
 8002460:	d901      	bls.n	8002466 <HAL_PWREx_EnableOverDrive+0x4a>
    {
      return HAL_TIMEOUT;
 8002462:	2303      	movs	r3, #3
 8002464:	e022      	b.n	80024ac <HAL_PWREx_EnableOverDrive+0x90>
  while(!__HAL_PWR_GET_FLAG(PWR_FLAG_ODRDY))
 8002466:	4b14      	ldr	r3, [pc, #80]	@ (80024b8 <HAL_PWREx_EnableOverDrive+0x9c>)
 8002468:	685b      	ldr	r3, [r3, #4]
 800246a:	f403 3380 	and.w	r3, r3, #65536	@ 0x10000
 800246e:	f5b3 3f80 	cmp.w	r3, #65536	@ 0x10000
 8002472:	d1ee      	bne.n	8002452 <HAL_PWREx_EnableOverDrive+0x36>
    }
  }
  
  /* Enable the Over-drive switch */
  __HAL_PWR_OVERDRIVESWITCHING_ENABLE();
 8002474:	4b10      	ldr	r3, [pc, #64]	@ (80024b8 <HAL_PWREx_EnableOverDrive+0x9c>)
 8002476:	681b      	ldr	r3, [r3, #0]
 8002478:	4a0f      	ldr	r2, [pc, #60]	@ (80024b8 <HAL_PWREx_EnableOverDrive+0x9c>)
 800247a:	f443 3300 	orr.w	r3, r3, #131072	@ 0x20000
 800247e:	6013      	str	r3, [r2, #0]

  /* Get tick */
  tickstart = HAL_GetTick();
 8002480:	f7ff f8f8 	bl	8001674 <HAL_GetTick>
 8002484:	6078      	str	r0, [r7, #4]

  while(!__HAL_PWR_GET_FLAG(PWR_FLAG_ODSWRDY))
 8002486:	e009      	b.n	800249c <HAL_PWREx_EnableOverDrive+0x80>
  {
    if((HAL_GetTick() - tickstart ) > PWR_OVERDRIVE_TIMEOUT_VALUE)
 8002488:	f7ff f8f4 	bl	8001674 <HAL_GetTick>
 800248c:	4602      	mov	r2, r0
 800248e:	687b      	ldr	r3, [r7, #4]
 8002490:	1ad3      	subs	r3, r2, r3
 8002492:	f5b3 7f7a 	cmp.w	r3, #1000	@ 0x3e8
 8002496:	d901      	bls.n	800249c <HAL_PWREx_EnableOverDrive+0x80>
    {
      return HAL_TIMEOUT;
 8002498:	2303      	movs	r3, #3
 800249a:	e007      	b.n	80024ac <HAL_PWREx_EnableOverDrive+0x90>
  while(!__HAL_PWR_GET_FLAG(PWR_FLAG_ODSWRDY))
 800249c:	4b06      	ldr	r3, [pc, #24]	@ (80024b8 <HAL_PWREx_EnableOverDrive+0x9c>)
 800249e:	685b      	ldr	r3, [r3, #4]
 80024a0:	f403 3300 	and.w	r3, r3, #131072	@ 0x20000
 80024a4:	f5b3 3f00 	cmp.w	r3, #131072	@ 0x20000
 80024a8:	d1ee      	bne.n	8002488 <HAL_PWREx_EnableOverDrive+0x6c>
    }
  } 
  return HAL_OK;
 80024aa:	2300      	movs	r3, #0
}
 80024ac:	4618      	mov	r0, r3
 80024ae:	3708      	adds	r7, #8
 80024b0:	46bd      	mov	sp, r7
 80024b2:	bd80      	pop	{r7, pc}
 80024b4:	40023800 	.word	0x40023800
 80024b8:	40007000 	.word	0x40007000

080024bc <HAL_RCC_OscConfig>:
  *         supported by this function. User should request a transition to HSE Off
  *         first and then HSE On or HSE Bypass.
  * @retval HAL status
  */
HAL_StatusTypeDef HAL_RCC_OscConfig(RCC_OscInitTypeDef  *RCC_OscInitStruct)
{
 80024bc:	b580      	push	{r7, lr}
 80024be:	b086      	sub	sp, #24
 80024c0:	af00      	add	r7, sp, #0
 80024c2:	6078      	str	r0, [r7, #4]
  uint32_t tickstart;
  uint32_t pll_config;
  FlagStatus pwrclkchanged = RESET;
 80024c4:	2300      	movs	r3, #0
 80024c6:	75fb      	strb	r3, [r7, #23]

  /* Check Null pointer */
  if (RCC_OscInitStruct == NULL)
 80024c8:	687b      	ldr	r3, [r7, #4]
 80024ca:	2b00      	cmp	r3, #0
 80024cc:	d101      	bne.n	80024d2 <HAL_RCC_OscConfig+0x16>
  {
    return HAL_ERROR;
 80024ce:	2301      	movs	r3, #1
 80024d0:	e291      	b.n	80029f6 <HAL_RCC_OscConfig+0x53a>

  /* Check the parameters */
  assert_param(IS_RCC_OSCILLATORTYPE(RCC_OscInitStruct->OscillatorType));

  /*------------------------------- HSE Configuration ------------------------*/
  if (((RCC_OscInitStruct->OscillatorType) & RCC_OSCILLATORTYPE_HSE) == RCC_OSCILLATORTYPE_HSE)
 80024d2:	687b      	ldr	r3, [r7, #4]
 80024d4:	681b      	ldr	r3, [r3, #0]
 80024d6:	f003 0301 	and.w	r3, r3, #1
 80024da:	2b00      	cmp	r3, #0
 80024dc:	f000 8087 	beq.w	80025ee <HAL_RCC_OscConfig+0x132>
  {
    /* Check the parameters */
    assert_param(IS_RCC_HSE(RCC_OscInitStruct->HSEState));
    /* When the HSE is used as system clock or clock source for PLL, It can not be disabled */
    if ((__HAL_RCC_GET_SYSCLK_SOURCE() == RCC_SYSCLKSOURCE_STATUS_HSE)
 80024e0:	4b96      	ldr	r3, [pc, #600]	@ (800273c <HAL_RCC_OscConfig+0x280>)
 80024e2:	689b      	ldr	r3, [r3, #8]
 80024e4:	f003 030c 	and.w	r3, r3, #12
 80024e8:	2b04      	cmp	r3, #4
 80024ea:	d00c      	beq.n	8002506 <HAL_RCC_OscConfig+0x4a>
        || ((__HAL_RCC_GET_SYSCLK_SOURCE() == RCC_SYSCLKSOURCE_STATUS_PLLCLK) && ((RCC->PLLCFGR & RCC_PLLCFGR_PLLSRC) == RCC_PLLCFGR_PLLSRC_HSE)))
 80024ec:	4b93      	ldr	r3, [pc, #588]	@ (800273c <HAL_RCC_OscConfig+0x280>)
 80024ee:	689b      	ldr	r3, [r3, #8]
 80024f0:	f003 030c 	and.w	r3, r3, #12
 80024f4:	2b08      	cmp	r3, #8
 80024f6:	d112      	bne.n	800251e <HAL_RCC_OscConfig+0x62>
 80024f8:	4b90      	ldr	r3, [pc, #576]	@ (800273c <HAL_RCC_OscConfig+0x280>)
 80024fa:	685b      	ldr	r3, [r3, #4]
 80024fc:	f403 0380 	and.w	r3, r3, #4194304	@ 0x400000
 8002500:	f5b3 0f80 	cmp.w	r3, #4194304	@ 0x400000
 8002504:	d10b      	bne.n	800251e <HAL_RCC_OscConfig+0x62>
    {
      if ((__HAL_RCC_GET_FLAG(RCC_FLAG_HSERDY) != RESET) && (RCC_OscInitStruct->HSEState == RCC_HSE_OFF))
 8002506:	4b8d      	ldr	r3, [pc, #564]	@ (800273c <HAL_RCC_OscConfig+0x280>)
 8002508:	681b      	ldr	r3, [r3, #0]
 800250a:	f403 3300 	and.w	r3, r3, #131072	@ 0x20000
 800250e:	2b00      	cmp	r3, #0
 8002510:	d06c      	beq.n	80025ec <HAL_RCC_OscConfig+0x130>
 8002512:	687b      	ldr	r3, [r7, #4]
 8002514:	685b      	ldr	r3, [r3, #4]
 8002516:	2b00      	cmp	r3, #0
 8002518:	d168      	bne.n	80025ec <HAL_RCC_OscConfig+0x130>
      {
        return HAL_ERROR;
 800251a:	2301      	movs	r3, #1
 800251c:	e26b      	b.n	80029f6 <HAL_RCC_OscConfig+0x53a>
      }
    }
    else
    {
      /* Set the new HSE configuration ---------------------------------------*/
      __HAL_RCC_HSE_CONFIG(RCC_OscInitStruct->HSEState);
 800251e:	687b      	ldr	r3, [r7, #4]
 8002520:	685b      	ldr	r3, [r3, #4]
 8002522:	f5b3 3f80 	cmp.w	r3, #65536	@ 0x10000
 8002526:	d106      	bne.n	8002536 <HAL_RCC_OscConfig+0x7a>
 8002528:	4b84      	ldr	r3, [pc, #528]	@ (800273c <HAL_RCC_OscConfig+0x280>)
 800252a:	681b      	ldr	r3, [r3, #0]
 800252c:	4a83      	ldr	r2, [pc, #524]	@ (800273c <HAL_RCC_OscConfig+0x280>)
 800252e:	f443 3380 	orr.w	r3, r3, #65536	@ 0x10000
 8002532:	6013      	str	r3, [r2, #0]
 8002534:	e02e      	b.n	8002594 <HAL_RCC_OscConfig+0xd8>
 8002536:	687b      	ldr	r3, [r7, #4]
 8002538:	685b      	ldr	r3, [r3, #4]
 800253a:	2b00      	cmp	r3, #0
 800253c:	d10c      	bne.n	8002558 <HAL_RCC_OscConfig+0x9c>
 800253e:	4b7f      	ldr	r3, [pc, #508]	@ (800273c <HAL_RCC_OscConfig+0x280>)
 8002540:	681b      	ldr	r3, [r3, #0]
 8002542:	4a7e      	ldr	r2, [pc, #504]	@ (800273c <HAL_RCC_OscConfig+0x280>)
 8002544:	f423 3380 	bic.w	r3, r3, #65536	@ 0x10000
 8002548:	6013      	str	r3, [r2, #0]
 800254a:	4b7c      	ldr	r3, [pc, #496]	@ (800273c <HAL_RCC_OscConfig+0x280>)
 800254c:	681b      	ldr	r3, [r3, #0]
 800254e:	4a7b      	ldr	r2, [pc, #492]	@ (800273c <HAL_RCC_OscConfig+0x280>)
 8002550:	f423 2380 	bic.w	r3, r3, #262144	@ 0x40000
 8002554:	6013      	str	r3, [r2, #0]
 8002556:	e01d      	b.n	8002594 <HAL_RCC_OscConfig+0xd8>
 8002558:	687b      	ldr	r3, [r7, #4]
 800255a:	685b      	ldr	r3, [r3, #4]
 800255c:	f5b3 2fa0 	cmp.w	r3, #327680	@ 0x50000
 8002560:	d10c      	bne.n	800257c <HAL_RCC_OscConfig+0xc0>
 8002562:	4b76      	ldr	r3, [pc, #472]	@ (800273c <HAL_RCC_OscConfig+0x280>)
 8002564:	681b      	ldr	r3, [r3, #0]
 8002566:	4a75      	ldr	r2, [pc, #468]	@ (800273c <HAL_RCC_OscConfig+0x280>)
 8002568:	f443 2380 	orr.w	r3, r3, #262144	@ 0x40000
 800256c:	6013      	str	r3, [r2, #0]
 800256e:	4b73      	ldr	r3, [pc, #460]	@ (800273c <HAL_RCC_OscConfig+0x280>)
 8002570:	681b      	ldr	r3, [r3, #0]
 8002572:	4a72      	ldr	r2, [pc, #456]	@ (800273c <HAL_RCC_OscConfig+0x280>)
 8002574:	f443 3380 	orr.w	r3, r3, #65536	@ 0x10000
 8002578:	6013      	str	r3, [r2, #0]
 800257a:	e00b      	b.n	8002594 <HAL_RCC_OscConfig+0xd8>
 800257c:	4b6f      	ldr	r3, [pc, #444]	@ (800273c <HAL_RCC_OscConfig+0x280>)
 800257e:	681b      	ldr	r3, [r3, #0]
 8002580:	4a6e      	ldr	r2, [pc, #440]	@ (800273c <HAL_RCC_OscConfig+0x280>)
 8002582:	f423 3380 	bic.w	r3, r3, #65536	@ 0x10000
 8002586:	6013      	str	r3, [r2, #0]
 8002588:	4b6c      	ldr	r3, [pc, #432]	@ (800273c <HAL_RCC_OscConfig+0x280>)
 800258a:	681b      	ldr	r3, [r3, #0]
 800258c:	4a6b      	ldr	r2, [pc, #428]	@ (800273c <HAL_RCC_OscConfig+0x280>)
 800258e:	f423 2380 	bic.w	r3, r3, #262144	@ 0x40000
 8002592:	6013      	str	r3, [r2, #0]

      /* Check the HSE State */
      if (RCC_OscInitStruct->HSEState != RCC_HSE_OFF)
 8002594:	687b      	ldr	r3, [r7, #4]
 8002596:	685b      	ldr	r3, [r3, #4]
 8002598:	2b00      	cmp	r3, #0
 800259a:	d013      	beq.n	80025c4 <HAL_RCC_OscConfig+0x108>
      {
        /* Get Start Tick*/
        tickstart = HAL_GetTick();
 800259c:	f7ff f86a 	bl	8001674 <HAL_GetTick>
 80025a0:	6138      	str	r0, [r7, #16]

        /* Wait till HSE is ready */
        while (__HAL_RCC_GET_FLAG(RCC_FLAG_HSERDY) == RESET)
 80025a2:	e008      	b.n	80025b6 <HAL_RCC_OscConfig+0xfa>
        {
          if ((HAL_GetTick() - tickstart) > HSE_TIMEOUT_VALUE)
 80025a4:	f7ff f866 	bl	8001674 <HAL_GetTick>
 80025a8:	4602      	mov	r2, r0
 80025aa:	693b      	ldr	r3, [r7, #16]
 80025ac:	1ad3      	subs	r3, r2, r3
 80025ae:	2b64      	cmp	r3, #100	@ 0x64
 80025b0:	d901      	bls.n	80025b6 <HAL_RCC_OscConfig+0xfa>
          {
            return HAL_TIMEOUT;
 80025b2:	2303      	movs	r3, #3
 80025b4:	e21f      	b.n	80029f6 <HAL_RCC_OscConfig+0x53a>
        while (__HAL_RCC_GET_FLAG(RCC_FLAG_HSERDY) == RESET)
 80025b6:	4b61      	ldr	r3, [pc, #388]	@ (800273c <HAL_RCC_OscConfig+0x280>)
 80025b8:	681b      	ldr	r3, [r3, #0]
 80025ba:	f403 3300 	and.w	r3, r3, #131072	@ 0x20000
 80025be:	2b00      	cmp	r3, #0
 80025c0:	d0f0      	beq.n	80025a4 <HAL_RCC_OscConfig+0xe8>
 80025c2:	e014      	b.n	80025ee <HAL_RCC_OscConfig+0x132>
        }
      }
      else
      {
        /* Get Start Tick*/
        tickstart = HAL_GetTick();
 80025c4:	f7ff f856 	bl	8001674 <HAL_GetTick>
 80025c8:	6138      	str	r0, [r7, #16]

        /* Wait till HSE is bypassed or disabled */
        while (__HAL_RCC_GET_FLAG(RCC_FLAG_HSERDY) != RESET)
 80025ca:	e008      	b.n	80025de <HAL_RCC_OscConfig+0x122>
        {
          if ((HAL_GetTick() - tickstart) > HSE_TIMEOUT_VALUE)
 80025cc:	f7ff f852 	bl	8001674 <HAL_GetTick>
 80025d0:	4602      	mov	r2, r0
 80025d2:	693b      	ldr	r3, [r7, #16]
 80025d4:	1ad3      	subs	r3, r2, r3
 80025d6:	2b64      	cmp	r3, #100	@ 0x64
 80025d8:	d901      	bls.n	80025de <HAL_RCC_OscConfig+0x122>
          {
            return HAL_TIMEOUT;
 80025da:	2303      	movs	r3, #3
 80025dc:	e20b      	b.n	80029f6 <HAL_RCC_OscConfig+0x53a>
        while (__HAL_RCC_GET_FLAG(RCC_FLAG_HSERDY) != RESET)
 80025de:	4b57      	ldr	r3, [pc, #348]	@ (800273c <HAL_RCC_OscConfig+0x280>)
 80025e0:	681b      	ldr	r3, [r3, #0]
 80025e2:	f403 3300 	and.w	r3, r3, #131072	@ 0x20000
 80025e6:	2b00      	cmp	r3, #0
 80025e8:	d1f0      	bne.n	80025cc <HAL_RCC_OscConfig+0x110>
 80025ea:	e000      	b.n	80025ee <HAL_RCC_OscConfig+0x132>
      if ((__HAL_RCC_GET_FLAG(RCC_FLAG_HSERDY) != RESET) && (RCC_OscInitStruct->HSEState == RCC_HSE_OFF))
 80025ec:	bf00      	nop
        }
      }
    }
  }
  /*----------------------------- HSI Configuration --------------------------*/
  if (((RCC_OscInitStruct->OscillatorType) & RCC_OSCILLATORTYPE_HSI) == RCC_OSCILLATORTYPE_HSI)
 80025ee:	687b      	ldr	r3, [r7, #4]
 80025f0:	681b      	ldr	r3, [r3, #0]
 80025f2:	f003 0302 	and.w	r3, r3, #2
 80025f6:	2b00      	cmp	r3, #0
 80025f8:	d069      	beq.n	80026ce <HAL_RCC_OscConfig+0x212>
    /* Check the parameters */
    assert_param(IS_RCC_HSI(RCC_OscInitStruct->HSIState));
    assert_param(IS_RCC_CALIBRATION_VALUE(RCC_OscInitStruct->HSICalibrationValue));

    /* Check if HSI is used as system clock or as PLL source when PLL is selected as system clock */
    if ((__HAL_RCC_GET_SYSCLK_SOURCE() == RCC_SYSCLKSOURCE_STATUS_HSI)
 80025fa:	4b50      	ldr	r3, [pc, #320]	@ (800273c <HAL_RCC_OscConfig+0x280>)
 80025fc:	689b      	ldr	r3, [r3, #8]
 80025fe:	f003 030c 	and.w	r3, r3, #12
 8002602:	2b00      	cmp	r3, #0
 8002604:	d00b      	beq.n	800261e <HAL_RCC_OscConfig+0x162>
        || ((__HAL_RCC_GET_SYSCLK_SOURCE() == RCC_SYSCLKSOURCE_STATUS_PLLCLK) && ((RCC->PLLCFGR & RCC_PLLCFGR_PLLSRC) == RCC_PLLCFGR_PLLSRC_HSI)))
 8002606:	4b4d      	ldr	r3, [pc, #308]	@ (800273c <HAL_RCC_OscConfig+0x280>)
 8002608:	689b      	ldr	r3, [r3, #8]
 800260a:	f003 030c 	and.w	r3, r3, #12
 800260e:	2b08      	cmp	r3, #8
 8002610:	d11c      	bne.n	800264c <HAL_RCC_OscConfig+0x190>
 8002612:	4b4a      	ldr	r3, [pc, #296]	@ (800273c <HAL_RCC_OscConfig+0x280>)
 8002614:	685b      	ldr	r3, [r3, #4]
 8002616:	f403 0380 	and.w	r3, r3, #4194304	@ 0x400000
 800261a:	2b00      	cmp	r3, #0
 800261c:	d116      	bne.n	800264c <HAL_RCC_OscConfig+0x190>
    {
      /* When HSI is used as system clock it will not disabled */
      if ((__HAL_RCC_GET_FLAG(RCC_FLAG_HSIRDY) != RESET) && (RCC_OscInitStruct->HSIState != RCC_HSI_ON))
 800261e:	4b47      	ldr	r3, [pc, #284]	@ (800273c <HAL_RCC_OscConfig+0x280>)
 8002620:	681b      	ldr	r3, [r3, #0]
 8002622:	f003 0302 	and.w	r3, r3, #2
 8002626:	2b00      	cmp	r3, #0
 8002628:	d005      	beq.n	8002636 <HAL_RCC_OscConfig+0x17a>
 800262a:	687b      	ldr	r3, [r7, #4]
 800262c:	68db      	ldr	r3, [r3, #12]
 800262e:	2b01      	cmp	r3, #1
 8002630:	d001      	beq.n	8002636 <HAL_RCC_OscConfig+0x17a>
      {
        return HAL_ERROR;
 8002632:	2301      	movs	r3, #1
 8002634:	e1df      	b.n	80029f6 <HAL_RCC_OscConfig+0x53a>
      }
      /* Otherwise, just the calibration is allowed */
      else
      {
        /* Adjusts the Internal High Speed oscillator (HSI) calibration value.*/
        __HAL_RCC_HSI_CALIBRATIONVALUE_ADJUST(RCC_OscInitStruct->HSICalibrationValue);
 8002636:	4b41      	ldr	r3, [pc, #260]	@ (800273c <HAL_RCC_OscConfig+0x280>)
 8002638:	681b      	ldr	r3, [r3, #0]
 800263a:	f023 02f8 	bic.w	r2, r3, #248	@ 0xf8
 800263e:	687b      	ldr	r3, [r7, #4]
 8002640:	691b      	ldr	r3, [r3, #16]
 8002642:	00db      	lsls	r3, r3, #3
 8002644:	493d      	ldr	r1, [pc, #244]	@ (800273c <HAL_RCC_OscConfig+0x280>)
 8002646:	4313      	orrs	r3, r2
 8002648:	600b      	str	r3, [r1, #0]
      if ((__HAL_RCC_GET_FLAG(RCC_FLAG_HSIRDY) != RESET) && (RCC_OscInitStruct->HSIState != RCC_HSI_ON))
 800264a:	e040      	b.n	80026ce <HAL_RCC_OscConfig+0x212>
      }
    }
    else
    {
      /* Check the HSI State */
      if ((RCC_OscInitStruct->HSIState) != RCC_HSI_OFF)
 800264c:	687b      	ldr	r3, [r7, #4]
 800264e:	68db      	ldr	r3, [r3, #12]
 8002650:	2b00      	cmp	r3, #0
 8002652:	d023      	beq.n	800269c <HAL_RCC_OscConfig+0x1e0>
      {
        /* Enable the Internal High Speed oscillator (HSI). */
        __HAL_RCC_HSI_ENABLE();
 8002654:	4b39      	ldr	r3, [pc, #228]	@ (800273c <HAL_RCC_OscConfig+0x280>)
 8002656:	681b      	ldr	r3, [r3, #0]
 8002658:	4a38      	ldr	r2, [pc, #224]	@ (800273c <HAL_RCC_OscConfig+0x280>)
 800265a:	f043 0301 	orr.w	r3, r3, #1
 800265e:	6013      	str	r3, [r2, #0]

        /* Get Start Tick*/
        tickstart = HAL_GetTick();
 8002660:	f7ff f808 	bl	8001674 <HAL_GetTick>
 8002664:	6138      	str	r0, [r7, #16]

        /* Wait till HSI is ready */
        while (__HAL_RCC_GET_FLAG(RCC_FLAG_HSIRDY) == RESET)
 8002666:	e008      	b.n	800267a <HAL_RCC_OscConfig+0x1be>
        {
          if ((HAL_GetTick() - tickstart) > HSI_TIMEOUT_VALUE)
 8002668:	f7ff f804 	bl	8001674 <HAL_GetTick>
 800266c:	4602      	mov	r2, r0
 800266e:	693b      	ldr	r3, [r7, #16]
 8002670:	1ad3      	subs	r3, r2, r3
 8002672:	2b02      	cmp	r3, #2
 8002674:	d901      	bls.n	800267a <HAL_RCC_OscConfig+0x1be>
          {
            return HAL_TIMEOUT;
 8002676:	2303      	movs	r3, #3
 8002678:	e1bd      	b.n	80029f6 <HAL_RCC_OscConfig+0x53a>
        while (__HAL_RCC_GET_FLAG(RCC_FLAG_HSIRDY) == RESET)
 800267a:	4b30      	ldr	r3, [pc, #192]	@ (800273c <HAL_RCC_OscConfig+0x280>)
 800267c:	681b      	ldr	r3, [r3, #0]
 800267e:	f003 0302 	and.w	r3, r3, #2
 8002682:	2b00      	cmp	r3, #0
 8002684:	d0f0      	beq.n	8002668 <HAL_RCC_OscConfig+0x1ac>
          }
        }

        /* Adjusts the Internal High Speed oscillator (HSI) calibration value.*/
        __HAL_RCC_HSI_CALIBRATIONVALUE_ADJUST(RCC_OscInitStruct->HSICalibrationValue);
 8002686:	4b2d      	ldr	r3, [pc, #180]	@ (800273c <HAL_RCC_OscConfig+0x280>)
 8002688:	681b      	ldr	r3, [r3, #0]
 800268a:	f023 02f8 	bic.w	r2, r3, #248	@ 0xf8
 800268e:	687b      	ldr	r3, [r7, #4]
 8002690:	691b      	ldr	r3, [r3, #16]
 8002692:	00db      	lsls	r3, r3, #3
 8002694:	4929      	ldr	r1, [pc, #164]	@ (800273c <HAL_RCC_OscConfig+0x280>)
 8002696:	4313      	orrs	r3, r2
 8002698:	600b      	str	r3, [r1, #0]
 800269a:	e018      	b.n	80026ce <HAL_RCC_OscConfig+0x212>
      }
      else
      {
        /* Disable the Internal High Speed oscillator (HSI). */
        __HAL_RCC_HSI_DISABLE();
 800269c:	4b27      	ldr	r3, [pc, #156]	@ (800273c <HAL_RCC_OscConfig+0x280>)
 800269e:	681b      	ldr	r3, [r3, #0]
 80026a0:	4a26      	ldr	r2, [pc, #152]	@ (800273c <HAL_RCC_OscConfig+0x280>)
 80026a2:	f023 0301 	bic.w	r3, r3, #1
 80026a6:	6013      	str	r3, [r2, #0]

        /* Get Start Tick*/
        tickstart = HAL_GetTick();
 80026a8:	f7fe ffe4 	bl	8001674 <HAL_GetTick>
 80026ac:	6138      	str	r0, [r7, #16]

        /* Wait till HSI is ready */
        while (__HAL_RCC_GET_FLAG(RCC_FLAG_HSIRDY) != RESET)
 80026ae:	e008      	b.n	80026c2 <HAL_RCC_OscConfig+0x206>
        {
          if ((HAL_GetTick() - tickstart) > HSI_TIMEOUT_VALUE)
 80026b0:	f7fe ffe0 	bl	8001674 <HAL_GetTick>
 80026b4:	4602      	mov	r2, r0
 80026b6:	693b      	ldr	r3, [r7, #16]
 80026b8:	1ad3      	subs	r3, r2, r3
 80026ba:	2b02      	cmp	r3, #2
 80026bc:	d901      	bls.n	80026c2 <HAL_RCC_OscConfig+0x206>
          {
            return HAL_TIMEOUT;
 80026be:	2303      	movs	r3, #3
 80026c0:	e199      	b.n	80029f6 <HAL_RCC_OscConfig+0x53a>
        while (__HAL_RCC_GET_FLAG(RCC_FLAG_HSIRDY) != RESET)
 80026c2:	4b1e      	ldr	r3, [pc, #120]	@ (800273c <HAL_RCC_OscConfig+0x280>)
 80026c4:	681b      	ldr	r3, [r3, #0]
 80026c6:	f003 0302 	and.w	r3, r3, #2
 80026ca:	2b00      	cmp	r3, #0
 80026cc:	d1f0      	bne.n	80026b0 <HAL_RCC_OscConfig+0x1f4>
        }
      }
    }
  }
  /*------------------------------ LSI Configuration -------------------------*/
  if (((RCC_OscInitStruct->OscillatorType) & RCC_OSCILLATORTYPE_LSI) == RCC_OSCILLATORTYPE_LSI)
 80026ce:	687b      	ldr	r3, [r7, #4]
 80026d0:	681b      	ldr	r3, [r3, #0]
 80026d2:	f003 0308 	and.w	r3, r3, #8
 80026d6:	2b00      	cmp	r3, #0
 80026d8:	d038      	beq.n	800274c <HAL_RCC_OscConfig+0x290>
  {
    /* Check the parameters */
    assert_param(IS_RCC_LSI(RCC_OscInitStruct->LSIState));

    /* Check the LSI State */
    if ((RCC_OscInitStruct->LSIState) != RCC_LSI_OFF)
 80026da:	687b      	ldr	r3, [r7, #4]
 80026dc:	695b      	ldr	r3, [r3, #20]
 80026de:	2b00      	cmp	r3, #0
 80026e0:	d019      	beq.n	8002716 <HAL_RCC_OscConfig+0x25a>
    {
      /* Enable the Internal Low Speed oscillator (LSI). */
      __HAL_RCC_LSI_ENABLE();
 80026e2:	4b16      	ldr	r3, [pc, #88]	@ (800273c <HAL_RCC_OscConfig+0x280>)
 80026e4:	6f5b      	ldr	r3, [r3, #116]	@ 0x74
 80026e6:	4a15      	ldr	r2, [pc, #84]	@ (800273c <HAL_RCC_OscConfig+0x280>)
 80026e8:	f043 0301 	orr.w	r3, r3, #1
 80026ec:	6753      	str	r3, [r2, #116]	@ 0x74

      /* Get Start Tick*/
      tickstart = HAL_GetTick();
 80026ee:	f7fe ffc1 	bl	8001674 <HAL_GetTick>
 80026f2:	6138      	str	r0, [r7, #16]

      /* Wait till LSI is ready */
      while (__HAL_RCC_GET_FLAG(RCC_FLAG_LSIRDY) == RESET)
 80026f4:	e008      	b.n	8002708 <HAL_RCC_OscConfig+0x24c>
      {
        if ((HAL_GetTick() - tickstart) > LSI_TIMEOUT_VALUE)
 80026f6:	f7fe ffbd 	bl	8001674 <HAL_GetTick>
 80026fa:	4602      	mov	r2, r0
 80026fc:	693b      	ldr	r3, [r7, #16]
 80026fe:	1ad3      	subs	r3, r2, r3
 8002700:	2b02      	cmp	r3, #2
 8002702:	d901      	bls.n	8002708 <HAL_RCC_OscConfig+0x24c>
        {
          return HAL_TIMEOUT;
 8002704:	2303      	movs	r3, #3
 8002706:	e176      	b.n	80029f6 <HAL_RCC_OscConfig+0x53a>
      while (__HAL_RCC_GET_FLAG(RCC_FLAG_LSIRDY) == RESET)
 8002708:	4b0c      	ldr	r3, [pc, #48]	@ (800273c <HAL_RCC_OscConfig+0x280>)
 800270a:	6f5b      	ldr	r3, [r3, #116]	@ 0x74
 800270c:	f003 0302 	and.w	r3, r3, #2
 8002710:	2b00      	cmp	r3, #0
 8002712:	d0f0      	beq.n	80026f6 <HAL_RCC_OscConfig+0x23a>
 8002714:	e01a      	b.n	800274c <HAL_RCC_OscConfig+0x290>
      }
    }
    else
    {
      /* Disable the Internal Low Speed oscillator (LSI). */
      __HAL_RCC_LSI_DISABLE();
 8002716:	4b09      	ldr	r3, [pc, #36]	@ (800273c <HAL_RCC_OscConfig+0x280>)
 8002718:	6f5b      	ldr	r3, [r3, #116]	@ 0x74
 800271a:	4a08      	ldr	r2, [pc, #32]	@ (800273c <HAL_RCC_OscConfig+0x280>)
 800271c:	f023 0301 	bic.w	r3, r3, #1
 8002720:	6753      	str	r3, [r2, #116]	@ 0x74

      /* Get Start Tick*/
      tickstart = HAL_GetTick();
 8002722:	f7fe ffa7 	bl	8001674 <HAL_GetTick>
 8002726:	6138      	str	r0, [r7, #16]

      /* Wait till LSI is ready */
      while (__HAL_RCC_GET_FLAG(RCC_FLAG_LSIRDY) != RESET)
 8002728:	e00a      	b.n	8002740 <HAL_RCC_OscConfig+0x284>
      {
        if ((HAL_GetTick() - tickstart) > LSI_TIMEOUT_VALUE)
 800272a:	f7fe ffa3 	bl	8001674 <HAL_GetTick>
 800272e:	4602      	mov	r2, r0
 8002730:	693b      	ldr	r3, [r7, #16]
 8002732:	1ad3      	subs	r3, r2, r3
 8002734:	2b02      	cmp	r3, #2
 8002736:	d903      	bls.n	8002740 <HAL_RCC_OscConfig+0x284>
        {
          return HAL_TIMEOUT;
 8002738:	2303      	movs	r3, #3
 800273a:	e15c      	b.n	80029f6 <HAL_RCC_OscConfig+0x53a>
 800273c:	40023800 	.word	0x40023800
      while (__HAL_RCC_GET_FLAG(RCC_FLAG_LSIRDY) != RESET)
 8002740:	4b91      	ldr	r3, [pc, #580]	@ (8002988 <HAL_RCC_OscConfig+0x4cc>)
 8002742:	6f5b      	ldr	r3, [r3, #116]	@ 0x74
 8002744:	f003 0302 	and.w	r3, r3, #2
 8002748:	2b00      	cmp	r3, #0
 800274a:	d1ee      	bne.n	800272a <HAL_RCC_OscConfig+0x26e>
        }
      }
    }
  }
  /*------------------------------ LSE Configuration -------------------------*/
  if (((RCC_OscInitStruct->OscillatorType) & RCC_OSCILLATORTYPE_LSE) == RCC_OSCILLATORTYPE_LSE)
 800274c:	687b      	ldr	r3, [r7, #4]
 800274e:	681b      	ldr	r3, [r3, #0]
 8002750:	f003 0304 	and.w	r3, r3, #4
 8002754:	2b00      	cmp	r3, #0
 8002756:	f000 80a4 	beq.w	80028a2 <HAL_RCC_OscConfig+0x3e6>
    /* Check the parameters */
    assert_param(IS_RCC_LSE(RCC_OscInitStruct->LSEState));

    /* Update LSE configuration in Backup Domain control register    */
    /* Requires to enable write access to Backup Domain of necessary */
    if (__HAL_RCC_PWR_IS_CLK_DISABLED())
 800275a:	4b8b      	ldr	r3, [pc, #556]	@ (8002988 <HAL_RCC_OscConfig+0x4cc>)
 800275c:	6c1b      	ldr	r3, [r3, #64]	@ 0x40
 800275e:	f003 5380 	and.w	r3, r3, #268435456	@ 0x10000000
 8002762:	2b00      	cmp	r3, #0
 8002764:	d10d      	bne.n	8002782 <HAL_RCC_OscConfig+0x2c6>
    {
      /* Enable Power Clock*/
      __HAL_RCC_PWR_CLK_ENABLE();
 8002766:	4b88      	ldr	r3, [pc, #544]	@ (8002988 <HAL_RCC_OscConfig+0x4cc>)
 8002768:	6c1b      	ldr	r3, [r3, #64]	@ 0x40
 800276a:	4a87      	ldr	r2, [pc, #540]	@ (8002988 <HAL_RCC_OscConfig+0x4cc>)
 800276c:	f043 5380 	orr.w	r3, r3, #268435456	@ 0x10000000
 8002770:	6413      	str	r3, [r2, #64]	@ 0x40
 8002772:	4b85      	ldr	r3, [pc, #532]	@ (8002988 <HAL_RCC_OscConfig+0x4cc>)
 8002774:	6c1b      	ldr	r3, [r3, #64]	@ 0x40
 8002776:	f003 5380 	and.w	r3, r3, #268435456	@ 0x10000000
 800277a:	60bb      	str	r3, [r7, #8]
 800277c:	68bb      	ldr	r3, [r7, #8]
      pwrclkchanged = SET;
 800277e:	2301      	movs	r3, #1
 8002780:	75fb      	strb	r3, [r7, #23]
    }

    if (HAL_IS_BIT_CLR(PWR->CR1, PWR_CR1_DBP))
 8002782:	4b82      	ldr	r3, [pc, #520]	@ (800298c <HAL_RCC_OscConfig+0x4d0>)
 8002784:	681b      	ldr	r3, [r3, #0]
 8002786:	f403 7380 	and.w	r3, r3, #256	@ 0x100
 800278a:	2b00      	cmp	r3, #0
 800278c:	d118      	bne.n	80027c0 <HAL_RCC_OscConfig+0x304>
    {
      /* Enable write access to Backup domain */
      PWR->CR1 |= PWR_CR1_DBP;
 800278e:	4b7f      	ldr	r3, [pc, #508]	@ (800298c <HAL_RCC_OscConfig+0x4d0>)
 8002790:	681b      	ldr	r3, [r3, #0]
 8002792:	4a7e      	ldr	r2, [pc, #504]	@ (800298c <HAL_RCC_OscConfig+0x4d0>)
 8002794:	f443 7380 	orr.w	r3, r3, #256	@ 0x100
 8002798:	6013      	str	r3, [r2, #0]

      /* Wait for Backup domain Write protection disable */
      tickstart = HAL_GetTick();
 800279a:	f7fe ff6b 	bl	8001674 <HAL_GetTick>
 800279e:	6138      	str	r0, [r7, #16]

      while (HAL_IS_BIT_CLR(PWR->CR1, PWR_CR1_DBP))
 80027a0:	e008      	b.n	80027b4 <HAL_RCC_OscConfig+0x2f8>
      {
        if ((HAL_GetTick() - tickstart) > RCC_DBP_TIMEOUT_VALUE)
 80027a2:	f7fe ff67 	bl	8001674 <HAL_GetTick>
 80027a6:	4602      	mov	r2, r0
 80027a8:	693b      	ldr	r3, [r7, #16]
 80027aa:	1ad3      	subs	r3, r2, r3
 80027ac:	2b64      	cmp	r3, #100	@ 0x64
 80027ae:	d901      	bls.n	80027b4 <HAL_RCC_OscConfig+0x2f8>
        {
          return HAL_TIMEOUT;
 80027b0:	2303      	movs	r3, #3
 80027b2:	e120      	b.n	80029f6 <HAL_RCC_OscConfig+0x53a>
      while (HAL_IS_BIT_CLR(PWR->CR1, PWR_CR1_DBP))
 80027b4:	4b75      	ldr	r3, [pc, #468]	@ (800298c <HAL_RCC_OscConfig+0x4d0>)
 80027b6:	681b      	ldr	r3, [r3, #0]
 80027b8:	f403 7380 	and.w	r3, r3, #256	@ 0x100
 80027bc:	2b00      	cmp	r3, #0
 80027be:	d0f0      	beq.n	80027a2 <HAL_RCC_OscConfig+0x2e6>
        }
      }
    }

    /* Set the new LSE configuration -----------------------------------------*/
    __HAL_RCC_LSE_CONFIG(RCC_OscInitStruct->LSEState);
 80027c0:	687b      	ldr	r3, [r7, #4]
 80027c2:	689b      	ldr	r3, [r3, #8]
 80027c4:	2b01      	cmp	r3, #1
 80027c6:	d106      	bne.n	80027d6 <HAL_RCC_OscConfig+0x31a>
 80027c8:	4b6f      	ldr	r3, [pc, #444]	@ (8002988 <HAL_RCC_OscConfig+0x4cc>)
 80027ca:	6f1b      	ldr	r3, [r3, #112]	@ 0x70
 80027cc:	4a6e      	ldr	r2, [pc, #440]	@ (8002988 <HAL_RCC_OscConfig+0x4cc>)
 80027ce:	f043 0301 	orr.w	r3, r3, #1
 80027d2:	6713      	str	r3, [r2, #112]	@ 0x70
 80027d4:	e02d      	b.n	8002832 <HAL_RCC_OscConfig+0x376>
 80027d6:	687b      	ldr	r3, [r7, #4]
 80027d8:	689b      	ldr	r3, [r3, #8]
 80027da:	2b00      	cmp	r3, #0
 80027dc:	d10c      	bne.n	80027f8 <HAL_RCC_OscConfig+0x33c>
 80027de:	4b6a      	ldr	r3, [pc, #424]	@ (8002988 <HAL_RCC_OscConfig+0x4cc>)
 80027e0:	6f1b      	ldr	r3, [r3, #112]	@ 0x70
 80027e2:	4a69      	ldr	r2, [pc, #420]	@ (8002988 <HAL_RCC_OscConfig+0x4cc>)
 80027e4:	f023 0301 	bic.w	r3, r3, #1
 80027e8:	6713      	str	r3, [r2, #112]	@ 0x70
 80027ea:	4b67      	ldr	r3, [pc, #412]	@ (8002988 <HAL_RCC_OscConfig+0x4cc>)
 80027ec:	6f1b      	ldr	r3, [r3, #112]	@ 0x70
 80027ee:	4a66      	ldr	r2, [pc, #408]	@ (8002988 <HAL_RCC_OscConfig+0x4cc>)
 80027f0:	f023 0304 	bic.w	r3, r3, #4
 80027f4:	6713      	str	r3, [r2, #112]	@ 0x70
 80027f6:	e01c      	b.n	8002832 <HAL_RCC_OscConfig+0x376>
 80027f8:	687b      	ldr	r3, [r7, #4]
 80027fa:	689b      	ldr	r3, [r3, #8]
 80027fc:	2b05      	cmp	r3, #5
 80027fe:	d10c      	bne.n	800281a <HAL_RCC_OscConfig+0x35e>
 8002800:	4b61      	ldr	r3, [pc, #388]	@ (8002988 <HAL_RCC_OscConfig+0x4cc>)
 8002802:	6f1b      	ldr	r3, [r3, #112]	@ 0x70
 8002804:	4a60      	ldr	r2, [pc, #384]	@ (8002988 <HAL_RCC_OscConfig+0x4cc>)
 8002806:	f043 0304 	orr.w	r3, r3, #4
 800280a:	6713      	str	r3, [r2, #112]	@ 0x70
 800280c:	4b5e      	ldr	r3, [pc, #376]	@ (8002988 <HAL_RCC_OscConfig+0x4cc>)
 800280e:	6f1b      	ldr	r3, [r3, #112]	@ 0x70
 8002810:	4a5d      	ldr	r2, [pc, #372]	@ (8002988 <HAL_RCC_OscConfig+0x4cc>)
 8002812:	f043 0301 	orr.w	r3, r3, #1
 8002816:	6713      	str	r3, [r2, #112]	@ 0x70
 8002818:	e00b      	b.n	8002832 <HAL_RCC_OscConfig+0x376>
 800281a:	4b5b      	ldr	r3, [pc, #364]	@ (8002988 <HAL_RCC_OscConfig+0x4cc>)
 800281c:	6f1b      	ldr	r3, [r3, #112]	@ 0x70
 800281e:	4a5a      	ldr	r2, [pc, #360]	@ (8002988 <HAL_RCC_OscConfig+0x4cc>)
 8002820:	f023 0301 	bic.w	r3, r3, #1
 8002824:	6713      	str	r3, [r2, #112]	@ 0x70
 8002826:	4b58      	ldr	r3, [pc, #352]	@ (8002988 <HAL_RCC_OscConfig+0x4cc>)
 8002828:	6f1b      	ldr	r3, [r3, #112]	@ 0x70
 800282a:	4a57      	ldr	r2, [pc, #348]	@ (8002988 <HAL_RCC_OscConfig+0x4cc>)
 800282c:	f023 0304 	bic.w	r3, r3, #4
 8002830:	6713      	str	r3, [r2, #112]	@ 0x70
    /* Check the LSE State */
    if ((RCC_OscInitStruct->LSEState) != RCC_LSE_OFF)
 8002832:	687b      	ldr	r3, [r7, #4]
 8002834:	689b      	ldr	r3, [r3, #8]
 8002836:	2b00      	cmp	r3, #0
 8002838:	d015      	beq.n	8002866 <HAL_RCC_OscConfig+0x3aa>
    {
      /* Get Start Tick*/
      tickstart = HAL_GetTick();
 800283a:	f7fe ff1b 	bl	8001674 <HAL_GetTick>
 800283e:	6138      	str	r0, [r7, #16]

      /* Wait till LSE is ready */
      while (__HAL_RCC_GET_FLAG(RCC_FLAG_LSERDY) == RESET)
 8002840:	e00a      	b.n	8002858 <HAL_RCC_OscConfig+0x39c>
      {
        if ((HAL_GetTick() - tickstart) > RCC_LSE_TIMEOUT_VALUE)
 8002842:	f7fe ff17 	bl	8001674 <HAL_GetTick>
 8002846:	4602      	mov	r2, r0
 8002848:	693b      	ldr	r3, [r7, #16]
 800284a:	1ad3      	subs	r3, r2, r3
 800284c:	f241 3288 	movw	r2, #5000	@ 0x1388
 8002850:	4293      	cmp	r3, r2
 8002852:	d901      	bls.n	8002858 <HAL_RCC_OscConfig+0x39c>
        {
          return HAL_TIMEOUT;
 8002854:	2303      	movs	r3, #3
 8002856:	e0ce      	b.n	80029f6 <HAL_RCC_OscConfig+0x53a>
      while (__HAL_RCC_GET_FLAG(RCC_FLAG_LSERDY) == RESET)
 8002858:	4b4b      	ldr	r3, [pc, #300]	@ (8002988 <HAL_RCC_OscConfig+0x4cc>)
 800285a:	6f1b      	ldr	r3, [r3, #112]	@ 0x70
 800285c:	f003 0302 	and.w	r3, r3, #2
 8002860:	2b00      	cmp	r3, #0
 8002862:	d0ee      	beq.n	8002842 <HAL_RCC_OscConfig+0x386>
 8002864:	e014      	b.n	8002890 <HAL_RCC_OscConfig+0x3d4>
      }
    }
    else
    {
      /* Get Start Tick*/
      tickstart = HAL_GetTick();
 8002866:	f7fe ff05 	bl	8001674 <HAL_GetTick>
 800286a:	6138      	str	r0, [r7, #16]

      /* Wait till LSE is ready */
      while (__HAL_RCC_GET_FLAG(RCC_FLAG_LSERDY) != RESET)
 800286c:	e00a      	b.n	8002884 <HAL_RCC_OscConfig+0x3c8>
      {
        if ((HAL_GetTick() - tickstart) > RCC_LSE_TIMEOUT_VALUE)
 800286e:	f7fe ff01 	bl	8001674 <HAL_GetTick>
 8002872:	4602      	mov	r2, r0
 8002874:	693b      	ldr	r3, [r7, #16]
 8002876:	1ad3      	subs	r3, r2, r3
 8002878:	f241 3288 	movw	r2, #5000	@ 0x1388
 800287c:	4293      	cmp	r3, r2
 800287e:	d901      	bls.n	8002884 <HAL_RCC_OscConfig+0x3c8>
        {
          return HAL_TIMEOUT;
 8002880:	2303      	movs	r3, #3
 8002882:	e0b8      	b.n	80029f6 <HAL_RCC_OscConfig+0x53a>
      while (__HAL_RCC_GET_FLAG(RCC_FLAG_LSERDY) != RESET)
 8002884:	4b40      	ldr	r3, [pc, #256]	@ (8002988 <HAL_RCC_OscConfig+0x4cc>)
 8002886:	6f1b      	ldr	r3, [r3, #112]	@ 0x70
 8002888:	f003 0302 	and.w	r3, r3, #2
 800288c:	2b00      	cmp	r3, #0
 800288e:	d1ee      	bne.n	800286e <HAL_RCC_OscConfig+0x3b2>
        }
      }
    }

    /* Restore clock configuration if changed */
    if (pwrclkchanged == SET)
 8002890:	7dfb      	ldrb	r3, [r7, #23]
 8002892:	2b01      	cmp	r3, #1
 8002894:	d105      	bne.n	80028a2 <HAL_RCC_OscConfig+0x3e6>
    {
      __HAL_RCC_PWR_CLK_DISABLE();
 8002896:	4b3c      	ldr	r3, [pc, #240]	@ (8002988 <HAL_RCC_OscConfig+0x4cc>)
 8002898:	6c1b      	ldr	r3, [r3, #64]	@ 0x40
 800289a:	4a3b      	ldr	r2, [pc, #236]	@ (8002988 <HAL_RCC_OscConfig+0x4cc>)
 800289c:	f023 5380 	bic.w	r3, r3, #268435456	@ 0x10000000
 80028a0:	6413      	str	r3, [r2, #64]	@ 0x40
    }
  }
  /*-------------------------------- PLL Configuration -----------------------*/
  /* Check the parameters */
  assert_param(IS_RCC_PLL(RCC_OscInitStruct->PLL.PLLState));
  if ((RCC_OscInitStruct->PLL.PLLState) != RCC_PLL_NONE)
 80028a2:	687b      	ldr	r3, [r7, #4]
 80028a4:	699b      	ldr	r3, [r3, #24]
 80028a6:	2b00      	cmp	r3, #0
 80028a8:	f000 80a4 	beq.w	80029f4 <HAL_RCC_OscConfig+0x538>
  {
    /* Check if the PLL is used as system clock or not */
    if (__HAL_RCC_GET_SYSCLK_SOURCE() != RCC_SYSCLKSOURCE_STATUS_PLLCLK)
 80028ac:	4b36      	ldr	r3, [pc, #216]	@ (8002988 <HAL_RCC_OscConfig+0x4cc>)
 80028ae:	689b      	ldr	r3, [r3, #8]
 80028b0:	f003 030c 	and.w	r3, r3, #12
 80028b4:	2b08      	cmp	r3, #8
 80028b6:	d06b      	beq.n	8002990 <HAL_RCC_OscConfig+0x4d4>
    {
      if ((RCC_OscInitStruct->PLL.PLLState) == RCC_PLL_ON)
 80028b8:	687b      	ldr	r3, [r7, #4]
 80028ba:	699b      	ldr	r3, [r3, #24]
 80028bc:	2b02      	cmp	r3, #2
 80028be:	d149      	bne.n	8002954 <HAL_RCC_OscConfig+0x498>
#if defined (RCC_PLLCFGR_PLLR)
        assert_param(IS_RCC_PLLR_VALUE(RCC_OscInitStruct->PLL.PLLR));
#endif

        /* Disable the main PLL. */
        __HAL_RCC_PLL_DISABLE();
 80028c0:	4b31      	ldr	r3, [pc, #196]	@ (8002988 <HAL_RCC_OscConfig+0x4cc>)
 80028c2:	681b      	ldr	r3, [r3, #0]
 80028c4:	4a30      	ldr	r2, [pc, #192]	@ (8002988 <HAL_RCC_OscConfig+0x4cc>)
 80028c6:	f023 7380 	bic.w	r3, r3, #16777216	@ 0x1000000
 80028ca:	6013      	str	r3, [r2, #0]

        /* Get Start Tick*/
        tickstart = HAL_GetTick();
 80028cc:	f7fe fed2 	bl	8001674 <HAL_GetTick>
 80028d0:	6138      	str	r0, [r7, #16]

        /* Wait till PLL is ready */
        while (__HAL_RCC_GET_FLAG(RCC_FLAG_PLLRDY) != RESET)
 80028d2:	e008      	b.n	80028e6 <HAL_RCC_OscConfig+0x42a>
        {
          if ((HAL_GetTick() - tickstart) > PLL_TIMEOUT_VALUE)
 80028d4:	f7fe fece 	bl	8001674 <HAL_GetTick>
 80028d8:	4602      	mov	r2, r0
 80028da:	693b      	ldr	r3, [r7, #16]
 80028dc:	1ad3      	subs	r3, r2, r3
 80028de:	2b02      	cmp	r3, #2
 80028e0:	d901      	bls.n	80028e6 <HAL_RCC_OscConfig+0x42a>
          {
            return HAL_TIMEOUT;
 80028e2:	2303      	movs	r3, #3
 80028e4:	e087      	b.n	80029f6 <HAL_RCC_OscConfig+0x53a>
        while (__HAL_RCC_GET_FLAG(RCC_FLAG_PLLRDY) != RESET)
 80028e6:	4b28      	ldr	r3, [pc, #160]	@ (8002988 <HAL_RCC_OscConfig+0x4cc>)
 80028e8:	681b      	ldr	r3, [r3, #0]
 80028ea:	f003 7300 	and.w	r3, r3, #33554432	@ 0x2000000
 80028ee:	2b00      	cmp	r3, #0
 80028f0:	d1f0      	bne.n	80028d4 <HAL_RCC_OscConfig+0x418>
                             RCC_OscInitStruct->PLL.PLLN,
                             RCC_OscInitStruct->PLL.PLLP,
                             RCC_OscInitStruct->PLL.PLLQ,
                             RCC_OscInitStruct->PLL.PLLR);
#else
        __HAL_RCC_PLL_CONFIG(RCC_OscInitStruct->PLL.PLLSource,
 80028f2:	687b      	ldr	r3, [r7, #4]
 80028f4:	69da      	ldr	r2, [r3, #28]
 80028f6:	687b      	ldr	r3, [r7, #4]
 80028f8:	6a1b      	ldr	r3, [r3, #32]
 80028fa:	431a      	orrs	r2, r3
 80028fc:	687b      	ldr	r3, [r7, #4]
 80028fe:	6a5b      	ldr	r3, [r3, #36]	@ 0x24
 8002900:	019b      	lsls	r3, r3, #6
 8002902:	431a      	orrs	r2, r3
 8002904:	687b      	ldr	r3, [r7, #4]
 8002906:	6a9b      	ldr	r3, [r3, #40]	@ 0x28
 8002908:	085b      	lsrs	r3, r3, #1
 800290a:	3b01      	subs	r3, #1
 800290c:	041b      	lsls	r3, r3, #16
 800290e:	431a      	orrs	r2, r3
 8002910:	687b      	ldr	r3, [r7, #4]
 8002912:	6adb      	ldr	r3, [r3, #44]	@ 0x2c
 8002914:	061b      	lsls	r3, r3, #24
 8002916:	4313      	orrs	r3, r2
 8002918:	4a1b      	ldr	r2, [pc, #108]	@ (8002988 <HAL_RCC_OscConfig+0x4cc>)
 800291a:	f043 5300 	orr.w	r3, r3, #536870912	@ 0x20000000
 800291e:	6053      	str	r3, [r2, #4]
                             RCC_OscInitStruct->PLL.PLLP,
                             RCC_OscInitStruct->PLL.PLLQ);
#endif

        /* Enable the main PLL. */
        __HAL_RCC_PLL_ENABLE();
 8002920:	4b19      	ldr	r3, [pc, #100]	@ (8002988 <HAL_RCC_OscConfig+0x4cc>)
 8002922:	681b      	ldr	r3, [r3, #0]
 8002924:	4a18      	ldr	r2, [pc, #96]	@ (8002988 <HAL_RCC_OscConfig+0x4cc>)
 8002926:	f043 7380 	orr.w	r3, r3, #16777216	@ 0x1000000
 800292a:	6013      	str	r3, [r2, #0]

        /* Get Start Tick*/
        tickstart = HAL_GetTick();
 800292c:	f7fe fea2 	bl	8001674 <HAL_GetTick>
 8002930:	6138      	str	r0, [r7, #16]

        /* Wait till PLL is ready */
        while (__HAL_RCC_GET_FLAG(RCC_FLAG_PLLRDY) == RESET)
 8002932:	e008      	b.n	8002946 <HAL_RCC_OscConfig+0x48a>
        {
          if ((HAL_GetTick() - tickstart) > PLL_TIMEOUT_VALUE)
 8002934:	f7fe fe9e 	bl	8001674 <HAL_GetTick>
 8002938:	4602      	mov	r2, r0
 800293a:	693b      	ldr	r3, [r7, #16]
 800293c:	1ad3      	subs	r3, r2, r3
 800293e:	2b02      	cmp	r3, #2
 8002940:	d901      	bls.n	8002946 <HAL_RCC_OscConfig+0x48a>
          {
            return HAL_TIMEOUT;
 8002942:	2303      	movs	r3, #3
 8002944:	e057      	b.n	80029f6 <HAL_RCC_OscConfig+0x53a>
        while (__HAL_RCC_GET_FLAG(RCC_FLAG_PLLRDY) == RESET)
 8002946:	4b10      	ldr	r3, [pc, #64]	@ (8002988 <HAL_RCC_OscConfig+0x4cc>)
 8002948:	681b      	ldr	r3, [r3, #0]
 800294a:	f003 7300 	and.w	r3, r3, #33554432	@ 0x2000000
 800294e:	2b00      	cmp	r3, #0
 8002950:	d0f0      	beq.n	8002934 <HAL_RCC_OscConfig+0x478>
 8002952:	e04f      	b.n	80029f4 <HAL_RCC_OscConfig+0x538>
        }
      }
      else
      {
        /* Disable the main PLL. */
        __HAL_RCC_PLL_DISABLE();
 8002954:	4b0c      	ldr	r3, [pc, #48]	@ (8002988 <HAL_RCC_OscConfig+0x4cc>)
 8002956:	681b      	ldr	r3, [r3, #0]
 8002958:	4a0b      	ldr	r2, [pc, #44]	@ (8002988 <HAL_RCC_OscConfig+0x4cc>)
 800295a:	f023 7380 	bic.w	r3, r3, #16777216	@ 0x1000000
 800295e:	6013      	str	r3, [r2, #0]

        /* Get Start Tick*/
        tickstart = HAL_GetTick();
 8002960:	f7fe fe88 	bl	8001674 <HAL_GetTick>
 8002964:	6138      	str	r0, [r7, #16]

        /* Wait till PLL is ready */
        while (__HAL_RCC_GET_FLAG(RCC_FLAG_PLLRDY) != RESET)
 8002966:	e008      	b.n	800297a <HAL_RCC_OscConfig+0x4be>
        {
          if ((HAL_GetTick() - tickstart) > PLL_TIMEOUT_VALUE)
 8002968:	f7fe fe84 	bl	8001674 <HAL_GetTick>
 800296c:	4602      	mov	r2, r0
 800296e:	693b      	ldr	r3, [r7, #16]
 8002970:	1ad3      	subs	r3, r2, r3
 8002972:	2b02      	cmp	r3, #2
 8002974:	d901      	bls.n	800297a <HAL_RCC_OscConfig+0x4be>
          {
            return HAL_TIMEOUT;
 8002976:	2303      	movs	r3, #3
 8002978:	e03d      	b.n	80029f6 <HAL_RCC_OscConfig+0x53a>
        while (__HAL_RCC_GET_FLAG(RCC_FLAG_PLLRDY) != RESET)
 800297a:	4b03      	ldr	r3, [pc, #12]	@ (8002988 <HAL_RCC_OscConfig+0x4cc>)
 800297c:	681b      	ldr	r3, [r3, #0]
 800297e:	f003 7300 	and.w	r3, r3, #33554432	@ 0x2000000
 8002982:	2b00      	cmp	r3, #0
 8002984:	d1f0      	bne.n	8002968 <HAL_RCC_OscConfig+0x4ac>
 8002986:	e035      	b.n	80029f4 <HAL_RCC_OscConfig+0x538>
 8002988:	40023800 	.word	0x40023800
 800298c:	40007000 	.word	0x40007000
      }
    }
    else
    {
      /* Do not return HAL_ERROR if request repeats the current configuration */
      pll_config = RCC->PLLCFGR;
 8002990:	4b1b      	ldr	r3, [pc, #108]	@ (8002a00 <HAL_RCC_OscConfig+0x544>)
 8002992:	685b      	ldr	r3, [r3, #4]
 8002994:	60fb      	str	r3, [r7, #12]
          (READ_BIT(pll_config, RCC_PLLCFGR_PLLN) != (RCC_OscInitStruct->PLL.PLLN << RCC_PLLCFGR_PLLN_Pos)) ||
          (READ_BIT(pll_config, RCC_PLLCFGR_PLLP) != ((((RCC_OscInitStruct->PLL.PLLP) >> 1U) - 1U) << RCC_PLLCFGR_PLLP_Pos)) ||
          (READ_BIT(pll_config, RCC_PLLCFGR_PLLQ) != (RCC_OscInitStruct->PLL.PLLQ << RCC_PLLCFGR_PLLQ_Pos)) ||
          (READ_BIT(pll_config, RCC_PLLCFGR_PLLR) != (RCC_OscInitStruct->PLL.PLLR << RCC_PLLCFGR_PLLR_Pos)))
#else
      if (((RCC_OscInitStruct->PLL.PLLState) == RCC_PLL_OFF) ||
 8002996:	687b      	ldr	r3, [r7, #4]
 8002998:	699b      	ldr	r3, [r3, #24]
 800299a:	2b01      	cmp	r3, #1
 800299c:	d028      	beq.n	80029f0 <HAL_RCC_OscConfig+0x534>
          (READ_BIT(pll_config, RCC_PLLCFGR_PLLSRC) != RCC_OscInitStruct->PLL.PLLSource) ||
 800299e:	68fb      	ldr	r3, [r7, #12]
 80029a0:	f403 0280 	and.w	r2, r3, #4194304	@ 0x400000
 80029a4:	687b      	ldr	r3, [r7, #4]
 80029a6:	69db      	ldr	r3, [r3, #28]
      if (((RCC_OscInitStruct->PLL.PLLState) == RCC_PLL_OFF) ||
 80029a8:	429a      	cmp	r2, r3
 80029aa:	d121      	bne.n	80029f0 <HAL_RCC_OscConfig+0x534>
          (READ_BIT(pll_config, RCC_PLLCFGR_PLLM) != RCC_OscInitStruct->PLL.PLLM) ||
 80029ac:	68fb      	ldr	r3, [r7, #12]
 80029ae:	f003 023f 	and.w	r2, r3, #63	@ 0x3f
 80029b2:	687b      	ldr	r3, [r7, #4]
 80029b4:	6a1b      	ldr	r3, [r3, #32]
          (READ_BIT(pll_config, RCC_PLLCFGR_PLLSRC) != RCC_OscInitStruct->PLL.PLLSource) ||
 80029b6:	429a      	cmp	r2, r3
 80029b8:	d11a      	bne.n	80029f0 <HAL_RCC_OscConfig+0x534>
          (READ_BIT(pll_config, RCC_PLLCFGR_PLLN) != (RCC_OscInitStruct->PLL.PLLN << RCC_PLLCFGR_PLLN_Pos)) ||
 80029ba:	68fa      	ldr	r2, [r7, #12]
 80029bc:	f647 73c0 	movw	r3, #32704	@ 0x7fc0
 80029c0:	4013      	ands	r3, r2
 80029c2:	687a      	ldr	r2, [r7, #4]
 80029c4:	6a52      	ldr	r2, [r2, #36]	@ 0x24
 80029c6:	0192      	lsls	r2, r2, #6
          (READ_BIT(pll_config, RCC_PLLCFGR_PLLM) != RCC_OscInitStruct->PLL.PLLM) ||
 80029c8:	4293      	cmp	r3, r2
 80029ca:	d111      	bne.n	80029f0 <HAL_RCC_OscConfig+0x534>
          (READ_BIT(pll_config, RCC_PLLCFGR_PLLP) != ((((RCC_OscInitStruct->PLL.PLLP) >> 1U) - 1U) << RCC_PLLCFGR_PLLP_Pos)) ||
 80029cc:	68fb      	ldr	r3, [r7, #12]
 80029ce:	f403 3240 	and.w	r2, r3, #196608	@ 0x30000
 80029d2:	687b      	ldr	r3, [r7, #4]
 80029d4:	6a9b      	ldr	r3, [r3, #40]	@ 0x28
 80029d6:	085b      	lsrs	r3, r3, #1
 80029d8:	3b01      	subs	r3, #1
 80029da:	041b      	lsls	r3, r3, #16
          (READ_BIT(pll_config, RCC_PLLCFGR_PLLN) != (RCC_OscInitStruct->PLL.PLLN << RCC_PLLCFGR_PLLN_Pos)) ||
 80029dc:	429a      	cmp	r2, r3
 80029de:	d107      	bne.n	80029f0 <HAL_RCC_OscConfig+0x534>
          (READ_BIT(pll_config, RCC_PLLCFGR_PLLQ) != (RCC_OscInitStruct->PLL.PLLQ << RCC_PLLCFGR_PLLQ_Pos)))
 80029e0:	68fb      	ldr	r3, [r7, #12]
 80029e2:	f003 6270 	and.w	r2, r3, #251658240	@ 0xf000000
 80029e6:	687b      	ldr	r3, [r7, #4]
 80029e8:	6adb      	ldr	r3, [r3, #44]	@ 0x2c
 80029ea:	061b      	lsls	r3, r3, #24
          (READ_BIT(pll_config, RCC_PLLCFGR_PLLP) != ((((RCC_OscInitStruct->PLL.PLLP) >> 1U) - 1U) << RCC_PLLCFGR_PLLP_Pos)) ||
 80029ec:	429a      	cmp	r2, r3
 80029ee:	d001      	beq.n	80029f4 <HAL_RCC_OscConfig+0x538>
#endif
      {
        return HAL_ERROR;
 80029f0:	2301      	movs	r3, #1
 80029f2:	e000      	b.n	80029f6 <HAL_RCC_OscConfig+0x53a>
      }
    }
  }
  return HAL_OK;
 80029f4:	2300      	movs	r3, #0
}
 80029f6:	4618      	mov	r0, r3
 80029f8:	3718      	adds	r7, #24
 80029fa:	46bd      	mov	sp, r7
 80029fc:	bd80      	pop	{r7, pc}
 80029fe:	bf00      	nop
 8002a00:	40023800 	.word	0x40023800

08002a04 <HAL_RCC_ClockConfig>:
  *         HPRE[3:0] bits to ensure that HCLK not exceed the maximum allowed frequency
  *         (for more details refer to section above "Initialization/de-initialization functions")
  * @retval None
  */
HAL_StatusTypeDef HAL_RCC_ClockConfig(RCC_ClkInitTypeDef  *RCC_ClkInitStruct, uint32_t FLatency)
{
 8002a04:	b580      	push	{r7, lr}
 8002a06:	b084      	sub	sp, #16
 8002a08:	af00      	add	r7, sp, #0
 8002a0a:	6078      	str	r0, [r7, #4]
 8002a0c:	6039      	str	r1, [r7, #0]
  uint32_t tickstart = 0;
 8002a0e:	2300      	movs	r3, #0
 8002a10:	60fb      	str	r3, [r7, #12]

  /* Check Null pointer */
  if (RCC_ClkInitStruct == NULL)
 8002a12:	687b      	ldr	r3, [r7, #4]
 8002a14:	2b00      	cmp	r3, #0
 8002a16:	d101      	bne.n	8002a1c <HAL_RCC_ClockConfig+0x18>
  {
    return HAL_ERROR;
 8002a18:	2301      	movs	r3, #1
 8002a1a:	e0d0      	b.n	8002bbe <HAL_RCC_ClockConfig+0x1ba>
  /* To correctly read data from FLASH memory, the number of wait states (LATENCY)
     must be correctly programmed according to the frequency of the CPU clock
     (HCLK) and the supply voltage of the device. */

  /* Increasing the CPU frequency */
  if (FLatency > __HAL_FLASH_GET_LATENCY())
 8002a1c:	4b6a      	ldr	r3, [pc, #424]	@ (8002bc8 <HAL_RCC_ClockConfig+0x1c4>)
 8002a1e:	681b      	ldr	r3, [r3, #0]
 8002a20:	f003 030f 	and.w	r3, r3, #15
 8002a24:	683a      	ldr	r2, [r7, #0]
 8002a26:	429a      	cmp	r2, r3
 8002a28:	d910      	bls.n	8002a4c <HAL_RCC_ClockConfig+0x48>
  {
    /* Program the new number of wait states to the LATENCY bits in the FLASH_ACR register */
    __HAL_FLASH_SET_LATENCY(FLatency);
 8002a2a:	4b67      	ldr	r3, [pc, #412]	@ (8002bc8 <HAL_RCC_ClockConfig+0x1c4>)
 8002a2c:	681b      	ldr	r3, [r3, #0]
 8002a2e:	f023 020f 	bic.w	r2, r3, #15
 8002a32:	4965      	ldr	r1, [pc, #404]	@ (8002bc8 <HAL_RCC_ClockConfig+0x1c4>)
 8002a34:	683b      	ldr	r3, [r7, #0]
 8002a36:	4313      	orrs	r3, r2
 8002a38:	600b      	str	r3, [r1, #0]

    /* Check that the new number of wait states is taken into account to access the Flash
    memory by reading the FLASH_ACR register */
    if (__HAL_FLASH_GET_LATENCY() != FLatency)
 8002a3a:	4b63      	ldr	r3, [pc, #396]	@ (8002bc8 <HAL_RCC_ClockConfig+0x1c4>)
 8002a3c:	681b      	ldr	r3, [r3, #0]
 8002a3e:	f003 030f 	and.w	r3, r3, #15
 8002a42:	683a      	ldr	r2, [r7, #0]
 8002a44:	429a      	cmp	r2, r3
 8002a46:	d001      	beq.n	8002a4c <HAL_RCC_ClockConfig+0x48>
    {
      return HAL_ERROR;
 8002a48:	2301      	movs	r3, #1
 8002a4a:	e0b8      	b.n	8002bbe <HAL_RCC_ClockConfig+0x1ba>
    }
  }

  /*-------------------------- HCLK Configuration --------------------------*/
  if (((RCC_ClkInitStruct->ClockType) & RCC_CLOCKTYPE_HCLK) == RCC_CLOCKTYPE_HCLK)
 8002a4c:	687b      	ldr	r3, [r7, #4]
 8002a4e:	681b      	ldr	r3, [r3, #0]
 8002a50:	f003 0302 	and.w	r3, r3, #2
 8002a54:	2b00      	cmp	r3, #0
 8002a56:	d020      	beq.n	8002a9a <HAL_RCC_ClockConfig+0x96>
  {
    /* Set the highest APBx dividers in order to ensure that we do not go through
       a non-spec phase whatever we decrease or increase HCLK. */
    if (((RCC_ClkInitStruct->ClockType) & RCC_CLOCKTYPE_PCLK1) == RCC_CLOCKTYPE_PCLK1)
 8002a58:	687b      	ldr	r3, [r7, #4]
 8002a5a:	681b      	ldr	r3, [r3, #0]
 8002a5c:	f003 0304 	and.w	r3, r3, #4
 8002a60:	2b00      	cmp	r3, #0
 8002a62:	d005      	beq.n	8002a70 <HAL_RCC_ClockConfig+0x6c>
    {
      MODIFY_REG(RCC->CFGR, RCC_CFGR_PPRE1, RCC_HCLK_DIV16);
 8002a64:	4b59      	ldr	r3, [pc, #356]	@ (8002bcc <HAL_RCC_ClockConfig+0x1c8>)
 8002a66:	689b      	ldr	r3, [r3, #8]
 8002a68:	4a58      	ldr	r2, [pc, #352]	@ (8002bcc <HAL_RCC_ClockConfig+0x1c8>)
 8002a6a:	f443 53e0 	orr.w	r3, r3, #7168	@ 0x1c00
 8002a6e:	6093      	str	r3, [r2, #8]
    }

    if (((RCC_ClkInitStruct->ClockType) & RCC_CLOCKTYPE_PCLK2) == RCC_CLOCKTYPE_PCLK2)
 8002a70:	687b      	ldr	r3, [r7, #4]
 8002a72:	681b      	ldr	r3, [r3, #0]
 8002a74:	f003 0308 	and.w	r3, r3, #8
 8002a78:	2b00      	cmp	r3, #0
 8002a7a:	d005      	beq.n	8002a88 <HAL_RCC_ClockConfig+0x84>
    {
      MODIFY_REG(RCC->CFGR, RCC_CFGR_PPRE2, (RCC_HCLK_DIV16 << 3));
 8002a7c:	4b53      	ldr	r3, [pc, #332]	@ (8002bcc <HAL_RCC_ClockConfig+0x1c8>)
 8002a7e:	689b      	ldr	r3, [r3, #8]
 8002a80:	4a52      	ldr	r2, [pc, #328]	@ (8002bcc <HAL_RCC_ClockConfig+0x1c8>)
 8002a82:	f443 4360 	orr.w	r3, r3, #57344	@ 0xe000
 8002a86:	6093      	str	r3, [r2, #8]
    }

    /* Set the new HCLK clock divider */
    assert_param(IS_RCC_HCLK(RCC_ClkInitStruct->AHBCLKDivider));
    MODIFY_REG(RCC->CFGR, RCC_CFGR_HPRE, RCC_ClkInitStruct->AHBCLKDivider);
 8002a88:	4b50      	ldr	r3, [pc, #320]	@ (8002bcc <HAL_RCC_ClockConfig+0x1c8>)
 8002a8a:	689b      	ldr	r3, [r3, #8]
 8002a8c:	f023 02f0 	bic.w	r2, r3, #240	@ 0xf0
 8002a90:	687b      	ldr	r3, [r7, #4]
 8002a92:	689b      	ldr	r3, [r3, #8]
 8002a94:	494d      	ldr	r1, [pc, #308]	@ (8002bcc <HAL_RCC_ClockConfig+0x1c8>)
 8002a96:	4313      	orrs	r3, r2
 8002a98:	608b      	str	r3, [r1, #8]
  }

  /*------------------------- SYSCLK Configuration ---------------------------*/
  if (((RCC_ClkInitStruct->ClockType) & RCC_CLOCKTYPE_SYSCLK) == RCC_CLOCKTYPE_SYSCLK)
 8002a9a:	687b      	ldr	r3, [r7, #4]
 8002a9c:	681b      	ldr	r3, [r3, #0]
 8002a9e:	f003 0301 	and.w	r3, r3, #1
 8002aa2:	2b00      	cmp	r3, #0
 8002aa4:	d040      	beq.n	8002b28 <HAL_RCC_ClockConfig+0x124>
  {
    assert_param(IS_RCC_SYSCLKSOURCE(RCC_ClkInitStruct->SYSCLKSource));

    /* HSE is selected as System Clock Source */
    if (RCC_ClkInitStruct->SYSCLKSource == RCC_SYSCLKSOURCE_HSE)
 8002aa6:	687b      	ldr	r3, [r7, #4]
 8002aa8:	685b      	ldr	r3, [r3, #4]
 8002aaa:	2b01      	cmp	r3, #1
 8002aac:	d107      	bne.n	8002abe <HAL_RCC_ClockConfig+0xba>
    {
      /* Check the HSE ready flag */
      if (__HAL_RCC_GET_FLAG(RCC_FLAG_HSERDY) == RESET)
 8002aae:	4b47      	ldr	r3, [pc, #284]	@ (8002bcc <HAL_RCC_ClockConfig+0x1c8>)
 8002ab0:	681b      	ldr	r3, [r3, #0]
 8002ab2:	f403 3300 	and.w	r3, r3, #131072	@ 0x20000
 8002ab6:	2b00      	cmp	r3, #0
 8002ab8:	d115      	bne.n	8002ae6 <HAL_RCC_ClockConfig+0xe2>
      {
        return HAL_ERROR;
 8002aba:	2301      	movs	r3, #1
 8002abc:	e07f      	b.n	8002bbe <HAL_RCC_ClockConfig+0x1ba>
      }
    }
    /* PLL is selected as System Clock Source */
    else if (RCC_ClkInitStruct->SYSCLKSource == RCC_SYSCLKSOURCE_PLLCLK)
 8002abe:	687b      	ldr	r3, [r7, #4]
 8002ac0:	685b      	ldr	r3, [r3, #4]
 8002ac2:	2b02      	cmp	r3, #2
 8002ac4:	d107      	bne.n	8002ad6 <HAL_RCC_ClockConfig+0xd2>
    {
      /* Check the PLL ready flag */
      if (__HAL_RCC_GET_FLAG(RCC_FLAG_PLLRDY) == RESET)
 8002ac6:	4b41      	ldr	r3, [pc, #260]	@ (8002bcc <HAL_RCC_ClockConfig+0x1c8>)
 8002ac8:	681b      	ldr	r3, [r3, #0]
 8002aca:	f003 7300 	and.w	r3, r3, #33554432	@ 0x2000000
 8002ace:	2b00      	cmp	r3, #0
 8002ad0:	d109      	bne.n	8002ae6 <HAL_RCC_ClockConfig+0xe2>
      {
        return HAL_ERROR;
 8002ad2:	2301      	movs	r3, #1
 8002ad4:	e073      	b.n	8002bbe <HAL_RCC_ClockConfig+0x1ba>
    }
    /* HSI is selected as System Clock Source */
    else
    {
      /* Check the HSI ready flag */
      if (__HAL_RCC_GET_FLAG(RCC_FLAG_HSIRDY) == RESET)
 8002ad6:	4b3d      	ldr	r3, [pc, #244]	@ (8002bcc <HAL_RCC_ClockConfig+0x1c8>)
 8002ad8:	681b      	ldr	r3, [r3, #0]
 8002ada:	f003 0302 	and.w	r3, r3, #2
 8002ade:	2b00      	cmp	r3, #0
 8002ae0:	d101      	bne.n	8002ae6 <HAL_RCC_ClockConfig+0xe2>
      {
        return HAL_ERROR;
 8002ae2:	2301      	movs	r3, #1
 8002ae4:	e06b      	b.n	8002bbe <HAL_RCC_ClockConfig+0x1ba>
      }
    }

    __HAL_RCC_SYSCLK_CONFIG(RCC_ClkInitStruct->SYSCLKSource);
 8002ae6:	4b39      	ldr	r3, [pc, #228]	@ (8002bcc <HAL_RCC_ClockConfig+0x1c8>)
 8002ae8:	689b      	ldr	r3, [r3, #8]
 8002aea:	f023 0203 	bic.w	r2, r3, #3
 8002aee:	687b      	ldr	r3, [r7, #4]
 8002af0:	685b      	ldr	r3, [r3, #4]
 8002af2:	4936      	ldr	r1, [pc, #216]	@ (8002bcc <HAL_RCC_ClockConfig+0x1c8>)
 8002af4:	4313      	orrs	r3, r2
 8002af6:	608b      	str	r3, [r1, #8]

    /* Get Start Tick*/
    tickstart = HAL_GetTick();
 8002af8:	f7fe fdbc 	bl	8001674 <HAL_GetTick>
 8002afc:	60f8      	str	r0, [r7, #12]

    while (__HAL_RCC_GET_SYSCLK_SOURCE() != (RCC_ClkInitStruct->SYSCLKSource << RCC_CFGR_SWS_Pos))
 8002afe:	e00a      	b.n	8002b16 <HAL_RCC_ClockConfig+0x112>
    {
      if ((HAL_GetTick() - tickstart) > CLOCKSWITCH_TIMEOUT_VALUE)
 8002b00:	f7fe fdb8 	bl	8001674 <HAL_GetTick>
 8002b04:	4602      	mov	r2, r0
 8002b06:	68fb      	ldr	r3, [r7, #12]
 8002b08:	1ad3      	subs	r3, r2, r3
 8002b0a:	f241 3288 	movw	r2, #5000	@ 0x1388
 8002b0e:	4293      	cmp	r3, r2
 8002b10:	d901      	bls.n	8002b16 <HAL_RCC_ClockConfig+0x112>
      {
        return HAL_TIMEOUT;
 8002b12:	2303      	movs	r3, #3
 8002b14:	e053      	b.n	8002bbe <HAL_RCC_ClockConfig+0x1ba>
    while (__HAL_RCC_GET_SYSCLK_SOURCE() != (RCC_ClkInitStruct->SYSCLKSource << RCC_CFGR_SWS_Pos))
 8002b16:	4b2d      	ldr	r3, [pc, #180]	@ (8002bcc <HAL_RCC_ClockConfig+0x1c8>)
 8002b18:	689b      	ldr	r3, [r3, #8]
 8002b1a:	f003 020c 	and.w	r2, r3, #12
 8002b1e:	687b      	ldr	r3, [r7, #4]
 8002b20:	685b      	ldr	r3, [r3, #4]
 8002b22:	009b      	lsls	r3, r3, #2
 8002b24:	429a      	cmp	r2, r3
 8002b26:	d1eb      	bne.n	8002b00 <HAL_RCC_ClockConfig+0xfc>
      }
    }
  }

  /* Decreasing the number of wait states because of lower CPU frequency */
  if (FLatency < __HAL_FLASH_GET_LATENCY())
 8002b28:	4b27      	ldr	r3, [pc, #156]	@ (8002bc8 <HAL_RCC_ClockConfig+0x1c4>)
 8002b2a:	681b      	ldr	r3, [r3, #0]
 8002b2c:	f003 030f 	and.w	r3, r3, #15
 8002b30:	683a      	ldr	r2, [r7, #0]
 8002b32:	429a      	cmp	r2, r3
 8002b34:	d210      	bcs.n	8002b58 <HAL_RCC_ClockConfig+0x154>
  {
    /* Program the new number of wait states to the LATENCY bits in the FLASH_ACR register */
    __HAL_FLASH_SET_LATENCY(FLatency);
 8002b36:	4b24      	ldr	r3, [pc, #144]	@ (8002bc8 <HAL_RCC_ClockConfig+0x1c4>)
 8002b38:	681b      	ldr	r3, [r3, #0]
 8002b3a:	f023 020f 	bic.w	r2, r3, #15
 8002b3e:	4922      	ldr	r1, [pc, #136]	@ (8002bc8 <HAL_RCC_ClockConfig+0x1c4>)
 8002b40:	683b      	ldr	r3, [r7, #0]
 8002b42:	4313      	orrs	r3, r2
 8002b44:	600b      	str	r3, [r1, #0]

    /* Check that the new number of wait states is taken into account to access the Flash
    memory by reading the FLASH_ACR register */
    if (__HAL_FLASH_GET_LATENCY() != FLatency)
 8002b46:	4b20      	ldr	r3, [pc, #128]	@ (8002bc8 <HAL_RCC_ClockConfig+0x1c4>)
 8002b48:	681b      	ldr	r3, [r3, #0]
 8002b4a:	f003 030f 	and.w	r3, r3, #15
 8002b4e:	683a      	ldr	r2, [r7, #0]
 8002b50:	429a      	cmp	r2, r3
 8002b52:	d001      	beq.n	8002b58 <HAL_RCC_ClockConfig+0x154>
    {
      return HAL_ERROR;
 8002b54:	2301      	movs	r3, #1
 8002b56:	e032      	b.n	8002bbe <HAL_RCC_ClockConfig+0x1ba>
    }
  }

  /*-------------------------- PCLK1 Configuration ---------------------------*/
  if (((RCC_ClkInitStruct->ClockType) & RCC_CLOCKTYPE_PCLK1) == RCC_CLOCKTYPE_PCLK1)
 8002b58:	687b      	ldr	r3, [r7, #4]
 8002b5a:	681b      	ldr	r3, [r3, #0]
 8002b5c:	f003 0304 	and.w	r3, r3, #4
 8002b60:	2b00      	cmp	r3, #0
 8002b62:	d008      	beq.n	8002b76 <HAL_RCC_ClockConfig+0x172>
  {
    assert_param(IS_RCC_PCLK(RCC_ClkInitStruct->APB1CLKDivider));
    MODIFY_REG(RCC->CFGR, RCC_CFGR_PPRE1, RCC_ClkInitStruct->APB1CLKDivider);
 8002b64:	4b19      	ldr	r3, [pc, #100]	@ (8002bcc <HAL_RCC_ClockConfig+0x1c8>)
 8002b66:	689b      	ldr	r3, [r3, #8]
 8002b68:	f423 52e0 	bic.w	r2, r3, #7168	@ 0x1c00
 8002b6c:	687b      	ldr	r3, [r7, #4]
 8002b6e:	68db      	ldr	r3, [r3, #12]
 8002b70:	4916      	ldr	r1, [pc, #88]	@ (8002bcc <HAL_RCC_ClockConfig+0x1c8>)
 8002b72:	4313      	orrs	r3, r2
 8002b74:	608b      	str	r3, [r1, #8]
  }

  /*-------------------------- PCLK2 Configuration ---------------------------*/
  if (((RCC_ClkInitStruct->ClockType) & RCC_CLOCKTYPE_PCLK2) == RCC_CLOCKTYPE_PCLK2)
 8002b76:	687b      	ldr	r3, [r7, #4]
 8002b78:	681b      	ldr	r3, [r3, #0]
 8002b7a:	f003 0308 	and.w	r3, r3, #8
 8002b7e:	2b00      	cmp	r3, #0
 8002b80:	d009      	beq.n	8002b96 <HAL_RCC_ClockConfig+0x192>
  {
    assert_param(IS_RCC_PCLK(RCC_ClkInitStruct->APB2CLKDivider));
    MODIFY_REG(RCC->CFGR, RCC_CFGR_PPRE2, ((RCC_ClkInitStruct->APB2CLKDivider) << 3));
 8002b82:	4b12      	ldr	r3, [pc, #72]	@ (8002bcc <HAL_RCC_ClockConfig+0x1c8>)
 8002b84:	689b      	ldr	r3, [r3, #8]
 8002b86:	f423 4260 	bic.w	r2, r3, #57344	@ 0xe000
 8002b8a:	687b      	ldr	r3, [r7, #4]
 8002b8c:	691b      	ldr	r3, [r3, #16]
 8002b8e:	00db      	lsls	r3, r3, #3
 8002b90:	490e      	ldr	r1, [pc, #56]	@ (8002bcc <HAL_RCC_ClockConfig+0x1c8>)
 8002b92:	4313      	orrs	r3, r2
 8002b94:	608b      	str	r3, [r1, #8]
  }

  /* Update the SystemCoreClock global variable */
  SystemCoreClock = HAL_RCC_GetSysClockFreq() >> AHBPrescTable[(RCC->CFGR & RCC_CFGR_HPRE) >> RCC_CFGR_HPRE_Pos];
 8002b96:	f000 f821 	bl	8002bdc <HAL_RCC_GetSysClockFreq>
 8002b9a:	4602      	mov	r2, r0
 8002b9c:	4b0b      	ldr	r3, [pc, #44]	@ (8002bcc <HAL_RCC_ClockConfig+0x1c8>)
 8002b9e:	689b      	ldr	r3, [r3, #8]
 8002ba0:	091b      	lsrs	r3, r3, #4
 8002ba2:	f003 030f 	and.w	r3, r3, #15
 8002ba6:	490a      	ldr	r1, [pc, #40]	@ (8002bd0 <HAL_RCC_ClockConfig+0x1cc>)
 8002ba8:	5ccb      	ldrb	r3, [r1, r3]
 8002baa:	fa22 f303 	lsr.w	r3, r2, r3
 8002bae:	4a09      	ldr	r2, [pc, #36]	@ (8002bd4 <HAL_RCC_ClockConfig+0x1d0>)
 8002bb0:	6013      	str	r3, [r2, #0]

  /* Configure the source of time base considering new system clocks settings*/
  HAL_InitTick(uwTickPrio);
 8002bb2:	4b09      	ldr	r3, [pc, #36]	@ (8002bd8 <HAL_RCC_ClockConfig+0x1d4>)
 8002bb4:	681b      	ldr	r3, [r3, #0]
 8002bb6:	4618      	mov	r0, r3
 8002bb8:	f7fe fc56 	bl	8001468 <HAL_InitTick>

  return HAL_OK;
 8002bbc:	2300      	movs	r3, #0
}
 8002bbe:	4618      	mov	r0, r3
 8002bc0:	3710      	adds	r7, #16
 8002bc2:	46bd      	mov	sp, r7
 8002bc4:	bd80      	pop	{r7, pc}
 8002bc6:	bf00      	nop
 8002bc8:	40023c00 	.word	0x40023c00
 8002bcc:	40023800 	.word	0x40023800
 8002bd0:	08008184 	.word	0x08008184
 8002bd4:	20000000 	.word	0x20000000
 8002bd8:	20000004 	.word	0x20000004

08002bdc <HAL_RCC_GetSysClockFreq>:
  *
  *
  * @retval SYSCLK frequency
  */
uint32_t HAL_RCC_GetSysClockFreq(void)
{
 8002bdc:	e92d 4fb0 	stmdb	sp!, {r4, r5, r7, r8, r9, sl, fp, lr}
 8002be0:	b090      	sub	sp, #64	@ 0x40
 8002be2:	af00      	add	r7, sp, #0
  uint32_t pllm = 0, pllvco = 0, pllp = 0;
 8002be4:	2300      	movs	r3, #0
 8002be6:	637b      	str	r3, [r7, #52]	@ 0x34
 8002be8:	2300      	movs	r3, #0
 8002bea:	63fb      	str	r3, [r7, #60]	@ 0x3c
 8002bec:	2300      	movs	r3, #0
 8002bee:	633b      	str	r3, [r7, #48]	@ 0x30
  uint32_t sysclockfreq = 0;
 8002bf0:	2300      	movs	r3, #0
 8002bf2:	63bb      	str	r3, [r7, #56]	@ 0x38

  /* Get SYSCLK source -------------------------------------------------------*/
  switch (RCC->CFGR & RCC_CFGR_SWS)
 8002bf4:	4b59      	ldr	r3, [pc, #356]	@ (8002d5c <HAL_RCC_GetSysClockFreq+0x180>)
 8002bf6:	689b      	ldr	r3, [r3, #8]
 8002bf8:	f003 030c 	and.w	r3, r3, #12
 8002bfc:	2b08      	cmp	r3, #8
 8002bfe:	d00d      	beq.n	8002c1c <HAL_RCC_GetSysClockFreq+0x40>
 8002c00:	2b08      	cmp	r3, #8
 8002c02:	f200 80a1 	bhi.w	8002d48 <HAL_RCC_GetSysClockFreq+0x16c>
 8002c06:	2b00      	cmp	r3, #0
 8002c08:	d002      	beq.n	8002c10 <HAL_RCC_GetSysClockFreq+0x34>
 8002c0a:	2b04      	cmp	r3, #4
 8002c0c:	d003      	beq.n	8002c16 <HAL_RCC_GetSysClockFreq+0x3a>
 8002c0e:	e09b      	b.n	8002d48 <HAL_RCC_GetSysClockFreq+0x16c>
  {
    case RCC_SYSCLKSOURCE_STATUS_HSI:  /* HSI used as system clock source */
    {
      sysclockfreq = HSI_VALUE;
 8002c10:	4b53      	ldr	r3, [pc, #332]	@ (8002d60 <HAL_RCC_GetSysClockFreq+0x184>)
 8002c12:	63bb      	str	r3, [r7, #56]	@ 0x38
      break;
 8002c14:	e09b      	b.n	8002d4e <HAL_RCC_GetSysClockFreq+0x172>
    }
    case RCC_SYSCLKSOURCE_STATUS_HSE:  /* HSE used as system clock  source */
    {
      sysclockfreq = HSE_VALUE;
 8002c16:	4b53      	ldr	r3, [pc, #332]	@ (8002d64 <HAL_RCC_GetSysClockFreq+0x188>)
 8002c18:	63bb      	str	r3, [r7, #56]	@ 0x38
      break;
 8002c1a:	e098      	b.n	8002d4e <HAL_RCC_GetSysClockFreq+0x172>
    }
    case RCC_SYSCLKSOURCE_STATUS_PLLCLK:  /* PLL used as system clock  source */
    {
      /* PLL_VCO = (HSE_VALUE or HSI_VALUE / PLLM) * PLLN
      SYSCLK = PLL_VCO / PLLP */
      pllm = RCC->PLLCFGR & RCC_PLLCFGR_PLLM;
 8002c1c:	4b4f      	ldr	r3, [pc, #316]	@ (8002d5c <HAL_RCC_GetSysClockFreq+0x180>)
 8002c1e:	685b      	ldr	r3, [r3, #4]
 8002c20:	f003 033f 	and.w	r3, r3, #63	@ 0x3f
 8002c24:	637b      	str	r3, [r7, #52]	@ 0x34
      if (__HAL_RCC_GET_PLL_OSCSOURCE() != RCC_PLLCFGR_PLLSRC_HSI)
 8002c26:	4b4d      	ldr	r3, [pc, #308]	@ (8002d5c <HAL_RCC_GetSysClockFreq+0x180>)
 8002c28:	685b      	ldr	r3, [r3, #4]
 8002c2a:	f403 0380 	and.w	r3, r3, #4194304	@ 0x400000
 8002c2e:	2b00      	cmp	r3, #0
 8002c30:	d028      	beq.n	8002c84 <HAL_RCC_GetSysClockFreq+0xa8>
      {
        /* HSE used as PLL clock source */
        pllvco = (uint32_t)((((uint64_t) HSE_VALUE * ((uint64_t)((RCC->PLLCFGR & RCC_PLLCFGR_PLLN) >> RCC_PLLCFGR_PLLN_Pos)))) / (uint64_t)pllm);
 8002c32:	4b4a      	ldr	r3, [pc, #296]	@ (8002d5c <HAL_RCC_GetSysClockFreq+0x180>)
 8002c34:	685b      	ldr	r3, [r3, #4]
 8002c36:	099b      	lsrs	r3, r3, #6
 8002c38:	2200      	movs	r2, #0
 8002c3a:	623b      	str	r3, [r7, #32]
 8002c3c:	627a      	str	r2, [r7, #36]	@ 0x24
 8002c3e:	6a3b      	ldr	r3, [r7, #32]
 8002c40:	f3c3 0008 	ubfx	r0, r3, #0, #9
 8002c44:	2100      	movs	r1, #0
 8002c46:	4b47      	ldr	r3, [pc, #284]	@ (8002d64 <HAL_RCC_GetSysClockFreq+0x188>)
 8002c48:	fb03 f201 	mul.w	r2, r3, r1
 8002c4c:	2300      	movs	r3, #0
 8002c4e:	fb00 f303 	mul.w	r3, r0, r3
 8002c52:	4413      	add	r3, r2
 8002c54:	4a43      	ldr	r2, [pc, #268]	@ (8002d64 <HAL_RCC_GetSysClockFreq+0x188>)
 8002c56:	fba0 1202 	umull	r1, r2, r0, r2
 8002c5a:	62fa      	str	r2, [r7, #44]	@ 0x2c
 8002c5c:	460a      	mov	r2, r1
 8002c5e:	62ba      	str	r2, [r7, #40]	@ 0x28
 8002c60:	6afa      	ldr	r2, [r7, #44]	@ 0x2c
 8002c62:	4413      	add	r3, r2
 8002c64:	62fb      	str	r3, [r7, #44]	@ 0x2c
 8002c66:	6b7b      	ldr	r3, [r7, #52]	@ 0x34
 8002c68:	2200      	movs	r2, #0
 8002c6a:	61bb      	str	r3, [r7, #24]
 8002c6c:	61fa      	str	r2, [r7, #28]
 8002c6e:	e9d7 2306 	ldrd	r2, r3, [r7, #24]
 8002c72:	e9d7 010a 	ldrd	r0, r1, [r7, #40]	@ 0x28
 8002c76:	f7fd fad3 	bl	8000220 <__aeabi_uldivmod>
 8002c7a:	4602      	mov	r2, r0
 8002c7c:	460b      	mov	r3, r1
 8002c7e:	4613      	mov	r3, r2
 8002c80:	63fb      	str	r3, [r7, #60]	@ 0x3c
 8002c82:	e053      	b.n	8002d2c <HAL_RCC_GetSysClockFreq+0x150>
      }
      else
      {
        /* HSI used as PLL clock source */
        pllvco = (uint32_t)((((uint64_t) HSI_VALUE * ((uint64_t)((RCC->PLLCFGR & RCC_PLLCFGR_PLLN) >> RCC_PLLCFGR_PLLN_Pos)))) / (uint64_t)pllm);
 8002c84:	4b35      	ldr	r3, [pc, #212]	@ (8002d5c <HAL_RCC_GetSysClockFreq+0x180>)
 8002c86:	685b      	ldr	r3, [r3, #4]
 8002c88:	099b      	lsrs	r3, r3, #6
 8002c8a:	2200      	movs	r2, #0
 8002c8c:	613b      	str	r3, [r7, #16]
 8002c8e:	617a      	str	r2, [r7, #20]
 8002c90:	693b      	ldr	r3, [r7, #16]
 8002c92:	f3c3 0a08 	ubfx	sl, r3, #0, #9
 8002c96:	f04f 0b00 	mov.w	fp, #0
 8002c9a:	4652      	mov	r2, sl
 8002c9c:	465b      	mov	r3, fp
 8002c9e:	f04f 0000 	mov.w	r0, #0
 8002ca2:	f04f 0100 	mov.w	r1, #0
 8002ca6:	0159      	lsls	r1, r3, #5
 8002ca8:	ea41 61d2 	orr.w	r1, r1, r2, lsr #27
 8002cac:	0150      	lsls	r0, r2, #5
 8002cae:	4602      	mov	r2, r0
 8002cb0:	460b      	mov	r3, r1
 8002cb2:	ebb2 080a 	subs.w	r8, r2, sl
 8002cb6:	eb63 090b 	sbc.w	r9, r3, fp
 8002cba:	f04f 0200 	mov.w	r2, #0
 8002cbe:	f04f 0300 	mov.w	r3, #0
 8002cc2:	ea4f 1389 	mov.w	r3, r9, lsl #6
 8002cc6:	ea43 6398 	orr.w	r3, r3, r8, lsr #26
 8002cca:	ea4f 1288 	mov.w	r2, r8, lsl #6
 8002cce:	ebb2 0408 	subs.w	r4, r2, r8
 8002cd2:	eb63 0509 	sbc.w	r5, r3, r9
 8002cd6:	f04f 0200 	mov.w	r2, #0
 8002cda:	f04f 0300 	mov.w	r3, #0
 8002cde:	00eb      	lsls	r3, r5, #3
 8002ce0:	ea43 7354 	orr.w	r3, r3, r4, lsr #29
 8002ce4:	00e2      	lsls	r2, r4, #3
 8002ce6:	4614      	mov	r4, r2
 8002ce8:	461d      	mov	r5, r3
 8002cea:	eb14 030a 	adds.w	r3, r4, sl
 8002cee:	603b      	str	r3, [r7, #0]
 8002cf0:	eb45 030b 	adc.w	r3, r5, fp
 8002cf4:	607b      	str	r3, [r7, #4]
 8002cf6:	f04f 0200 	mov.w	r2, #0
 8002cfa:	f04f 0300 	mov.w	r3, #0
 8002cfe:	e9d7 4500 	ldrd	r4, r5, [r7]
 8002d02:	4629      	mov	r1, r5
 8002d04:	028b      	lsls	r3, r1, #10
 8002d06:	4621      	mov	r1, r4
 8002d08:	ea43 5391 	orr.w	r3, r3, r1, lsr #22
 8002d0c:	4621      	mov	r1, r4
 8002d0e:	028a      	lsls	r2, r1, #10
 8002d10:	4610      	mov	r0, r2
 8002d12:	4619      	mov	r1, r3
 8002d14:	6b7b      	ldr	r3, [r7, #52]	@ 0x34
 8002d16:	2200      	movs	r2, #0
 8002d18:	60bb      	str	r3, [r7, #8]
 8002d1a:	60fa      	str	r2, [r7, #12]
 8002d1c:	e9d7 2302 	ldrd	r2, r3, [r7, #8]
 8002d20:	f7fd fa7e 	bl	8000220 <__aeabi_uldivmod>
 8002d24:	4602      	mov	r2, r0
 8002d26:	460b      	mov	r3, r1
 8002d28:	4613      	mov	r3, r2
 8002d2a:	63fb      	str	r3, [r7, #60]	@ 0x3c
      }
      pllp = ((((RCC->PLLCFGR & RCC_PLLCFGR_PLLP) >> RCC_PLLCFGR_PLLP_Pos) + 1) * 2);
 8002d2c:	4b0b      	ldr	r3, [pc, #44]	@ (8002d5c <HAL_RCC_GetSysClockFreq+0x180>)
 8002d2e:	685b      	ldr	r3, [r3, #4]
 8002d30:	0c1b      	lsrs	r3, r3, #16
 8002d32:	f003 0303 	and.w	r3, r3, #3
 8002d36:	3301      	adds	r3, #1
 8002d38:	005b      	lsls	r3, r3, #1
 8002d3a:	633b      	str	r3, [r7, #48]	@ 0x30

      sysclockfreq = pllvco / pllp;
 8002d3c:	6bfa      	ldr	r2, [r7, #60]	@ 0x3c
 8002d3e:	6b3b      	ldr	r3, [r7, #48]	@ 0x30
 8002d40:	fbb2 f3f3 	udiv	r3, r2, r3
 8002d44:	63bb      	str	r3, [r7, #56]	@ 0x38
      break;
 8002d46:	e002      	b.n	8002d4e <HAL_RCC_GetSysClockFreq+0x172>
    }
    default:
    {
      sysclockfreq = HSI_VALUE;
 8002d48:	4b05      	ldr	r3, [pc, #20]	@ (8002d60 <HAL_RCC_GetSysClockFreq+0x184>)
 8002d4a:	63bb      	str	r3, [r7, #56]	@ 0x38
      break;
 8002d4c:	bf00      	nop
    }
  }
  return sysclockfreq;
 8002d4e:	6bbb      	ldr	r3, [r7, #56]	@ 0x38
}
 8002d50:	4618      	mov	r0, r3
 8002d52:	3740      	adds	r7, #64	@ 0x40
 8002d54:	46bd      	mov	sp, r7
 8002d56:	e8bd 8fb0 	ldmia.w	sp!, {r4, r5, r7, r8, r9, sl, fp, pc}
 8002d5a:	bf00      	nop
 8002d5c:	40023800 	.word	0x40023800
 8002d60:	00f42400 	.word	0x00f42400
 8002d64:	017d7840 	.word	0x017d7840

08002d68 <HAL_RCC_GetHCLKFreq>:
  *         right HCLK value. Otherwise, any configuration based on this function will be incorrect.
  * @note   The SystemCoreClock CMSIS variable is used to store System Clock Frequency.
  * @retval HCLK frequency
  */
uint32_t HAL_RCC_GetHCLKFreq(void)
{
 8002d68:	b480      	push	{r7}
 8002d6a:	af00      	add	r7, sp, #0
  return SystemCoreClock;
 8002d6c:	4b03      	ldr	r3, [pc, #12]	@ (8002d7c <HAL_RCC_GetHCLKFreq+0x14>)
 8002d6e:	681b      	ldr	r3, [r3, #0]
}
 8002d70:	4618      	mov	r0, r3
 8002d72:	46bd      	mov	sp, r7
 8002d74:	f85d 7b04 	ldr.w	r7, [sp], #4
 8002d78:	4770      	bx	lr
 8002d7a:	bf00      	nop
 8002d7c:	20000000 	.word	0x20000000

08002d80 <HAL_RCC_GetPCLK1Freq>:
  * @note   Each time PCLK1 changes, this function must be called to update the
  *         right PCLK1 value. Otherwise, any configuration based on this function will be incorrect.
  * @retval PCLK1 frequency
  */
uint32_t HAL_RCC_GetPCLK1Freq(void)
{
 8002d80:	b580      	push	{r7, lr}
 8002d82:	af00      	add	r7, sp, #0
  /* Get HCLK source and Compute PCLK1 frequency ---------------------------*/
  return (HAL_RCC_GetHCLKFreq() >> APBPrescTable[(RCC->CFGR & RCC_CFGR_PPRE1) >> RCC_CFGR_PPRE1_Pos]);
 8002d84:	f7ff fff0 	bl	8002d68 <HAL_RCC_GetHCLKFreq>
 8002d88:	4602      	mov	r2, r0
 8002d8a:	4b05      	ldr	r3, [pc, #20]	@ (8002da0 <HAL_RCC_GetPCLK1Freq+0x20>)
 8002d8c:	689b      	ldr	r3, [r3, #8]
 8002d8e:	0a9b      	lsrs	r3, r3, #10
 8002d90:	f003 0307 	and.w	r3, r3, #7
 8002d94:	4903      	ldr	r1, [pc, #12]	@ (8002da4 <HAL_RCC_GetPCLK1Freq+0x24>)
 8002d96:	5ccb      	ldrb	r3, [r1, r3]
 8002d98:	fa22 f303 	lsr.w	r3, r2, r3
}
 8002d9c:	4618      	mov	r0, r3
 8002d9e:	bd80      	pop	{r7, pc}
 8002da0:	40023800 	.word	0x40023800
 8002da4:	08008194 	.word	0x08008194

08002da8 <HAL_RCC_GetPCLK2Freq>:
  * @note   Each time PCLK2 changes, this function must be called to update the
  *         right PCLK2 value. Otherwise, any configuration based on this function will be incorrect.
  * @retval PCLK2 frequency
  */
uint32_t HAL_RCC_GetPCLK2Freq(void)
{
 8002da8:	b580      	push	{r7, lr}
 8002daa:	af00      	add	r7, sp, #0
  /* Get HCLK source and Compute PCLK2 frequency ---------------------------*/
  return (HAL_RCC_GetHCLKFreq() >> APBPrescTable[(RCC->CFGR & RCC_CFGR_PPRE2) >> RCC_CFGR_PPRE2_Pos]);
 8002dac:	f7ff ffdc 	bl	8002d68 <HAL_RCC_GetHCLKFreq>
 8002db0:	4602      	mov	r2, r0
 8002db2:	4b05      	ldr	r3, [pc, #20]	@ (8002dc8 <HAL_RCC_GetPCLK2Freq+0x20>)
 8002db4:	689b      	ldr	r3, [r3, #8]
 8002db6:	0b5b      	lsrs	r3, r3, #13
 8002db8:	f003 0307 	and.w	r3, r3, #7
 8002dbc:	4903      	ldr	r1, [pc, #12]	@ (8002dcc <HAL_RCC_GetPCLK2Freq+0x24>)
 8002dbe:	5ccb      	ldrb	r3, [r1, r3]
 8002dc0:	fa22 f303 	lsr.w	r3, r2, r3
}
 8002dc4:	4618      	mov	r0, r3
 8002dc6:	bd80      	pop	{r7, pc}
 8002dc8:	40023800 	.word	0x40023800
 8002dcc:	08008194 	.word	0x08008194

08002dd0 <HAL_RCC_GetClockConfig>:
  * will be configured.
  * @param  pFLatency Pointer on the Flash Latency.
  * @retval None
  */
void HAL_RCC_GetClockConfig(RCC_ClkInitTypeDef  *RCC_ClkInitStruct, uint32_t *pFLatency)
{
 8002dd0:	b480      	push	{r7}
 8002dd2:	b083      	sub	sp, #12
 8002dd4:	af00      	add	r7, sp, #0
 8002dd6:	6078      	str	r0, [r7, #4]
 8002dd8:	6039      	str	r1, [r7, #0]
  /* Set all possible values for the Clock type parameter --------------------*/
  RCC_ClkInitStruct->ClockType = RCC_CLOCKTYPE_SYSCLK | RCC_CLOCKTYPE_HCLK | RCC_CLOCKTYPE_PCLK1 | RCC_CLOCKTYPE_PCLK2;
 8002dda:	687b      	ldr	r3, [r7, #4]
 8002ddc:	220f      	movs	r2, #15
 8002dde:	601a      	str	r2, [r3, #0]

  /* Get the SYSCLK configuration --------------------------------------------*/
  RCC_ClkInitStruct->SYSCLKSource = (uint32_t)(RCC->CFGR & RCC_CFGR_SW);
 8002de0:	4b12      	ldr	r3, [pc, #72]	@ (8002e2c <HAL_RCC_GetClockConfig+0x5c>)
 8002de2:	689b      	ldr	r3, [r3, #8]
 8002de4:	f003 0203 	and.w	r2, r3, #3
 8002de8:	687b      	ldr	r3, [r7, #4]
 8002dea:	605a      	str	r2, [r3, #4]

  /* Get the HCLK configuration ----------------------------------------------*/
  RCC_ClkInitStruct->AHBCLKDivider = (uint32_t)(RCC->CFGR & RCC_CFGR_HPRE);
 8002dec:	4b0f      	ldr	r3, [pc, #60]	@ (8002e2c <HAL_RCC_GetClockConfig+0x5c>)
 8002dee:	689b      	ldr	r3, [r3, #8]
 8002df0:	f003 02f0 	and.w	r2, r3, #240	@ 0xf0
 8002df4:	687b      	ldr	r3, [r7, #4]
 8002df6:	609a      	str	r2, [r3, #8]

  /* Get the APB1 configuration ----------------------------------------------*/
  RCC_ClkInitStruct->APB1CLKDivider = (uint32_t)(RCC->CFGR & RCC_CFGR_PPRE1);
 8002df8:	4b0c      	ldr	r3, [pc, #48]	@ (8002e2c <HAL_RCC_GetClockConfig+0x5c>)
 8002dfa:	689b      	ldr	r3, [r3, #8]
 8002dfc:	f403 52e0 	and.w	r2, r3, #7168	@ 0x1c00
 8002e00:	687b      	ldr	r3, [r7, #4]
 8002e02:	60da      	str	r2, [r3, #12]

  /* Get the APB2 configuration ----------------------------------------------*/
  RCC_ClkInitStruct->APB2CLKDivider = (uint32_t)((RCC->CFGR & RCC_CFGR_PPRE2) >> 3);
 8002e04:	4b09      	ldr	r3, [pc, #36]	@ (8002e2c <HAL_RCC_GetClockConfig+0x5c>)
 8002e06:	689b      	ldr	r3, [r3, #8]
 8002e08:	08db      	lsrs	r3, r3, #3
 8002e0a:	f403 52e0 	and.w	r2, r3, #7168	@ 0x1c00
 8002e0e:	687b      	ldr	r3, [r7, #4]
 8002e10:	611a      	str	r2, [r3, #16]

  /* Get the Flash Wait State (Latency) configuration ------------------------*/
  *pFLatency = (uint32_t)(FLASH->ACR & FLASH_ACR_LATENCY);
 8002e12:	4b07      	ldr	r3, [pc, #28]	@ (8002e30 <HAL_RCC_GetClockConfig+0x60>)
 8002e14:	681b      	ldr	r3, [r3, #0]
 8002e16:	f003 020f 	and.w	r2, r3, #15
 8002e1a:	683b      	ldr	r3, [r7, #0]
 8002e1c:	601a      	str	r2, [r3, #0]
}
 8002e1e:	bf00      	nop
 8002e20:	370c      	adds	r7, #12
 8002e22:	46bd      	mov	sp, r7
 8002e24:	f85d 7b04 	ldr.w	r7, [sp], #4
 8002e28:	4770      	bx	lr
 8002e2a:	bf00      	nop
 8002e2c:	40023800 	.word	0x40023800
 8002e30:	40023c00 	.word	0x40023c00

08002e34 <HAL_RCCEx_PeriphCLKConfig>:
  *         the backup registers) are set to their reset values.
  *
  * @retval HAL status
  */
HAL_StatusTypeDef HAL_RCCEx_PeriphCLKConfig(RCC_PeriphCLKInitTypeDef  *PeriphClkInit)
{
 8002e34:	b580      	push	{r7, lr}
 8002e36:	b088      	sub	sp, #32
 8002e38:	af00      	add	r7, sp, #0
 8002e3a:	6078      	str	r0, [r7, #4]
  uint32_t tickstart = 0;
 8002e3c:	2300      	movs	r3, #0
 8002e3e:	617b      	str	r3, [r7, #20]
  uint32_t tmpreg0 = 0;
 8002e40:	2300      	movs	r3, #0
 8002e42:	613b      	str	r3, [r7, #16]
  uint32_t tmpreg1 = 0;
 8002e44:	2300      	movs	r3, #0
 8002e46:	60fb      	str	r3, [r7, #12]
  uint32_t plli2sused = 0;
 8002e48:	2300      	movs	r3, #0
 8002e4a:	61fb      	str	r3, [r7, #28]
  uint32_t pllsaiused = 0;
 8002e4c:	2300      	movs	r3, #0
 8002e4e:	61bb      	str	r3, [r7, #24]

  /* Check the parameters */
  assert_param(IS_RCC_PERIPHCLOCK(PeriphClkInit->PeriphClockSelection));

  /*----------------------------------- I2S configuration ----------------------------------*/
  if(((PeriphClkInit->PeriphClockSelection) & RCC_PERIPHCLK_I2S) == (RCC_PERIPHCLK_I2S))
 8002e50:	687b      	ldr	r3, [r7, #4]
 8002e52:	681b      	ldr	r3, [r3, #0]
 8002e54:	f003 0301 	and.w	r3, r3, #1
 8002e58:	2b00      	cmp	r3, #0
 8002e5a:	d012      	beq.n	8002e82 <HAL_RCCEx_PeriphCLKConfig+0x4e>
  {
    /* Check the parameters */
    assert_param(IS_RCC_I2SCLKSOURCE(PeriphClkInit->I2sClockSelection));

    /* Configure I2S Clock source */
    __HAL_RCC_I2S_CONFIG(PeriphClkInit->I2sClockSelection);
 8002e5c:	4b69      	ldr	r3, [pc, #420]	@ (8003004 <HAL_RCCEx_PeriphCLKConfig+0x1d0>)
 8002e5e:	689b      	ldr	r3, [r3, #8]
 8002e60:	4a68      	ldr	r2, [pc, #416]	@ (8003004 <HAL_RCCEx_PeriphCLKConfig+0x1d0>)
 8002e62:	f423 0300 	bic.w	r3, r3, #8388608	@ 0x800000
 8002e66:	6093      	str	r3, [r2, #8]
 8002e68:	4b66      	ldr	r3, [pc, #408]	@ (8003004 <HAL_RCCEx_PeriphCLKConfig+0x1d0>)
 8002e6a:	689a      	ldr	r2, [r3, #8]
 8002e6c:	687b      	ldr	r3, [r7, #4]
 8002e6e:	6b5b      	ldr	r3, [r3, #52]	@ 0x34
 8002e70:	4964      	ldr	r1, [pc, #400]	@ (8003004 <HAL_RCCEx_PeriphCLKConfig+0x1d0>)
 8002e72:	4313      	orrs	r3, r2
 8002e74:	608b      	str	r3, [r1, #8]

    /* Enable the PLLI2S when it's used as clock source for I2S */
    if(PeriphClkInit->I2sClockSelection == RCC_I2SCLKSOURCE_PLLI2S)
 8002e76:	687b      	ldr	r3, [r7, #4]
 8002e78:	6b5b      	ldr	r3, [r3, #52]	@ 0x34
 8002e7a:	2b00      	cmp	r3, #0
 8002e7c:	d101      	bne.n	8002e82 <HAL_RCCEx_PeriphCLKConfig+0x4e>
    {
      plli2sused = 1;
 8002e7e:	2301      	movs	r3, #1
 8002e80:	61fb      	str	r3, [r7, #28]
    }
  }

  /*------------------------------------ SAI1 configuration --------------------------------------*/
  if(((PeriphClkInit->PeriphClockSelection) & RCC_PERIPHCLK_SAI1) == (RCC_PERIPHCLK_SAI1))
 8002e82:	687b      	ldr	r3, [r7, #4]
 8002e84:	681b      	ldr	r3, [r3, #0]
 8002e86:	f403 2300 	and.w	r3, r3, #524288	@ 0x80000
 8002e8a:	2b00      	cmp	r3, #0
 8002e8c:	d017      	beq.n	8002ebe <HAL_RCCEx_PeriphCLKConfig+0x8a>
  {
    /* Check the parameters */
    assert_param(IS_RCC_SAI1CLKSOURCE(PeriphClkInit->Sai1ClockSelection));

    /* Configure SAI1 Clock source */
    __HAL_RCC_SAI1_CONFIG(PeriphClkInit->Sai1ClockSelection);
 8002e8e:	4b5d      	ldr	r3, [pc, #372]	@ (8003004 <HAL_RCCEx_PeriphCLKConfig+0x1d0>)
 8002e90:	f8d3 308c 	ldr.w	r3, [r3, #140]	@ 0x8c
 8002e94:	f423 1240 	bic.w	r2, r3, #3145728	@ 0x300000
 8002e98:	687b      	ldr	r3, [r7, #4]
 8002e9a:	6bdb      	ldr	r3, [r3, #60]	@ 0x3c
 8002e9c:	4959      	ldr	r1, [pc, #356]	@ (8003004 <HAL_RCCEx_PeriphCLKConfig+0x1d0>)
 8002e9e:	4313      	orrs	r3, r2
 8002ea0:	f8c1 308c 	str.w	r3, [r1, #140]	@ 0x8c
    /* Enable the PLLI2S when it's used as clock source for SAI */
    if(PeriphClkInit->Sai1ClockSelection == RCC_SAI1CLKSOURCE_PLLI2S)
 8002ea4:	687b      	ldr	r3, [r7, #4]
 8002ea6:	6bdb      	ldr	r3, [r3, #60]	@ 0x3c
 8002ea8:	f5b3 1f80 	cmp.w	r3, #1048576	@ 0x100000
 8002eac:	d101      	bne.n	8002eb2 <HAL_RCCEx_PeriphCLKConfig+0x7e>
    {
      plli2sused = 1;
 8002eae:	2301      	movs	r3, #1
 8002eb0:	61fb      	str	r3, [r7, #28]
    }
    /* Enable the PLLSAI when it's used as clock source for SAI */
    if(PeriphClkInit->Sai1ClockSelection == RCC_SAI1CLKSOURCE_PLLSAI)
 8002eb2:	687b      	ldr	r3, [r7, #4]
 8002eb4:	6bdb      	ldr	r3, [r3, #60]	@ 0x3c
 8002eb6:	2b00      	cmp	r3, #0
 8002eb8:	d101      	bne.n	8002ebe <HAL_RCCEx_PeriphCLKConfig+0x8a>
    {
      pllsaiused = 1;
 8002eba:	2301      	movs	r3, #1
 8002ebc:	61bb      	str	r3, [r7, #24]
    }
  }

  /*------------------------------------ SAI2 configuration --------------------------------------*/
  if(((PeriphClkInit->PeriphClockSelection) & RCC_PERIPHCLK_SAI2) == (RCC_PERIPHCLK_SAI2))
 8002ebe:	687b      	ldr	r3, [r7, #4]
 8002ec0:	681b      	ldr	r3, [r3, #0]
 8002ec2:	f403 1380 	and.w	r3, r3, #1048576	@ 0x100000
 8002ec6:	2b00      	cmp	r3, #0
 8002ec8:	d017      	beq.n	8002efa <HAL_RCCEx_PeriphCLKConfig+0xc6>
  {
    /* Check the parameters */
    assert_param(IS_RCC_SAI2CLKSOURCE(PeriphClkInit->Sai2ClockSelection));

    /* Configure SAI2 Clock source */
    __HAL_RCC_SAI2_CONFIG(PeriphClkInit->Sai2ClockSelection);
 8002eca:	4b4e      	ldr	r3, [pc, #312]	@ (8003004 <HAL_RCCEx_PeriphCLKConfig+0x1d0>)
 8002ecc:	f8d3 308c 	ldr.w	r3, [r3, #140]	@ 0x8c
 8002ed0:	f423 0240 	bic.w	r2, r3, #12582912	@ 0xc00000
 8002ed4:	687b      	ldr	r3, [r7, #4]
 8002ed6:	6c1b      	ldr	r3, [r3, #64]	@ 0x40
 8002ed8:	494a      	ldr	r1, [pc, #296]	@ (8003004 <HAL_RCCEx_PeriphCLKConfig+0x1d0>)
 8002eda:	4313      	orrs	r3, r2
 8002edc:	f8c1 308c 	str.w	r3, [r1, #140]	@ 0x8c

    /* Enable the PLLI2S when it's used as clock source for SAI */
    if(PeriphClkInit->Sai2ClockSelection == RCC_SAI2CLKSOURCE_PLLI2S)
 8002ee0:	687b      	ldr	r3, [r7, #4]
 8002ee2:	6c1b      	ldr	r3, [r3, #64]	@ 0x40
 8002ee4:	f5b3 0f80 	cmp.w	r3, #4194304	@ 0x400000
 8002ee8:	d101      	bne.n	8002eee <HAL_RCCEx_PeriphCLKConfig+0xba>
    {
      plli2sused = 1;
 8002eea:	2301      	movs	r3, #1
 8002eec:	61fb      	str	r3, [r7, #28]
    }
    /* Enable the PLLSAI when it's used as clock source for SAI */
    if(PeriphClkInit->Sai2ClockSelection == RCC_SAI2CLKSOURCE_PLLSAI)
 8002eee:	687b      	ldr	r3, [r7, #4]
 8002ef0:	6c1b      	ldr	r3, [r3, #64]	@ 0x40
 8002ef2:	2b00      	cmp	r3, #0
 8002ef4:	d101      	bne.n	8002efa <HAL_RCCEx_PeriphCLKConfig+0xc6>
    {
      pllsaiused = 1;
 8002ef6:	2301      	movs	r3, #1
 8002ef8:	61bb      	str	r3, [r7, #24]
    }
  }

  /*-------------------------------------- SPDIF-RX Configuration -----------------------------------*/
  if(((PeriphClkInit->PeriphClockSelection) & RCC_PERIPHCLK_SPDIFRX) == RCC_PERIPHCLK_SPDIFRX)
 8002efa:	687b      	ldr	r3, [r7, #4]
 8002efc:	681b      	ldr	r3, [r3, #0]
 8002efe:	f003 7380 	and.w	r3, r3, #16777216	@ 0x1000000
 8002f02:	2b00      	cmp	r3, #0
 8002f04:	d001      	beq.n	8002f0a <HAL_RCCEx_PeriphCLKConfig+0xd6>
  {
      plli2sused = 1;
 8002f06:	2301      	movs	r3, #1
 8002f08:	61fb      	str	r3, [r7, #28]
  }

  /*------------------------------------ RTC configuration --------------------------------------*/
  if(((PeriphClkInit->PeriphClockSelection) & RCC_PERIPHCLK_RTC) == (RCC_PERIPHCLK_RTC))
 8002f0a:	687b      	ldr	r3, [r7, #4]
 8002f0c:	681b      	ldr	r3, [r3, #0]
 8002f0e:	f003 0320 	and.w	r3, r3, #32
 8002f12:	2b00      	cmp	r3, #0
 8002f14:	f000 808b 	beq.w	800302e <HAL_RCCEx_PeriphCLKConfig+0x1fa>
  {
    /* Check for RTC Parameters used to output RTCCLK */
    assert_param(IS_RCC_RTCCLKSOURCE(PeriphClkInit->RTCClockSelection));

    /* Enable Power Clock*/
    __HAL_RCC_PWR_CLK_ENABLE();
 8002f18:	4b3a      	ldr	r3, [pc, #232]	@ (8003004 <HAL_RCCEx_PeriphCLKConfig+0x1d0>)
 8002f1a:	6c1b      	ldr	r3, [r3, #64]	@ 0x40
 8002f1c:	4a39      	ldr	r2, [pc, #228]	@ (8003004 <HAL_RCCEx_PeriphCLKConfig+0x1d0>)
 8002f1e:	f043 5380 	orr.w	r3, r3, #268435456	@ 0x10000000
 8002f22:	6413      	str	r3, [r2, #64]	@ 0x40
 8002f24:	4b37      	ldr	r3, [pc, #220]	@ (8003004 <HAL_RCCEx_PeriphCLKConfig+0x1d0>)
 8002f26:	6c1b      	ldr	r3, [r3, #64]	@ 0x40
 8002f28:	f003 5380 	and.w	r3, r3, #268435456	@ 0x10000000
 8002f2c:	60bb      	str	r3, [r7, #8]
 8002f2e:	68bb      	ldr	r3, [r7, #8]

    /* Enable write access to Backup domain */
    PWR->CR1 |= PWR_CR1_DBP;
 8002f30:	4b35      	ldr	r3, [pc, #212]	@ (8003008 <HAL_RCCEx_PeriphCLKConfig+0x1d4>)
 8002f32:	681b      	ldr	r3, [r3, #0]
 8002f34:	4a34      	ldr	r2, [pc, #208]	@ (8003008 <HAL_RCCEx_PeriphCLKConfig+0x1d4>)
 8002f36:	f443 7380 	orr.w	r3, r3, #256	@ 0x100
 8002f3a:	6013      	str	r3, [r2, #0]

    /* Get Start Tick*/
    tickstart = HAL_GetTick();
 8002f3c:	f7fe fb9a 	bl	8001674 <HAL_GetTick>
 8002f40:	6178      	str	r0, [r7, #20]

    /* Wait for Backup domain Write protection disable */
    while((PWR->CR1 & PWR_CR1_DBP) == RESET)
 8002f42:	e008      	b.n	8002f56 <HAL_RCCEx_PeriphCLKConfig+0x122>
    {
      if((HAL_GetTick() - tickstart) > RCC_DBP_TIMEOUT_VALUE)
 8002f44:	f7fe fb96 	bl	8001674 <HAL_GetTick>
 8002f48:	4602      	mov	r2, r0
 8002f4a:	697b      	ldr	r3, [r7, #20]
 8002f4c:	1ad3      	subs	r3, r2, r3
 8002f4e:	2b64      	cmp	r3, #100	@ 0x64
 8002f50:	d901      	bls.n	8002f56 <HAL_RCCEx_PeriphCLKConfig+0x122>
      {
        return HAL_TIMEOUT;
 8002f52:	2303      	movs	r3, #3
 8002f54:	e357      	b.n	8003606 <HAL_RCCEx_PeriphCLKConfig+0x7d2>
    while((PWR->CR1 & PWR_CR1_DBP) == RESET)
 8002f56:	4b2c      	ldr	r3, [pc, #176]	@ (8003008 <HAL_RCCEx_PeriphCLKConfig+0x1d4>)
 8002f58:	681b      	ldr	r3, [r3, #0]
 8002f5a:	f403 7380 	and.w	r3, r3, #256	@ 0x100
 8002f5e:	2b00      	cmp	r3, #0
 8002f60:	d0f0      	beq.n	8002f44 <HAL_RCCEx_PeriphCLKConfig+0x110>
      }
    }

    /* Reset the Backup domain only if the RTC Clock source selection is modified */
    tmpreg0 = (RCC->BDCR & RCC_BDCR_RTCSEL);
 8002f62:	4b28      	ldr	r3, [pc, #160]	@ (8003004 <HAL_RCCEx_PeriphCLKConfig+0x1d0>)
 8002f64:	6f1b      	ldr	r3, [r3, #112]	@ 0x70
 8002f66:	f403 7340 	and.w	r3, r3, #768	@ 0x300
 8002f6a:	613b      	str	r3, [r7, #16]

    if((tmpreg0 != 0x00000000U) && (tmpreg0 != (PeriphClkInit->RTCClockSelection & RCC_BDCR_RTCSEL)))
 8002f6c:	693b      	ldr	r3, [r7, #16]
 8002f6e:	2b00      	cmp	r3, #0
 8002f70:	d035      	beq.n	8002fde <HAL_RCCEx_PeriphCLKConfig+0x1aa>
 8002f72:	687b      	ldr	r3, [r7, #4]
 8002f74:	6b1b      	ldr	r3, [r3, #48]	@ 0x30
 8002f76:	f403 7340 	and.w	r3, r3, #768	@ 0x300
 8002f7a:	693a      	ldr	r2, [r7, #16]
 8002f7c:	429a      	cmp	r2, r3
 8002f7e:	d02e      	beq.n	8002fde <HAL_RCCEx_PeriphCLKConfig+0x1aa>
    {
      /* Store the content of BDCR register before the reset of Backup Domain */
      tmpreg0 = (RCC->BDCR & ~(RCC_BDCR_RTCSEL));
 8002f80:	4b20      	ldr	r3, [pc, #128]	@ (8003004 <HAL_RCCEx_PeriphCLKConfig+0x1d0>)
 8002f82:	6f1b      	ldr	r3, [r3, #112]	@ 0x70
 8002f84:	f423 7340 	bic.w	r3, r3, #768	@ 0x300
 8002f88:	613b      	str	r3, [r7, #16]

      /* RTC Clock selection can be changed only if the Backup Domain is reset */
      __HAL_RCC_BACKUPRESET_FORCE();
 8002f8a:	4b1e      	ldr	r3, [pc, #120]	@ (8003004 <HAL_RCCEx_PeriphCLKConfig+0x1d0>)
 8002f8c:	6f1b      	ldr	r3, [r3, #112]	@ 0x70
 8002f8e:	4a1d      	ldr	r2, [pc, #116]	@ (8003004 <HAL_RCCEx_PeriphCLKConfig+0x1d0>)
 8002f90:	f443 3380 	orr.w	r3, r3, #65536	@ 0x10000
 8002f94:	6713      	str	r3, [r2, #112]	@ 0x70
      __HAL_RCC_BACKUPRESET_RELEASE();
 8002f96:	4b1b      	ldr	r3, [pc, #108]	@ (8003004 <HAL_RCCEx_PeriphCLKConfig+0x1d0>)
 8002f98:	6f1b      	ldr	r3, [r3, #112]	@ 0x70
 8002f9a:	4a1a      	ldr	r2, [pc, #104]	@ (8003004 <HAL_RCCEx_PeriphCLKConfig+0x1d0>)
 8002f9c:	f423 3380 	bic.w	r3, r3, #65536	@ 0x10000
 8002fa0:	6713      	str	r3, [r2, #112]	@ 0x70

      /* Restore the Content of BDCR register */
      RCC->BDCR = tmpreg0;
 8002fa2:	4a18      	ldr	r2, [pc, #96]	@ (8003004 <HAL_RCCEx_PeriphCLKConfig+0x1d0>)
 8002fa4:	693b      	ldr	r3, [r7, #16]
 8002fa6:	6713      	str	r3, [r2, #112]	@ 0x70

      /* Wait for LSE reactivation if LSE was enable prior to Backup Domain reset */
      if (HAL_IS_BIT_SET(RCC->BDCR, RCC_BDCR_LSEON))
 8002fa8:	4b16      	ldr	r3, [pc, #88]	@ (8003004 <HAL_RCCEx_PeriphCLKConfig+0x1d0>)
 8002faa:	6f1b      	ldr	r3, [r3, #112]	@ 0x70
 8002fac:	f003 0301 	and.w	r3, r3, #1
 8002fb0:	2b01      	cmp	r3, #1
 8002fb2:	d114      	bne.n	8002fde <HAL_RCCEx_PeriphCLKConfig+0x1aa>
      {
        /* Get Start Tick*/
        tickstart = HAL_GetTick();
 8002fb4:	f7fe fb5e 	bl	8001674 <HAL_GetTick>
 8002fb8:	6178      	str	r0, [r7, #20]

        /* Wait till LSE is ready */
        while(__HAL_RCC_GET_FLAG(RCC_FLAG_LSERDY) == RESET)
 8002fba:	e00a      	b.n	8002fd2 <HAL_RCCEx_PeriphCLKConfig+0x19e>
        {
          if((HAL_GetTick() - tickstart ) > RCC_LSE_TIMEOUT_VALUE)
 8002fbc:	f7fe fb5a 	bl	8001674 <HAL_GetTick>
 8002fc0:	4602      	mov	r2, r0
 8002fc2:	697b      	ldr	r3, [r7, #20]
 8002fc4:	1ad3      	subs	r3, r2, r3
 8002fc6:	f241 3288 	movw	r2, #5000	@ 0x1388
 8002fca:	4293      	cmp	r3, r2
 8002fcc:	d901      	bls.n	8002fd2 <HAL_RCCEx_PeriphCLKConfig+0x19e>
          {
            return HAL_TIMEOUT;
 8002fce:	2303      	movs	r3, #3
 8002fd0:	e319      	b.n	8003606 <HAL_RCCEx_PeriphCLKConfig+0x7d2>
        while(__HAL_RCC_GET_FLAG(RCC_FLAG_LSERDY) == RESET)
 8002fd2:	4b0c      	ldr	r3, [pc, #48]	@ (8003004 <HAL_RCCEx_PeriphCLKConfig+0x1d0>)
 8002fd4:	6f1b      	ldr	r3, [r3, #112]	@ 0x70
 8002fd6:	f003 0302 	and.w	r3, r3, #2
 8002fda:	2b00      	cmp	r3, #0
 8002fdc:	d0ee      	beq.n	8002fbc <HAL_RCCEx_PeriphCLKConfig+0x188>
          }
        }
      }
    }
    __HAL_RCC_RTC_CONFIG(PeriphClkInit->RTCClockSelection);
 8002fde:	687b      	ldr	r3, [r7, #4]
 8002fe0:	6b1b      	ldr	r3, [r3, #48]	@ 0x30
 8002fe2:	f403 7340 	and.w	r3, r3, #768	@ 0x300
 8002fe6:	f5b3 7f40 	cmp.w	r3, #768	@ 0x300
 8002fea:	d111      	bne.n	8003010 <HAL_RCCEx_PeriphCLKConfig+0x1dc>
 8002fec:	4b05      	ldr	r3, [pc, #20]	@ (8003004 <HAL_RCCEx_PeriphCLKConfig+0x1d0>)
 8002fee:	689b      	ldr	r3, [r3, #8]
 8002ff0:	f423 12f8 	bic.w	r2, r3, #2031616	@ 0x1f0000
 8002ff4:	687b      	ldr	r3, [r7, #4]
 8002ff6:	6b19      	ldr	r1, [r3, #48]	@ 0x30
 8002ff8:	4b04      	ldr	r3, [pc, #16]	@ (800300c <HAL_RCCEx_PeriphCLKConfig+0x1d8>)
 8002ffa:	400b      	ands	r3, r1
 8002ffc:	4901      	ldr	r1, [pc, #4]	@ (8003004 <HAL_RCCEx_PeriphCLKConfig+0x1d0>)
 8002ffe:	4313      	orrs	r3, r2
 8003000:	608b      	str	r3, [r1, #8]
 8003002:	e00b      	b.n	800301c <HAL_RCCEx_PeriphCLKConfig+0x1e8>
 8003004:	40023800 	.word	0x40023800
 8003008:	40007000 	.word	0x40007000
 800300c:	0ffffcff 	.word	0x0ffffcff
 8003010:	4baa      	ldr	r3, [pc, #680]	@ (80032bc <HAL_RCCEx_PeriphCLKConfig+0x488>)
 8003012:	689b      	ldr	r3, [r3, #8]
 8003014:	4aa9      	ldr	r2, [pc, #676]	@ (80032bc <HAL_RCCEx_PeriphCLKConfig+0x488>)
 8003016:	f423 13f8 	bic.w	r3, r3, #2031616	@ 0x1f0000
 800301a:	6093      	str	r3, [r2, #8]
 800301c:	4ba7      	ldr	r3, [pc, #668]	@ (80032bc <HAL_RCCEx_PeriphCLKConfig+0x488>)
 800301e:	6f1a      	ldr	r2, [r3, #112]	@ 0x70
 8003020:	687b      	ldr	r3, [r7, #4]
 8003022:	6b1b      	ldr	r3, [r3, #48]	@ 0x30
 8003024:	f3c3 030b 	ubfx	r3, r3, #0, #12
 8003028:	49a4      	ldr	r1, [pc, #656]	@ (80032bc <HAL_RCCEx_PeriphCLKConfig+0x488>)
 800302a:	4313      	orrs	r3, r2
 800302c:	670b      	str	r3, [r1, #112]	@ 0x70
  }

  /*------------------------------------ TIM configuration --------------------------------------*/
  if(((PeriphClkInit->PeriphClockSelection) & RCC_PERIPHCLK_TIM) == (RCC_PERIPHCLK_TIM))
 800302e:	687b      	ldr	r3, [r7, #4]
 8003030:	681b      	ldr	r3, [r3, #0]
 8003032:	f003 0310 	and.w	r3, r3, #16
 8003036:	2b00      	cmp	r3, #0
 8003038:	d010      	beq.n	800305c <HAL_RCCEx_PeriphCLKConfig+0x228>
  {
    /* Check the parameters */
    assert_param(IS_RCC_TIMPRES(PeriphClkInit->TIMPresSelection));

    /* Configure Timer Prescaler */
    __HAL_RCC_TIMCLKPRESCALER(PeriphClkInit->TIMPresSelection);
 800303a:	4ba0      	ldr	r3, [pc, #640]	@ (80032bc <HAL_RCCEx_PeriphCLKConfig+0x488>)
 800303c:	f8d3 308c 	ldr.w	r3, [r3, #140]	@ 0x8c
 8003040:	4a9e      	ldr	r2, [pc, #632]	@ (80032bc <HAL_RCCEx_PeriphCLKConfig+0x488>)
 8003042:	f023 7380 	bic.w	r3, r3, #16777216	@ 0x1000000
 8003046:	f8c2 308c 	str.w	r3, [r2, #140]	@ 0x8c
 800304a:	4b9c      	ldr	r3, [pc, #624]	@ (80032bc <HAL_RCCEx_PeriphCLKConfig+0x488>)
 800304c:	f8d3 208c 	ldr.w	r2, [r3, #140]	@ 0x8c
 8003050:	687b      	ldr	r3, [r7, #4]
 8003052:	6b9b      	ldr	r3, [r3, #56]	@ 0x38
 8003054:	4999      	ldr	r1, [pc, #612]	@ (80032bc <HAL_RCCEx_PeriphCLKConfig+0x488>)
 8003056:	4313      	orrs	r3, r2
 8003058:	f8c1 308c 	str.w	r3, [r1, #140]	@ 0x8c
  }

  /*-------------------------------------- I2C1 Configuration -----------------------------------*/
  if(((PeriphClkInit->PeriphClockSelection) & RCC_PERIPHCLK_I2C1) == RCC_PERIPHCLK_I2C1)
 800305c:	687b      	ldr	r3, [r7, #4]
 800305e:	681b      	ldr	r3, [r3, #0]
 8003060:	f403 4380 	and.w	r3, r3, #16384	@ 0x4000
 8003064:	2b00      	cmp	r3, #0
 8003066:	d00a      	beq.n	800307e <HAL_RCCEx_PeriphCLKConfig+0x24a>
  {
    /* Check the parameters */
    assert_param(IS_RCC_I2C1CLKSOURCE(PeriphClkInit->I2c1ClockSelection));

    /* Configure the I2C1 clock source */
    __HAL_RCC_I2C1_CONFIG(PeriphClkInit->I2c1ClockSelection);
 8003068:	4b94      	ldr	r3, [pc, #592]	@ (80032bc <HAL_RCCEx_PeriphCLKConfig+0x488>)
 800306a:	f8d3 3090 	ldr.w	r3, [r3, #144]	@ 0x90
 800306e:	f423 3240 	bic.w	r2, r3, #196608	@ 0x30000
 8003072:	687b      	ldr	r3, [r7, #4]
 8003074:	6e5b      	ldr	r3, [r3, #100]	@ 0x64
 8003076:	4991      	ldr	r1, [pc, #580]	@ (80032bc <HAL_RCCEx_PeriphCLKConfig+0x488>)
 8003078:	4313      	orrs	r3, r2
 800307a:	f8c1 3090 	str.w	r3, [r1, #144]	@ 0x90
  }

  /*-------------------------------------- I2C2 Configuration -----------------------------------*/
  if(((PeriphClkInit->PeriphClockSelection) & RCC_PERIPHCLK_I2C2) == RCC_PERIPHCLK_I2C2)
 800307e:	687b      	ldr	r3, [r7, #4]
 8003080:	681b      	ldr	r3, [r3, #0]
 8003082:	f403 4300 	and.w	r3, r3, #32768	@ 0x8000
 8003086:	2b00      	cmp	r3, #0
 8003088:	d00a      	beq.n	80030a0 <HAL_RCCEx_PeriphCLKConfig+0x26c>
  {
    /* Check the parameters */
    assert_param(IS_RCC_I2C2CLKSOURCE(PeriphClkInit->I2c2ClockSelection));

    /* Configure the I2C2 clock source */
    __HAL_RCC_I2C2_CONFIG(PeriphClkInit->I2c2ClockSelection);
 800308a:	4b8c      	ldr	r3, [pc, #560]	@ (80032bc <HAL_RCCEx_PeriphCLKConfig+0x488>)
 800308c:	f8d3 3090 	ldr.w	r3, [r3, #144]	@ 0x90
 8003090:	f423 2240 	bic.w	r2, r3, #786432	@ 0xc0000
 8003094:	687b      	ldr	r3, [r7, #4]
 8003096:	6e9b      	ldr	r3, [r3, #104]	@ 0x68
 8003098:	4988      	ldr	r1, [pc, #544]	@ (80032bc <HAL_RCCEx_PeriphCLKConfig+0x488>)
 800309a:	4313      	orrs	r3, r2
 800309c:	f8c1 3090 	str.w	r3, [r1, #144]	@ 0x90
  }

  /*-------------------------------------- I2C3 Configuration -----------------------------------*/
  if(((PeriphClkInit->PeriphClockSelection) & RCC_PERIPHCLK_I2C3) == RCC_PERIPHCLK_I2C3)
 80030a0:	687b      	ldr	r3, [r7, #4]
 80030a2:	681b      	ldr	r3, [r3, #0]
 80030a4:	f403 3380 	and.w	r3, r3, #65536	@ 0x10000
 80030a8:	2b00      	cmp	r3, #0
 80030aa:	d00a      	beq.n	80030c2 <HAL_RCCEx_PeriphCLKConfig+0x28e>
  {
    /* Check the parameters */
    assert_param(IS_RCC_I2C3CLKSOURCE(PeriphClkInit->I2c3ClockSelection));

    /* Configure the I2C3 clock source */
    __HAL_RCC_I2C3_CONFIG(PeriphClkInit->I2c3ClockSelection);
 80030ac:	4b83      	ldr	r3, [pc, #524]	@ (80032bc <HAL_RCCEx_PeriphCLKConfig+0x488>)
 80030ae:	f8d3 3090 	ldr.w	r3, [r3, #144]	@ 0x90
 80030b2:	f423 1240 	bic.w	r2, r3, #3145728	@ 0x300000
 80030b6:	687b      	ldr	r3, [r7, #4]
 80030b8:	6edb      	ldr	r3, [r3, #108]	@ 0x6c
 80030ba:	4980      	ldr	r1, [pc, #512]	@ (80032bc <HAL_RCCEx_PeriphCLKConfig+0x488>)
 80030bc:	4313      	orrs	r3, r2
 80030be:	f8c1 3090 	str.w	r3, [r1, #144]	@ 0x90
  }

  /*-------------------------------------- I2C4 Configuration -----------------------------------*/
  if(((PeriphClkInit->PeriphClockSelection) & RCC_PERIPHCLK_I2C4) == RCC_PERIPHCLK_I2C4)
 80030c2:	687b      	ldr	r3, [r7, #4]
 80030c4:	681b      	ldr	r3, [r3, #0]
 80030c6:	f403 3300 	and.w	r3, r3, #131072	@ 0x20000
 80030ca:	2b00      	cmp	r3, #0
 80030cc:	d00a      	beq.n	80030e4 <HAL_RCCEx_PeriphCLKConfig+0x2b0>
  {
    /* Check the parameters */
    assert_param(IS_RCC_I2C4CLKSOURCE(PeriphClkInit->I2c4ClockSelection));

    /* Configure the I2C4 clock source */
    __HAL_RCC_I2C4_CONFIG(PeriphClkInit->I2c4ClockSelection);
 80030ce:	4b7b      	ldr	r3, [pc, #492]	@ (80032bc <HAL_RCCEx_PeriphCLKConfig+0x488>)
 80030d0:	f8d3 3090 	ldr.w	r3, [r3, #144]	@ 0x90
 80030d4:	f423 0240 	bic.w	r2, r3, #12582912	@ 0xc00000
 80030d8:	687b      	ldr	r3, [r7, #4]
 80030da:	6f1b      	ldr	r3, [r3, #112]	@ 0x70
 80030dc:	4977      	ldr	r1, [pc, #476]	@ (80032bc <HAL_RCCEx_PeriphCLKConfig+0x488>)
 80030de:	4313      	orrs	r3, r2
 80030e0:	f8c1 3090 	str.w	r3, [r1, #144]	@ 0x90
  }

  /*-------------------------------------- USART1 Configuration -----------------------------------*/
  if(((PeriphClkInit->PeriphClockSelection) & RCC_PERIPHCLK_USART1) == RCC_PERIPHCLK_USART1)
 80030e4:	687b      	ldr	r3, [r7, #4]
 80030e6:	681b      	ldr	r3, [r3, #0]
 80030e8:	f003 0340 	and.w	r3, r3, #64	@ 0x40
 80030ec:	2b00      	cmp	r3, #0
 80030ee:	d00a      	beq.n	8003106 <HAL_RCCEx_PeriphCLKConfig+0x2d2>
  {
    /* Check the parameters */
    assert_param(IS_RCC_USART1CLKSOURCE(PeriphClkInit->Usart1ClockSelection));

    /* Configure the USART1 clock source */
    __HAL_RCC_USART1_CONFIG(PeriphClkInit->Usart1ClockSelection);
 80030f0:	4b72      	ldr	r3, [pc, #456]	@ (80032bc <HAL_RCCEx_PeriphCLKConfig+0x488>)
 80030f2:	f8d3 3090 	ldr.w	r3, [r3, #144]	@ 0x90
 80030f6:	f023 0203 	bic.w	r2, r3, #3
 80030fa:	687b      	ldr	r3, [r7, #4]
 80030fc:	6c5b      	ldr	r3, [r3, #68]	@ 0x44
 80030fe:	496f      	ldr	r1, [pc, #444]	@ (80032bc <HAL_RCCEx_PeriphCLKConfig+0x488>)
 8003100:	4313      	orrs	r3, r2
 8003102:	f8c1 3090 	str.w	r3, [r1, #144]	@ 0x90
  }

  /*-------------------------------------- USART2 Configuration -----------------------------------*/
  if(((PeriphClkInit->PeriphClockSelection) & RCC_PERIPHCLK_USART2) == RCC_PERIPHCLK_USART2)
 8003106:	687b      	ldr	r3, [r7, #4]
 8003108:	681b      	ldr	r3, [r3, #0]
 800310a:	f003 0380 	and.w	r3, r3, #128	@ 0x80
 800310e:	2b00      	cmp	r3, #0
 8003110:	d00a      	beq.n	8003128 <HAL_RCCEx_PeriphCLKConfig+0x2f4>
  {
    /* Check the parameters */
    assert_param(IS_RCC_USART2CLKSOURCE(PeriphClkInit->Usart2ClockSelection));

    /* Configure the USART2 clock source */
    __HAL_RCC_USART2_CONFIG(PeriphClkInit->Usart2ClockSelection);
 8003112:	4b6a      	ldr	r3, [pc, #424]	@ (80032bc <HAL_RCCEx_PeriphCLKConfig+0x488>)
 8003114:	f8d3 3090 	ldr.w	r3, [r3, #144]	@ 0x90
 8003118:	f023 020c 	bic.w	r2, r3, #12
 800311c:	687b      	ldr	r3, [r7, #4]
 800311e:	6c9b      	ldr	r3, [r3, #72]	@ 0x48
 8003120:	4966      	ldr	r1, [pc, #408]	@ (80032bc <HAL_RCCEx_PeriphCLKConfig+0x488>)
 8003122:	4313      	orrs	r3, r2
 8003124:	f8c1 3090 	str.w	r3, [r1, #144]	@ 0x90
  }

  /*-------------------------------------- USART3 Configuration -----------------------------------*/
  if(((PeriphClkInit->PeriphClockSelection) & RCC_PERIPHCLK_USART3) == RCC_PERIPHCLK_USART3)
 8003128:	687b      	ldr	r3, [r7, #4]
 800312a:	681b      	ldr	r3, [r3, #0]
 800312c:	f403 7380 	and.w	r3, r3, #256	@ 0x100
 8003130:	2b00      	cmp	r3, #0
 8003132:	d00a      	beq.n	800314a <HAL_RCCEx_PeriphCLKConfig+0x316>
  {
    /* Check the parameters */
    assert_param(IS_RCC_USART3CLKSOURCE(PeriphClkInit->Usart3ClockSelection));

    /* Configure the USART3 clock source */
    __HAL_RCC_USART3_CONFIG(PeriphClkInit->Usart3ClockSelection);
 8003134:	4b61      	ldr	r3, [pc, #388]	@ (80032bc <HAL_RCCEx_PeriphCLKConfig+0x488>)
 8003136:	f8d3 3090 	ldr.w	r3, [r3, #144]	@ 0x90
 800313a:	f023 0230 	bic.w	r2, r3, #48	@ 0x30
 800313e:	687b      	ldr	r3, [r7, #4]
 8003140:	6cdb      	ldr	r3, [r3, #76]	@ 0x4c
 8003142:	495e      	ldr	r1, [pc, #376]	@ (80032bc <HAL_RCCEx_PeriphCLKConfig+0x488>)
 8003144:	4313      	orrs	r3, r2
 8003146:	f8c1 3090 	str.w	r3, [r1, #144]	@ 0x90
  }

  /*-------------------------------------- UART4 Configuration -----------------------------------*/
  if(((PeriphClkInit->PeriphClockSelection) & RCC_PERIPHCLK_UART4) == RCC_PERIPHCLK_UART4)
 800314a:	687b      	ldr	r3, [r7, #4]
 800314c:	681b      	ldr	r3, [r3, #0]
 800314e:	f403 7300 	and.w	r3, r3, #512	@ 0x200
 8003152:	2b00      	cmp	r3, #0
 8003154:	d00a      	beq.n	800316c <HAL_RCCEx_PeriphCLKConfig+0x338>
  {
    /* Check the parameters */
    assert_param(IS_RCC_UART4CLKSOURCE(PeriphClkInit->Uart4ClockSelection));

    /* Configure the UART4 clock source */
    __HAL_RCC_UART4_CONFIG(PeriphClkInit->Uart4ClockSelection);
 8003156:	4b59      	ldr	r3, [pc, #356]	@ (80032bc <HAL_RCCEx_PeriphCLKConfig+0x488>)
 8003158:	f8d3 3090 	ldr.w	r3, [r3, #144]	@ 0x90
 800315c:	f023 02c0 	bic.w	r2, r3, #192	@ 0xc0
 8003160:	687b      	ldr	r3, [r7, #4]
 8003162:	6d1b      	ldr	r3, [r3, #80]	@ 0x50
 8003164:	4955      	ldr	r1, [pc, #340]	@ (80032bc <HAL_RCCEx_PeriphCLKConfig+0x488>)
 8003166:	4313      	orrs	r3, r2
 8003168:	f8c1 3090 	str.w	r3, [r1, #144]	@ 0x90
  }

  /*-------------------------------------- UART5 Configuration -----------------------------------*/
  if(((PeriphClkInit->PeriphClockSelection) & RCC_PERIPHCLK_UART5) == RCC_PERIPHCLK_UART5)
 800316c:	687b      	ldr	r3, [r7, #4]
 800316e:	681b      	ldr	r3, [r3, #0]
 8003170:	f403 6380 	and.w	r3, r3, #1024	@ 0x400
 8003174:	2b00      	cmp	r3, #0
 8003176:	d00a      	beq.n	800318e <HAL_RCCEx_PeriphCLKConfig+0x35a>
  {
    /* Check the parameters */
    assert_param(IS_RCC_UART5CLKSOURCE(PeriphClkInit->Uart5ClockSelection));

    /* Configure the UART5 clock source */
    __HAL_RCC_UART5_CONFIG(PeriphClkInit->Uart5ClockSelection);
 8003178:	4b50      	ldr	r3, [pc, #320]	@ (80032bc <HAL_RCCEx_PeriphCLKConfig+0x488>)
 800317a:	f8d3 3090 	ldr.w	r3, [r3, #144]	@ 0x90
 800317e:	f423 7240 	bic.w	r2, r3, #768	@ 0x300
 8003182:	687b      	ldr	r3, [r7, #4]
 8003184:	6d5b      	ldr	r3, [r3, #84]	@ 0x54
 8003186:	494d      	ldr	r1, [pc, #308]	@ (80032bc <HAL_RCCEx_PeriphCLKConfig+0x488>)
 8003188:	4313      	orrs	r3, r2
 800318a:	f8c1 3090 	str.w	r3, [r1, #144]	@ 0x90
  }

  /*-------------------------------------- USART6 Configuration -----------------------------------*/
  if(((PeriphClkInit->PeriphClockSelection) & RCC_PERIPHCLK_USART6) == RCC_PERIPHCLK_USART6)
 800318e:	687b      	ldr	r3, [r7, #4]
 8003190:	681b      	ldr	r3, [r3, #0]
 8003192:	f403 6300 	and.w	r3, r3, #2048	@ 0x800
 8003196:	2b00      	cmp	r3, #0
 8003198:	d00a      	beq.n	80031b0 <HAL_RCCEx_PeriphCLKConfig+0x37c>
  {
    /* Check the parameters */
    assert_param(IS_RCC_USART6CLKSOURCE(PeriphClkInit->Usart6ClockSelection));

    /* Configure the USART6 clock source */
    __HAL_RCC_USART6_CONFIG(PeriphClkInit->Usart6ClockSelection);
 800319a:	4b48      	ldr	r3, [pc, #288]	@ (80032bc <HAL_RCCEx_PeriphCLKConfig+0x488>)
 800319c:	f8d3 3090 	ldr.w	r3, [r3, #144]	@ 0x90
 80031a0:	f423 6240 	bic.w	r2, r3, #3072	@ 0xc00
 80031a4:	687b      	ldr	r3, [r7, #4]
 80031a6:	6d9b      	ldr	r3, [r3, #88]	@ 0x58
 80031a8:	4944      	ldr	r1, [pc, #272]	@ (80032bc <HAL_RCCEx_PeriphCLKConfig+0x488>)
 80031aa:	4313      	orrs	r3, r2
 80031ac:	f8c1 3090 	str.w	r3, [r1, #144]	@ 0x90
  }

  /*-------------------------------------- UART7 Configuration -----------------------------------*/
  if(((PeriphClkInit->PeriphClockSelection) & RCC_PERIPHCLK_UART7) == RCC_PERIPHCLK_UART7)
 80031b0:	687b      	ldr	r3, [r7, #4]
 80031b2:	681b      	ldr	r3, [r3, #0]
 80031b4:	f403 5380 	and.w	r3, r3, #4096	@ 0x1000
 80031b8:	2b00      	cmp	r3, #0
 80031ba:	d00a      	beq.n	80031d2 <HAL_RCCEx_PeriphCLKConfig+0x39e>
  {
    /* Check the parameters */
    assert_param(IS_RCC_UART7CLKSOURCE(PeriphClkInit->Uart7ClockSelection));

    /* Configure the UART7 clock source */
    __HAL_RCC_UART7_CONFIG(PeriphClkInit->Uart7ClockSelection);
 80031bc:	4b3f      	ldr	r3, [pc, #252]	@ (80032bc <HAL_RCCEx_PeriphCLKConfig+0x488>)
 80031be:	f8d3 3090 	ldr.w	r3, [r3, #144]	@ 0x90
 80031c2:	f423 5240 	bic.w	r2, r3, #12288	@ 0x3000
 80031c6:	687b      	ldr	r3, [r7, #4]
 80031c8:	6ddb      	ldr	r3, [r3, #92]	@ 0x5c
 80031ca:	493c      	ldr	r1, [pc, #240]	@ (80032bc <HAL_RCCEx_PeriphCLKConfig+0x488>)
 80031cc:	4313      	orrs	r3, r2
 80031ce:	f8c1 3090 	str.w	r3, [r1, #144]	@ 0x90
  }

  /*-------------------------------------- UART8 Configuration -----------------------------------*/
  if(((PeriphClkInit->PeriphClockSelection) & RCC_PERIPHCLK_UART8) == RCC_PERIPHCLK_UART8)
 80031d2:	687b      	ldr	r3, [r7, #4]
 80031d4:	681b      	ldr	r3, [r3, #0]
 80031d6:	f403 5300 	and.w	r3, r3, #8192	@ 0x2000
 80031da:	2b00      	cmp	r3, #0
 80031dc:	d00a      	beq.n	80031f4 <HAL_RCCEx_PeriphCLKConfig+0x3c0>
  {
    /* Check the parameters */
    assert_param(IS_RCC_UART8CLKSOURCE(PeriphClkInit->Uart8ClockSelection));

    /* Configure the UART8 clock source */
    __HAL_RCC_UART8_CONFIG(PeriphClkInit->Uart8ClockSelection);
 80031de:	4b37      	ldr	r3, [pc, #220]	@ (80032bc <HAL_RCCEx_PeriphCLKConfig+0x488>)
 80031e0:	f8d3 3090 	ldr.w	r3, [r3, #144]	@ 0x90
 80031e4:	f423 4240 	bic.w	r2, r3, #49152	@ 0xc000
 80031e8:	687b      	ldr	r3, [r7, #4]
 80031ea:	6e1b      	ldr	r3, [r3, #96]	@ 0x60
 80031ec:	4933      	ldr	r1, [pc, #204]	@ (80032bc <HAL_RCCEx_PeriphCLKConfig+0x488>)
 80031ee:	4313      	orrs	r3, r2
 80031f0:	f8c1 3090 	str.w	r3, [r1, #144]	@ 0x90
  }

  /*--------------------------------------- CEC Configuration -----------------------------------*/
  if(((PeriphClkInit->PeriphClockSelection) & RCC_PERIPHCLK_CEC) == RCC_PERIPHCLK_CEC)
 80031f4:	687b      	ldr	r3, [r7, #4]
 80031f6:	681b      	ldr	r3, [r3, #0]
 80031f8:	f403 0380 	and.w	r3, r3, #4194304	@ 0x400000
 80031fc:	2b00      	cmp	r3, #0
 80031fe:	d00a      	beq.n	8003216 <HAL_RCCEx_PeriphCLKConfig+0x3e2>
  {
    /* Check the parameters */
    assert_param(IS_RCC_CECCLKSOURCE(PeriphClkInit->CecClockSelection));

    /* Configure the CEC clock source */
    __HAL_RCC_CEC_CONFIG(PeriphClkInit->CecClockSelection);
 8003200:	4b2e      	ldr	r3, [pc, #184]	@ (80032bc <HAL_RCCEx_PeriphCLKConfig+0x488>)
 8003202:	f8d3 3090 	ldr.w	r3, [r3, #144]	@ 0x90
 8003206:	f023 6280 	bic.w	r2, r3, #67108864	@ 0x4000000
 800320a:	687b      	ldr	r3, [r7, #4]
 800320c:	6f9b      	ldr	r3, [r3, #120]	@ 0x78
 800320e:	492b      	ldr	r1, [pc, #172]	@ (80032bc <HAL_RCCEx_PeriphCLKConfig+0x488>)
 8003210:	4313      	orrs	r3, r2
 8003212:	f8c1 3090 	str.w	r3, [r1, #144]	@ 0x90
  }

  /*-------------------------------------- CK48 Configuration -----------------------------------*/
  if(((PeriphClkInit->PeriphClockSelection) & RCC_PERIPHCLK_CLK48) == RCC_PERIPHCLK_CLK48)
 8003216:	687b      	ldr	r3, [r7, #4]
 8003218:	681b      	ldr	r3, [r3, #0]
 800321a:	f403 1300 	and.w	r3, r3, #2097152	@ 0x200000
 800321e:	2b00      	cmp	r3, #0
 8003220:	d011      	beq.n	8003246 <HAL_RCCEx_PeriphCLKConfig+0x412>
  {
    /* Check the parameters */
    assert_param(IS_RCC_CLK48SOURCE(PeriphClkInit->Clk48ClockSelection));

    /* Configure the CLK48 source */
    __HAL_RCC_CLK48_CONFIG(PeriphClkInit->Clk48ClockSelection);
 8003222:	4b26      	ldr	r3, [pc, #152]	@ (80032bc <HAL_RCCEx_PeriphCLKConfig+0x488>)
 8003224:	f8d3 3090 	ldr.w	r3, [r3, #144]	@ 0x90
 8003228:	f023 6200 	bic.w	r2, r3, #134217728	@ 0x8000000
 800322c:	687b      	ldr	r3, [r7, #4]
 800322e:	6fdb      	ldr	r3, [r3, #124]	@ 0x7c
 8003230:	4922      	ldr	r1, [pc, #136]	@ (80032bc <HAL_RCCEx_PeriphCLKConfig+0x488>)
 8003232:	4313      	orrs	r3, r2
 8003234:	f8c1 3090 	str.w	r3, [r1, #144]	@ 0x90

    /* Enable the PLLSAI when it's used as clock source for CK48 */
    if(PeriphClkInit->Clk48ClockSelection == RCC_CLK48SOURCE_PLLSAIP)
 8003238:	687b      	ldr	r3, [r7, #4]
 800323a:	6fdb      	ldr	r3, [r3, #124]	@ 0x7c
 800323c:	f1b3 6f00 	cmp.w	r3, #134217728	@ 0x8000000
 8003240:	d101      	bne.n	8003246 <HAL_RCCEx_PeriphCLKConfig+0x412>
    {
      pllsaiused = 1;
 8003242:	2301      	movs	r3, #1
 8003244:	61bb      	str	r3, [r7, #24]
    }
  }

  /*-------------------------------------- LTDC Configuration -----------------------------------*/
#if defined(STM32F746xx) || defined(STM32F756xx) || defined (STM32F767xx) || defined (STM32F769xx) || defined (STM32F777xx) || defined (STM32F779xx) || defined (STM32F750xx)
  if(((PeriphClkInit->PeriphClockSelection) & RCC_PERIPHCLK_LTDC) == RCC_PERIPHCLK_LTDC)
 8003246:	687b      	ldr	r3, [r7, #4]
 8003248:	681b      	ldr	r3, [r3, #0]
 800324a:	f003 0308 	and.w	r3, r3, #8
 800324e:	2b00      	cmp	r3, #0
 8003250:	d001      	beq.n	8003256 <HAL_RCCEx_PeriphCLKConfig+0x422>
  {
    pllsaiused = 1;
 8003252:	2301      	movs	r3, #1
 8003254:	61bb      	str	r3, [r7, #24]
  }
#endif /* STM32F746xx || STM32F756xx || STM32F767xx || STM32F769xx || STM32F777xx || STM32F779xx || STM32F750xx */

  /*-------------------------------------- LPTIM1 Configuration -----------------------------------*/
  if(((PeriphClkInit->PeriphClockSelection) & RCC_PERIPHCLK_LPTIM1) == RCC_PERIPHCLK_LPTIM1)
 8003256:	687b      	ldr	r3, [r7, #4]
 8003258:	681b      	ldr	r3, [r3, #0]
 800325a:	f403 2380 	and.w	r3, r3, #262144	@ 0x40000
 800325e:	2b00      	cmp	r3, #0
 8003260:	d00a      	beq.n	8003278 <HAL_RCCEx_PeriphCLKConfig+0x444>
  {
    /* Check the parameters */
    assert_param(IS_RCC_LPTIM1CLK(PeriphClkInit->Lptim1ClockSelection));

    /* Configure the LTPIM1 clock source */
    __HAL_RCC_LPTIM1_CONFIG(PeriphClkInit->Lptim1ClockSelection);
 8003262:	4b16      	ldr	r3, [pc, #88]	@ (80032bc <HAL_RCCEx_PeriphCLKConfig+0x488>)
 8003264:	f8d3 3090 	ldr.w	r3, [r3, #144]	@ 0x90
 8003268:	f023 7240 	bic.w	r2, r3, #50331648	@ 0x3000000
 800326c:	687b      	ldr	r3, [r7, #4]
 800326e:	6f5b      	ldr	r3, [r3, #116]	@ 0x74
 8003270:	4912      	ldr	r1, [pc, #72]	@ (80032bc <HAL_RCCEx_PeriphCLKConfig+0x488>)
 8003272:	4313      	orrs	r3, r2
 8003274:	f8c1 3090 	str.w	r3, [r1, #144]	@ 0x90
   }

  /*------------------------------------- SDMMC1 Configuration ------------------------------------*/
  if(((PeriphClkInit->PeriphClockSelection) & RCC_PERIPHCLK_SDMMC1) == RCC_PERIPHCLK_SDMMC1)
 8003278:	687b      	ldr	r3, [r7, #4]
 800327a:	681b      	ldr	r3, [r3, #0]
 800327c:	f403 0300 	and.w	r3, r3, #8388608	@ 0x800000
 8003280:	2b00      	cmp	r3, #0
 8003282:	d00b      	beq.n	800329c <HAL_RCCEx_PeriphCLKConfig+0x468>
  {
    /* Check the parameters */
    assert_param(IS_RCC_SDMMC1CLKSOURCE(PeriphClkInit->Sdmmc1ClockSelection));

    /* Configure the SDMMC1 clock source */
    __HAL_RCC_SDMMC1_CONFIG(PeriphClkInit->Sdmmc1ClockSelection);
 8003284:	4b0d      	ldr	r3, [pc, #52]	@ (80032bc <HAL_RCCEx_PeriphCLKConfig+0x488>)
 8003286:	f8d3 3090 	ldr.w	r3, [r3, #144]	@ 0x90
 800328a:	f023 5280 	bic.w	r2, r3, #268435456	@ 0x10000000
 800328e:	687b      	ldr	r3, [r7, #4]
 8003290:	f8d3 3080 	ldr.w	r3, [r3, #128]	@ 0x80
 8003294:	4909      	ldr	r1, [pc, #36]	@ (80032bc <HAL_RCCEx_PeriphCLKConfig+0x488>)
 8003296:	4313      	orrs	r3, r2
 8003298:	f8c1 3090 	str.w	r3, [r1, #144]	@ 0x90
  }
#endif /* STM32F767xx || STM32F769xx || STM32F777xx || STM32F779xx */

  /*-------------------------------------- PLLI2S Configuration ---------------------------------*/
  /* PLLI2S is configured when a peripheral will use it as source clock : SAI1, SAI2, I2S or SPDIF-RX */
  if((plli2sused == 1) || ((PeriphClkInit->PeriphClockSelection & RCC_PERIPHCLK_PLLI2S) == RCC_PERIPHCLK_PLLI2S))
 800329c:	69fb      	ldr	r3, [r7, #28]
 800329e:	2b01      	cmp	r3, #1
 80032a0:	d006      	beq.n	80032b0 <HAL_RCCEx_PeriphCLKConfig+0x47c>
 80032a2:	687b      	ldr	r3, [r7, #4]
 80032a4:	681b      	ldr	r3, [r3, #0]
 80032a6:	f003 7300 	and.w	r3, r3, #33554432	@ 0x2000000
 80032aa:	2b00      	cmp	r3, #0
 80032ac:	f000 80d9 	beq.w	8003462 <HAL_RCCEx_PeriphCLKConfig+0x62e>
  {
    /* Disable the PLLI2S */
    __HAL_RCC_PLLI2S_DISABLE();
 80032b0:	4b02      	ldr	r3, [pc, #8]	@ (80032bc <HAL_RCCEx_PeriphCLKConfig+0x488>)
 80032b2:	681b      	ldr	r3, [r3, #0]
 80032b4:	4a01      	ldr	r2, [pc, #4]	@ (80032bc <HAL_RCCEx_PeriphCLKConfig+0x488>)
 80032b6:	f023 6380 	bic.w	r3, r3, #67108864	@ 0x4000000
 80032ba:	e001      	b.n	80032c0 <HAL_RCCEx_PeriphCLKConfig+0x48c>
 80032bc:	40023800 	.word	0x40023800
 80032c0:	6013      	str	r3, [r2, #0]

    /* Get Start Tick*/
    tickstart = HAL_GetTick();
 80032c2:	f7fe f9d7 	bl	8001674 <HAL_GetTick>
 80032c6:	6178      	str	r0, [r7, #20]

    /* Wait till PLLI2S is disabled */
    while(__HAL_RCC_GET_FLAG(RCC_FLAG_PLLI2SRDY)  != RESET)
 80032c8:	e008      	b.n	80032dc <HAL_RCCEx_PeriphCLKConfig+0x4a8>
    {
      if((HAL_GetTick() - tickstart) > PLLI2S_TIMEOUT_VALUE)
 80032ca:	f7fe f9d3 	bl	8001674 <HAL_GetTick>
 80032ce:	4602      	mov	r2, r0
 80032d0:	697b      	ldr	r3, [r7, #20]
 80032d2:	1ad3      	subs	r3, r2, r3
 80032d4:	2b64      	cmp	r3, #100	@ 0x64
 80032d6:	d901      	bls.n	80032dc <HAL_RCCEx_PeriphCLKConfig+0x4a8>
      {
        /* return in case of Timeout detected */
        return HAL_TIMEOUT;
 80032d8:	2303      	movs	r3, #3
 80032da:	e194      	b.n	8003606 <HAL_RCCEx_PeriphCLKConfig+0x7d2>
    while(__HAL_RCC_GET_FLAG(RCC_FLAG_PLLI2SRDY)  != RESET)
 80032dc:	4b6c      	ldr	r3, [pc, #432]	@ (8003490 <HAL_RCCEx_PeriphCLKConfig+0x65c>)
 80032de:	681b      	ldr	r3, [r3, #0]
 80032e0:	f003 6300 	and.w	r3, r3, #134217728	@ 0x8000000
 80032e4:	2b00      	cmp	r3, #0
 80032e6:	d1f0      	bne.n	80032ca <HAL_RCCEx_PeriphCLKConfig+0x496>

    /* check for common PLLI2S Parameters */
    assert_param(IS_RCC_PLLI2SN_VALUE(PeriphClkInit->PLLI2S.PLLI2SN));

    /*----------------- In Case of PLLI2S is selected as source clock for I2S -------------------*/
    if(((((PeriphClkInit->PeriphClockSelection) & RCC_PERIPHCLK_I2S) == RCC_PERIPHCLK_I2S) && (PeriphClkInit->I2sClockSelection == RCC_I2SCLKSOURCE_PLLI2S)))
 80032e8:	687b      	ldr	r3, [r7, #4]
 80032ea:	681b      	ldr	r3, [r3, #0]
 80032ec:	f003 0301 	and.w	r3, r3, #1
 80032f0:	2b00      	cmp	r3, #0
 80032f2:	d021      	beq.n	8003338 <HAL_RCCEx_PeriphCLKConfig+0x504>
 80032f4:	687b      	ldr	r3, [r7, #4]
 80032f6:	6b5b      	ldr	r3, [r3, #52]	@ 0x34
 80032f8:	2b00      	cmp	r3, #0
 80032fa:	d11d      	bne.n	8003338 <HAL_RCCEx_PeriphCLKConfig+0x504>
    {
      /* check for Parameters */
      assert_param(IS_RCC_PLLI2SR_VALUE(PeriphClkInit->PLLI2S.PLLI2SR));

      /* Read PLLI2SP and PLLI2SQ value from PLLI2SCFGR register (this value is not needed for I2S configuration) */
      tmpreg0 = ((RCC->PLLI2SCFGR & RCC_PLLI2SCFGR_PLLI2SP) >> RCC_PLLI2SCFGR_PLLI2SP_Pos);
 80032fc:	4b64      	ldr	r3, [pc, #400]	@ (8003490 <HAL_RCCEx_PeriphCLKConfig+0x65c>)
 80032fe:	f8d3 3084 	ldr.w	r3, [r3, #132]	@ 0x84
 8003302:	0c1b      	lsrs	r3, r3, #16
 8003304:	f003 0303 	and.w	r3, r3, #3
 8003308:	613b      	str	r3, [r7, #16]
      tmpreg1 = ((RCC->PLLI2SCFGR & RCC_PLLI2SCFGR_PLLI2SQ) >> RCC_PLLI2SCFGR_PLLI2SQ_Pos);
 800330a:	4b61      	ldr	r3, [pc, #388]	@ (8003490 <HAL_RCCEx_PeriphCLKConfig+0x65c>)
 800330c:	f8d3 3084 	ldr.w	r3, [r3, #132]	@ 0x84
 8003310:	0e1b      	lsrs	r3, r3, #24
 8003312:	f003 030f 	and.w	r3, r3, #15
 8003316:	60fb      	str	r3, [r7, #12]
      /* Configure the PLLI2S division factors */
      /* PLLI2S_VCO = f(VCO clock) = f(PLLI2S clock input) x (PLLI2SN/PLLM) */
      /* I2SCLK = f(PLLI2S clock output) = f(VCO clock) / PLLI2SR */
      __HAL_RCC_PLLI2S_CONFIG(PeriphClkInit->PLLI2S.PLLI2SN , tmpreg0, tmpreg1, PeriphClkInit->PLLI2S.PLLI2SR);
 8003318:	687b      	ldr	r3, [r7, #4]
 800331a:	685b      	ldr	r3, [r3, #4]
 800331c:	019a      	lsls	r2, r3, #6
 800331e:	693b      	ldr	r3, [r7, #16]
 8003320:	041b      	lsls	r3, r3, #16
 8003322:	431a      	orrs	r2, r3
 8003324:	68fb      	ldr	r3, [r7, #12]
 8003326:	061b      	lsls	r3, r3, #24
 8003328:	431a      	orrs	r2, r3
 800332a:	687b      	ldr	r3, [r7, #4]
 800332c:	689b      	ldr	r3, [r3, #8]
 800332e:	071b      	lsls	r3, r3, #28
 8003330:	4957      	ldr	r1, [pc, #348]	@ (8003490 <HAL_RCCEx_PeriphCLKConfig+0x65c>)
 8003332:	4313      	orrs	r3, r2
 8003334:	f8c1 3084 	str.w	r3, [r1, #132]	@ 0x84
    }

    /*----------------- In Case of PLLI2S is selected as source clock for SAI -------------------*/
    if(((((PeriphClkInit->PeriphClockSelection) & RCC_PERIPHCLK_SAI1) == RCC_PERIPHCLK_SAI1) && (PeriphClkInit->Sai1ClockSelection == RCC_SAI1CLKSOURCE_PLLI2S)) ||
 8003338:	687b      	ldr	r3, [r7, #4]
 800333a:	681b      	ldr	r3, [r3, #0]
 800333c:	f403 2300 	and.w	r3, r3, #524288	@ 0x80000
 8003340:	2b00      	cmp	r3, #0
 8003342:	d004      	beq.n	800334e <HAL_RCCEx_PeriphCLKConfig+0x51a>
 8003344:	687b      	ldr	r3, [r7, #4]
 8003346:	6bdb      	ldr	r3, [r3, #60]	@ 0x3c
 8003348:	f5b3 1f80 	cmp.w	r3, #1048576	@ 0x100000
 800334c:	d00a      	beq.n	8003364 <HAL_RCCEx_PeriphCLKConfig+0x530>
       ((((PeriphClkInit->PeriphClockSelection) & RCC_PERIPHCLK_SAI2) == RCC_PERIPHCLK_SAI2) && (PeriphClkInit->Sai2ClockSelection == RCC_SAI2CLKSOURCE_PLLI2S)))
 800334e:	687b      	ldr	r3, [r7, #4]
 8003350:	681b      	ldr	r3, [r3, #0]
 8003352:	f403 1380 	and.w	r3, r3, #1048576	@ 0x100000
    if(((((PeriphClkInit->PeriphClockSelection) & RCC_PERIPHCLK_SAI1) == RCC_PERIPHCLK_SAI1) && (PeriphClkInit->Sai1ClockSelection == RCC_SAI1CLKSOURCE_PLLI2S)) ||
 8003356:	2b00      	cmp	r3, #0
 8003358:	d02e      	beq.n	80033b8 <HAL_RCCEx_PeriphCLKConfig+0x584>
       ((((PeriphClkInit->PeriphClockSelection) & RCC_PERIPHCLK_SAI2) == RCC_PERIPHCLK_SAI2) && (PeriphClkInit->Sai2ClockSelection == RCC_SAI2CLKSOURCE_PLLI2S)))
 800335a:	687b      	ldr	r3, [r7, #4]
 800335c:	6c1b      	ldr	r3, [r3, #64]	@ 0x40
 800335e:	f5b3 0f80 	cmp.w	r3, #4194304	@ 0x400000
 8003362:	d129      	bne.n	80033b8 <HAL_RCCEx_PeriphCLKConfig+0x584>
      assert_param(IS_RCC_PLLI2SQ_VALUE(PeriphClkInit->PLLI2S.PLLI2SQ));
      /* Check for PLLI2S/DIVQ parameters */
      assert_param(IS_RCC_PLLI2S_DIVQ_VALUE(PeriphClkInit->PLLI2SDivQ));

      /* Read PLLI2SP and PLLI2SR values from PLLI2SCFGR register (this value is not needed for SAI configuration) */
      tmpreg0 = ((RCC->PLLI2SCFGR & RCC_PLLI2SCFGR_PLLI2SP) >> RCC_PLLI2SCFGR_PLLI2SP_Pos);
 8003364:	4b4a      	ldr	r3, [pc, #296]	@ (8003490 <HAL_RCCEx_PeriphCLKConfig+0x65c>)
 8003366:	f8d3 3084 	ldr.w	r3, [r3, #132]	@ 0x84
 800336a:	0c1b      	lsrs	r3, r3, #16
 800336c:	f003 0303 	and.w	r3, r3, #3
 8003370:	613b      	str	r3, [r7, #16]
      tmpreg1 = ((RCC->PLLI2SCFGR & RCC_PLLI2SCFGR_PLLI2SR) >> RCC_PLLI2SCFGR_PLLI2SR_Pos);
 8003372:	4b47      	ldr	r3, [pc, #284]	@ (8003490 <HAL_RCCEx_PeriphCLKConfig+0x65c>)
 8003374:	f8d3 3084 	ldr.w	r3, [r3, #132]	@ 0x84
 8003378:	0f1b      	lsrs	r3, r3, #28
 800337a:	f003 0307 	and.w	r3, r3, #7
 800337e:	60fb      	str	r3, [r7, #12]
      /* Configure the PLLI2S division factors */
      /* PLLI2S_VCO Input  = PLL_SOURCE/PLLM */
      /* PLLI2S_VCO Output = PLLI2S_VCO Input * PLLI2SN */
      /* SAI_CLK(first level) = PLLI2S_VCO Output/PLLI2SQ */
      __HAL_RCC_PLLI2S_CONFIG(PeriphClkInit->PLLI2S.PLLI2SN, tmpreg0, PeriphClkInit->PLLI2S.PLLI2SQ, tmpreg1);
 8003380:	687b      	ldr	r3, [r7, #4]
 8003382:	685b      	ldr	r3, [r3, #4]
 8003384:	019a      	lsls	r2, r3, #6
 8003386:	693b      	ldr	r3, [r7, #16]
 8003388:	041b      	lsls	r3, r3, #16
 800338a:	431a      	orrs	r2, r3
 800338c:	687b      	ldr	r3, [r7, #4]
 800338e:	68db      	ldr	r3, [r3, #12]
 8003390:	061b      	lsls	r3, r3, #24
 8003392:	431a      	orrs	r2, r3
 8003394:	68fb      	ldr	r3, [r7, #12]
 8003396:	071b      	lsls	r3, r3, #28
 8003398:	493d      	ldr	r1, [pc, #244]	@ (8003490 <HAL_RCCEx_PeriphCLKConfig+0x65c>)
 800339a:	4313      	orrs	r3, r2
 800339c:	f8c1 3084 	str.w	r3, [r1, #132]	@ 0x84

      /* SAI_CLK_x = SAI_CLK(first level)/PLLI2SDIVQ */
      __HAL_RCC_PLLI2S_PLLSAICLKDIVQ_CONFIG(PeriphClkInit->PLLI2SDivQ);
 80033a0:	4b3b      	ldr	r3, [pc, #236]	@ (8003490 <HAL_RCCEx_PeriphCLKConfig+0x65c>)
 80033a2:	f8d3 308c 	ldr.w	r3, [r3, #140]	@ 0x8c
 80033a6:	f023 021f 	bic.w	r2, r3, #31
 80033aa:	687b      	ldr	r3, [r7, #4]
 80033ac:	6a5b      	ldr	r3, [r3, #36]	@ 0x24
 80033ae:	3b01      	subs	r3, #1
 80033b0:	4937      	ldr	r1, [pc, #220]	@ (8003490 <HAL_RCCEx_PeriphCLKConfig+0x65c>)
 80033b2:	4313      	orrs	r3, r2
 80033b4:	f8c1 308c 	str.w	r3, [r1, #140]	@ 0x8c
    }

    /*----------------- In Case of PLLI2S is selected as source clock for SPDIF-RX -------------------*/
    if(((PeriphClkInit->PeriphClockSelection) & RCC_PERIPHCLK_SPDIFRX) == RCC_PERIPHCLK_SPDIFRX)
 80033b8:	687b      	ldr	r3, [r7, #4]
 80033ba:	681b      	ldr	r3, [r3, #0]
 80033bc:	f003 7380 	and.w	r3, r3, #16777216	@ 0x1000000
 80033c0:	2b00      	cmp	r3, #0
 80033c2:	d01d      	beq.n	8003400 <HAL_RCCEx_PeriphCLKConfig+0x5cc>
    {
      /* check for Parameters */
      assert_param(IS_RCC_PLLI2SP_VALUE(PeriphClkInit->PLLI2S.PLLI2SP));

     /* Read PLLI2SR value from PLLI2SCFGR register (this value is not needed for SPDIF-RX configuration) */
      tmpreg0 = ((RCC->PLLI2SCFGR & RCC_PLLI2SCFGR_PLLI2SQ) >> RCC_PLLI2SCFGR_PLLI2SQ_Pos);
 80033c4:	4b32      	ldr	r3, [pc, #200]	@ (8003490 <HAL_RCCEx_PeriphCLKConfig+0x65c>)
 80033c6:	f8d3 3084 	ldr.w	r3, [r3, #132]	@ 0x84
 80033ca:	0e1b      	lsrs	r3, r3, #24
 80033cc:	f003 030f 	and.w	r3, r3, #15
 80033d0:	613b      	str	r3, [r7, #16]
      tmpreg1 = ((RCC->PLLI2SCFGR & RCC_PLLI2SCFGR_PLLI2SR) >> RCC_PLLI2SCFGR_PLLI2SR_Pos);
 80033d2:	4b2f      	ldr	r3, [pc, #188]	@ (8003490 <HAL_RCCEx_PeriphCLKConfig+0x65c>)
 80033d4:	f8d3 3084 	ldr.w	r3, [r3, #132]	@ 0x84
 80033d8:	0f1b      	lsrs	r3, r3, #28
 80033da:	f003 0307 	and.w	r3, r3, #7
 80033de:	60fb      	str	r3, [r7, #12]
      /* Configure the PLLI2S division factors */
      /* PLLI2S_VCO = f(VCO clock) = f(PLLI2S clock input) x (PLLI2SN/PLLM) */
      /* SPDIFCLK = f(PLLI2S clock output) = f(VCO clock) / PLLI2SP */
      __HAL_RCC_PLLI2S_CONFIG(PeriphClkInit->PLLI2S.PLLI2SN , PeriphClkInit->PLLI2S.PLLI2SP, tmpreg0, tmpreg1);
 80033e0:	687b      	ldr	r3, [r7, #4]
 80033e2:	685b      	ldr	r3, [r3, #4]
 80033e4:	019a      	lsls	r2, r3, #6
 80033e6:	687b      	ldr	r3, [r7, #4]
 80033e8:	691b      	ldr	r3, [r3, #16]
 80033ea:	041b      	lsls	r3, r3, #16
 80033ec:	431a      	orrs	r2, r3
 80033ee:	693b      	ldr	r3, [r7, #16]
 80033f0:	061b      	lsls	r3, r3, #24
 80033f2:	431a      	orrs	r2, r3
 80033f4:	68fb      	ldr	r3, [r7, #12]
 80033f6:	071b      	lsls	r3, r3, #28
 80033f8:	4925      	ldr	r1, [pc, #148]	@ (8003490 <HAL_RCCEx_PeriphCLKConfig+0x65c>)
 80033fa:	4313      	orrs	r3, r2
 80033fc:	f8c1 3084 	str.w	r3, [r1, #132]	@ 0x84
    }

    /*----------------- In Case of PLLI2S is just selected  -----------------*/
    if((PeriphClkInit->PeriphClockSelection & RCC_PERIPHCLK_PLLI2S) == RCC_PERIPHCLK_PLLI2S)
 8003400:	687b      	ldr	r3, [r7, #4]
 8003402:	681b      	ldr	r3, [r3, #0]
 8003404:	f003 7300 	and.w	r3, r3, #33554432	@ 0x2000000
 8003408:	2b00      	cmp	r3, #0
 800340a:	d011      	beq.n	8003430 <HAL_RCCEx_PeriphCLKConfig+0x5fc>
      assert_param(IS_RCC_PLLI2SQ_VALUE(PeriphClkInit->PLLI2S.PLLI2SQ));

      /* Configure the PLLI2S division factors */
      /* PLLI2S_VCO = f(VCO clock) = f(PLLI2S clock input) x (PLLI2SN/PLLI2SM) */
      /* SPDIFRXCLK = f(PLLI2S clock output) = f(VCO clock) / PLLI2SP */
      __HAL_RCC_PLLI2S_CONFIG(PeriphClkInit->PLLI2S.PLLI2SN , PeriphClkInit->PLLI2S.PLLI2SP, PeriphClkInit->PLLI2S.PLLI2SQ, PeriphClkInit->PLLI2S.PLLI2SR);
 800340c:	687b      	ldr	r3, [r7, #4]
 800340e:	685b      	ldr	r3, [r3, #4]
 8003410:	019a      	lsls	r2, r3, #6
 8003412:	687b      	ldr	r3, [r7, #4]
 8003414:	691b      	ldr	r3, [r3, #16]
 8003416:	041b      	lsls	r3, r3, #16
 8003418:	431a      	orrs	r2, r3
 800341a:	687b      	ldr	r3, [r7, #4]
 800341c:	68db      	ldr	r3, [r3, #12]
 800341e:	061b      	lsls	r3, r3, #24
 8003420:	431a      	orrs	r2, r3
 8003422:	687b      	ldr	r3, [r7, #4]
 8003424:	689b      	ldr	r3, [r3, #8]
 8003426:	071b      	lsls	r3, r3, #28
 8003428:	4919      	ldr	r1, [pc, #100]	@ (8003490 <HAL_RCCEx_PeriphCLKConfig+0x65c>)
 800342a:	4313      	orrs	r3, r2
 800342c:	f8c1 3084 	str.w	r3, [r1, #132]	@ 0x84
    }

    /* Enable the PLLI2S */
    __HAL_RCC_PLLI2S_ENABLE();
 8003430:	4b17      	ldr	r3, [pc, #92]	@ (8003490 <HAL_RCCEx_PeriphCLKConfig+0x65c>)
 8003432:	681b      	ldr	r3, [r3, #0]
 8003434:	4a16      	ldr	r2, [pc, #88]	@ (8003490 <HAL_RCCEx_PeriphCLKConfig+0x65c>)
 8003436:	f043 6380 	orr.w	r3, r3, #67108864	@ 0x4000000
 800343a:	6013      	str	r3, [r2, #0]

    /* Get Start Tick*/
    tickstart = HAL_GetTick();
 800343c:	f7fe f91a 	bl	8001674 <HAL_GetTick>
 8003440:	6178      	str	r0, [r7, #20]

    /* Wait till PLLI2S is ready */
    while(__HAL_RCC_GET_FLAG(RCC_FLAG_PLLI2SRDY)  == RESET)
 8003442:	e008      	b.n	8003456 <HAL_RCCEx_PeriphCLKConfig+0x622>
    {
      if((HAL_GetTick() - tickstart) > PLLI2S_TIMEOUT_VALUE)
 8003444:	f7fe f916 	bl	8001674 <HAL_GetTick>
 8003448:	4602      	mov	r2, r0
 800344a:	697b      	ldr	r3, [r7, #20]
 800344c:	1ad3      	subs	r3, r2, r3
 800344e:	2b64      	cmp	r3, #100	@ 0x64
 8003450:	d901      	bls.n	8003456 <HAL_RCCEx_PeriphCLKConfig+0x622>
      {
        /* return in case of Timeout detected */
        return HAL_TIMEOUT;
 8003452:	2303      	movs	r3, #3
 8003454:	e0d7      	b.n	8003606 <HAL_RCCEx_PeriphCLKConfig+0x7d2>
    while(__HAL_RCC_GET_FLAG(RCC_FLAG_PLLI2SRDY)  == RESET)
 8003456:	4b0e      	ldr	r3, [pc, #56]	@ (8003490 <HAL_RCCEx_PeriphCLKConfig+0x65c>)
 8003458:	681b      	ldr	r3, [r3, #0]
 800345a:	f003 6300 	and.w	r3, r3, #134217728	@ 0x8000000
 800345e:	2b00      	cmp	r3, #0
 8003460:	d0f0      	beq.n	8003444 <HAL_RCCEx_PeriphCLKConfig+0x610>
    }
  }

  /*-------------------------------------- PLLSAI Configuration ---------------------------------*/
  /* PLLSAI is configured when a peripheral will use it as source clock : SAI1, SAI2, LTDC or CK48 */
  if(pllsaiused == 1)
 8003462:	69bb      	ldr	r3, [r7, #24]
 8003464:	2b01      	cmp	r3, #1
 8003466:	f040 80cd 	bne.w	8003604 <HAL_RCCEx_PeriphCLKConfig+0x7d0>
  {
    /* Disable PLLSAI Clock */
    __HAL_RCC_PLLSAI_DISABLE();
 800346a:	4b09      	ldr	r3, [pc, #36]	@ (8003490 <HAL_RCCEx_PeriphCLKConfig+0x65c>)
 800346c:	681b      	ldr	r3, [r3, #0]
 800346e:	4a08      	ldr	r2, [pc, #32]	@ (8003490 <HAL_RCCEx_PeriphCLKConfig+0x65c>)
 8003470:	f023 5380 	bic.w	r3, r3, #268435456	@ 0x10000000
 8003474:	6013      	str	r3, [r2, #0]

    /* Get Start Tick*/
    tickstart = HAL_GetTick();
 8003476:	f7fe f8fd 	bl	8001674 <HAL_GetTick>
 800347a:	6178      	str	r0, [r7, #20]

    /* Wait till PLLSAI is disabled */
    while(__HAL_RCC_PLLSAI_GET_FLAG() != RESET)
 800347c:	e00a      	b.n	8003494 <HAL_RCCEx_PeriphCLKConfig+0x660>
    {
      if((HAL_GetTick() - tickstart) > PLLSAI_TIMEOUT_VALUE)
 800347e:	f7fe f8f9 	bl	8001674 <HAL_GetTick>
 8003482:	4602      	mov	r2, r0
 8003484:	697b      	ldr	r3, [r7, #20]
 8003486:	1ad3      	subs	r3, r2, r3
 8003488:	2b64      	cmp	r3, #100	@ 0x64
 800348a:	d903      	bls.n	8003494 <HAL_RCCEx_PeriphCLKConfig+0x660>
      {
        /* return in case of Timeout detected */
        return HAL_TIMEOUT;
 800348c:	2303      	movs	r3, #3
 800348e:	e0ba      	b.n	8003606 <HAL_RCCEx_PeriphCLKConfig+0x7d2>
 8003490:	40023800 	.word	0x40023800
    while(__HAL_RCC_PLLSAI_GET_FLAG() != RESET)
 8003494:	4b5e      	ldr	r3, [pc, #376]	@ (8003610 <HAL_RCCEx_PeriphCLKConfig+0x7dc>)
 8003496:	681b      	ldr	r3, [r3, #0]
 8003498:	f003 5300 	and.w	r3, r3, #536870912	@ 0x20000000
 800349c:	f1b3 5f00 	cmp.w	r3, #536870912	@ 0x20000000
 80034a0:	d0ed      	beq.n	800347e <HAL_RCCEx_PeriphCLKConfig+0x64a>

    /* Check the PLLSAI division factors */
    assert_param(IS_RCC_PLLSAIN_VALUE(PeriphClkInit->PLLSAI.PLLSAIN));

    /*----------------- In Case of PLLSAI is selected as source clock for SAI -------------------*/
    if(((((PeriphClkInit->PeriphClockSelection) & RCC_PERIPHCLK_SAI1) == RCC_PERIPHCLK_SAI1) && (PeriphClkInit->Sai1ClockSelection == RCC_SAI1CLKSOURCE_PLLSAI)) ||\
 80034a2:	687b      	ldr	r3, [r7, #4]
 80034a4:	681b      	ldr	r3, [r3, #0]
 80034a6:	f403 2300 	and.w	r3, r3, #524288	@ 0x80000
 80034aa:	2b00      	cmp	r3, #0
 80034ac:	d003      	beq.n	80034b6 <HAL_RCCEx_PeriphCLKConfig+0x682>
 80034ae:	687b      	ldr	r3, [r7, #4]
 80034b0:	6bdb      	ldr	r3, [r3, #60]	@ 0x3c
 80034b2:	2b00      	cmp	r3, #0
 80034b4:	d009      	beq.n	80034ca <HAL_RCCEx_PeriphCLKConfig+0x696>
       ((((PeriphClkInit->PeriphClockSelection) & RCC_PERIPHCLK_SAI2) == RCC_PERIPHCLK_SAI2) && (PeriphClkInit->Sai2ClockSelection == RCC_SAI2CLKSOURCE_PLLSAI)))
 80034b6:	687b      	ldr	r3, [r7, #4]
 80034b8:	681b      	ldr	r3, [r3, #0]
 80034ba:	f403 1380 	and.w	r3, r3, #1048576	@ 0x100000
    if(((((PeriphClkInit->PeriphClockSelection) & RCC_PERIPHCLK_SAI1) == RCC_PERIPHCLK_SAI1) && (PeriphClkInit->Sai1ClockSelection == RCC_SAI1CLKSOURCE_PLLSAI)) ||\
 80034be:	2b00      	cmp	r3, #0
 80034c0:	d02e      	beq.n	8003520 <HAL_RCCEx_PeriphCLKConfig+0x6ec>
       ((((PeriphClkInit->PeriphClockSelection) & RCC_PERIPHCLK_SAI2) == RCC_PERIPHCLK_SAI2) && (PeriphClkInit->Sai2ClockSelection == RCC_SAI2CLKSOURCE_PLLSAI)))
 80034c2:	687b      	ldr	r3, [r7, #4]
 80034c4:	6c1b      	ldr	r3, [r3, #64]	@ 0x40
 80034c6:	2b00      	cmp	r3, #0
 80034c8:	d12a      	bne.n	8003520 <HAL_RCCEx_PeriphCLKConfig+0x6ec>
      assert_param(IS_RCC_PLLSAIQ_VALUE(PeriphClkInit->PLLSAI.PLLSAIQ));
      /* check for PLLSAI/DIVQ Parameter */
      assert_param(IS_RCC_PLLSAI_DIVQ_VALUE(PeriphClkInit->PLLSAIDivQ));

      /* Read PLLSAIP value from PLLSAICFGR register (this value is not needed for SAI configuration) */
      tmpreg0 = ((RCC->PLLSAICFGR & RCC_PLLSAICFGR_PLLSAIP) >> RCC_PLLSAICFGR_PLLSAIP_Pos);
 80034ca:	4b51      	ldr	r3, [pc, #324]	@ (8003610 <HAL_RCCEx_PeriphCLKConfig+0x7dc>)
 80034cc:	f8d3 3088 	ldr.w	r3, [r3, #136]	@ 0x88
 80034d0:	0c1b      	lsrs	r3, r3, #16
 80034d2:	f003 0303 	and.w	r3, r3, #3
 80034d6:	613b      	str	r3, [r7, #16]
      tmpreg1 = ((RCC->PLLSAICFGR & RCC_PLLI2SCFGR_PLLI2SR) >> RCC_PLLSAICFGR_PLLSAIR_Pos);
 80034d8:	4b4d      	ldr	r3, [pc, #308]	@ (8003610 <HAL_RCCEx_PeriphCLKConfig+0x7dc>)
 80034da:	f8d3 3088 	ldr.w	r3, [r3, #136]	@ 0x88
 80034de:	0f1b      	lsrs	r3, r3, #28
 80034e0:	f003 0307 	and.w	r3, r3, #7
 80034e4:	60fb      	str	r3, [r7, #12]
      /* PLLSAI_VCO Input  = PLL_SOURCE/PLLM */
      /* PLLSAI_VCO Output = PLLSAI_VCO Input * PLLSAIN */
      /* SAI_CLK(first level) = PLLSAI_VCO Output/PLLSAIQ */
      __HAL_RCC_PLLSAI_CONFIG(PeriphClkInit->PLLSAI.PLLSAIN , tmpreg0, PeriphClkInit->PLLSAI.PLLSAIQ, tmpreg1);
 80034e6:	687b      	ldr	r3, [r7, #4]
 80034e8:	695b      	ldr	r3, [r3, #20]
 80034ea:	019a      	lsls	r2, r3, #6
 80034ec:	693b      	ldr	r3, [r7, #16]
 80034ee:	041b      	lsls	r3, r3, #16
 80034f0:	431a      	orrs	r2, r3
 80034f2:	687b      	ldr	r3, [r7, #4]
 80034f4:	699b      	ldr	r3, [r3, #24]
 80034f6:	061b      	lsls	r3, r3, #24
 80034f8:	431a      	orrs	r2, r3
 80034fa:	68fb      	ldr	r3, [r7, #12]
 80034fc:	071b      	lsls	r3, r3, #28
 80034fe:	4944      	ldr	r1, [pc, #272]	@ (8003610 <HAL_RCCEx_PeriphCLKConfig+0x7dc>)
 8003500:	4313      	orrs	r3, r2
 8003502:	f8c1 3088 	str.w	r3, [r1, #136]	@ 0x88

      /* SAI_CLK_x = SAI_CLK(first level)/PLLSAIDIVQ */
      __HAL_RCC_PLLSAI_PLLSAICLKDIVQ_CONFIG(PeriphClkInit->PLLSAIDivQ);
 8003506:	4b42      	ldr	r3, [pc, #264]	@ (8003610 <HAL_RCCEx_PeriphCLKConfig+0x7dc>)
 8003508:	f8d3 308c 	ldr.w	r3, [r3, #140]	@ 0x8c
 800350c:	f423 52f8 	bic.w	r2, r3, #7936	@ 0x1f00
 8003510:	687b      	ldr	r3, [r7, #4]
 8003512:	6a9b      	ldr	r3, [r3, #40]	@ 0x28
 8003514:	3b01      	subs	r3, #1
 8003516:	021b      	lsls	r3, r3, #8
 8003518:	493d      	ldr	r1, [pc, #244]	@ (8003610 <HAL_RCCEx_PeriphCLKConfig+0x7dc>)
 800351a:	4313      	orrs	r3, r2
 800351c:	f8c1 308c 	str.w	r3, [r1, #140]	@ 0x8c
    }

    /*----------------- In Case of PLLSAI is selected as source clock for CLK48 -------------------*/
    /* In Case of PLLI2S is selected as source clock for CK48 */
    if((((PeriphClkInit->PeriphClockSelection) & RCC_PERIPHCLK_CLK48) == RCC_PERIPHCLK_CLK48) && (PeriphClkInit->Clk48ClockSelection == RCC_CLK48SOURCE_PLLSAIP))
 8003520:	687b      	ldr	r3, [r7, #4]
 8003522:	681b      	ldr	r3, [r3, #0]
 8003524:	f403 1300 	and.w	r3, r3, #2097152	@ 0x200000
 8003528:	2b00      	cmp	r3, #0
 800352a:	d022      	beq.n	8003572 <HAL_RCCEx_PeriphCLKConfig+0x73e>
 800352c:	687b      	ldr	r3, [r7, #4]
 800352e:	6fdb      	ldr	r3, [r3, #124]	@ 0x7c
 8003530:	f1b3 6f00 	cmp.w	r3, #134217728	@ 0x8000000
 8003534:	d11d      	bne.n	8003572 <HAL_RCCEx_PeriphCLKConfig+0x73e>
    {
      /* check for Parameters */
      assert_param(IS_RCC_PLLSAIP_VALUE(PeriphClkInit->PLLSAI.PLLSAIP));
      /* Read PLLSAIQ and PLLSAIR value from PLLSAICFGR register (this value is not needed for CK48 configuration) */
      tmpreg0 = ((RCC->PLLSAICFGR & RCC_PLLSAICFGR_PLLSAIQ) >> RCC_PLLSAICFGR_PLLSAIQ_Pos);
 8003536:	4b36      	ldr	r3, [pc, #216]	@ (8003610 <HAL_RCCEx_PeriphCLKConfig+0x7dc>)
 8003538:	f8d3 3088 	ldr.w	r3, [r3, #136]	@ 0x88
 800353c:	0e1b      	lsrs	r3, r3, #24
 800353e:	f003 030f 	and.w	r3, r3, #15
 8003542:	613b      	str	r3, [r7, #16]
      tmpreg1 = ((RCC->PLLSAICFGR & RCC_PLLSAICFGR_PLLSAIR) >> RCC_PLLSAICFGR_PLLSAIR_Pos);
 8003544:	4b32      	ldr	r3, [pc, #200]	@ (8003610 <HAL_RCCEx_PeriphCLKConfig+0x7dc>)
 8003546:	f8d3 3088 	ldr.w	r3, [r3, #136]	@ 0x88
 800354a:	0f1b      	lsrs	r3, r3, #28
 800354c:	f003 0307 	and.w	r3, r3, #7
 8003550:	60fb      	str	r3, [r7, #12]

      /* Configure the PLLSAI division factors */
      /* PLLSAI_VCO = f(VCO clock) = f(PLLSAI clock input) x (PLLI2SN/PLLM) */
      /* 48CLK = f(PLLSAI clock output) = f(VCO clock) / PLLSAIP */
      __HAL_RCC_PLLSAI_CONFIG(PeriphClkInit->PLLSAI.PLLSAIN , PeriphClkInit->PLLSAI.PLLSAIP, tmpreg0, tmpreg1);
 8003552:	687b      	ldr	r3, [r7, #4]
 8003554:	695b      	ldr	r3, [r3, #20]
 8003556:	019a      	lsls	r2, r3, #6
 8003558:	687b      	ldr	r3, [r7, #4]
 800355a:	6a1b      	ldr	r3, [r3, #32]
 800355c:	041b      	lsls	r3, r3, #16
 800355e:	431a      	orrs	r2, r3
 8003560:	693b      	ldr	r3, [r7, #16]
 8003562:	061b      	lsls	r3, r3, #24
 8003564:	431a      	orrs	r2, r3
 8003566:	68fb      	ldr	r3, [r7, #12]
 8003568:	071b      	lsls	r3, r3, #28
 800356a:	4929      	ldr	r1, [pc, #164]	@ (8003610 <HAL_RCCEx_PeriphCLKConfig+0x7dc>)
 800356c:	4313      	orrs	r3, r2
 800356e:	f8c1 3088 	str.w	r3, [r1, #136]	@ 0x88
    }

#if defined(STM32F746xx) || defined(STM32F756xx) || defined (STM32F767xx) || defined (STM32F769xx) || defined (STM32F777xx) || defined (STM32F779xx) || defined (STM32F750xx)
    /*---------------------------- LTDC configuration -------------------------------*/
    if(((PeriphClkInit->PeriphClockSelection) & RCC_PERIPHCLK_LTDC) == (RCC_PERIPHCLK_LTDC))
 8003572:	687b      	ldr	r3, [r7, #4]
 8003574:	681b      	ldr	r3, [r3, #0]
 8003576:	f003 0308 	and.w	r3, r3, #8
 800357a:	2b00      	cmp	r3, #0
 800357c:	d028      	beq.n	80035d0 <HAL_RCCEx_PeriphCLKConfig+0x79c>
    {
      assert_param(IS_RCC_PLLSAIR_VALUE(PeriphClkInit->PLLSAI.PLLSAIR));
      assert_param(IS_RCC_PLLSAI_DIVR_VALUE(PeriphClkInit->PLLSAIDivR));

      /* Read PLLSAIP and PLLSAIQ value from PLLSAICFGR register (these value are not needed for LTDC configuration) */
      tmpreg0 = ((RCC->PLLSAICFGR & RCC_PLLSAICFGR_PLLSAIQ) >> RCC_PLLSAICFGR_PLLSAIQ_Pos);
 800357e:	4b24      	ldr	r3, [pc, #144]	@ (8003610 <HAL_RCCEx_PeriphCLKConfig+0x7dc>)
 8003580:	f8d3 3088 	ldr.w	r3, [r3, #136]	@ 0x88
 8003584:	0e1b      	lsrs	r3, r3, #24
 8003586:	f003 030f 	and.w	r3, r3, #15
 800358a:	613b      	str	r3, [r7, #16]
      tmpreg1 = ((RCC->PLLSAICFGR & RCC_PLLSAICFGR_PLLSAIP) >> RCC_PLLSAICFGR_PLLSAIP_Pos);
 800358c:	4b20      	ldr	r3, [pc, #128]	@ (8003610 <HAL_RCCEx_PeriphCLKConfig+0x7dc>)
 800358e:	f8d3 3088 	ldr.w	r3, [r3, #136]	@ 0x88
 8003592:	0c1b      	lsrs	r3, r3, #16
 8003594:	f003 0303 	and.w	r3, r3, #3
 8003598:	60fb      	str	r3, [r7, #12]

      /* PLLSAI_VCO Input  = PLL_SOURCE/PLLM */
      /* PLLSAI_VCO Output = PLLSAI_VCO Input * PLLSAIN */
      /* LTDC_CLK(first level) = PLLSAI_VCO Output/PLLSAIR */
      __HAL_RCC_PLLSAI_CONFIG(PeriphClkInit->PLLSAI.PLLSAIN , tmpreg1, tmpreg0, PeriphClkInit->PLLSAI.PLLSAIR);
 800359a:	687b      	ldr	r3, [r7, #4]
 800359c:	695b      	ldr	r3, [r3, #20]
 800359e:	019a      	lsls	r2, r3, #6
 80035a0:	68fb      	ldr	r3, [r7, #12]
 80035a2:	041b      	lsls	r3, r3, #16
 80035a4:	431a      	orrs	r2, r3
 80035a6:	693b      	ldr	r3, [r7, #16]
 80035a8:	061b      	lsls	r3, r3, #24
 80035aa:	431a      	orrs	r2, r3
 80035ac:	687b      	ldr	r3, [r7, #4]
 80035ae:	69db      	ldr	r3, [r3, #28]
 80035b0:	071b      	lsls	r3, r3, #28
 80035b2:	4917      	ldr	r1, [pc, #92]	@ (8003610 <HAL_RCCEx_PeriphCLKConfig+0x7dc>)
 80035b4:	4313      	orrs	r3, r2
 80035b6:	f8c1 3088 	str.w	r3, [r1, #136]	@ 0x88

      /* LTDC_CLK = LTDC_CLK(first level)/PLLSAIDIVR */
      __HAL_RCC_PLLSAI_PLLSAICLKDIVR_CONFIG(PeriphClkInit->PLLSAIDivR);
 80035ba:	4b15      	ldr	r3, [pc, #84]	@ (8003610 <HAL_RCCEx_PeriphCLKConfig+0x7dc>)
 80035bc:	f8d3 308c 	ldr.w	r3, [r3, #140]	@ 0x8c
 80035c0:	f423 3240 	bic.w	r2, r3, #196608	@ 0x30000
 80035c4:	687b      	ldr	r3, [r7, #4]
 80035c6:	6adb      	ldr	r3, [r3, #44]	@ 0x2c
 80035c8:	4911      	ldr	r1, [pc, #68]	@ (8003610 <HAL_RCCEx_PeriphCLKConfig+0x7dc>)
 80035ca:	4313      	orrs	r3, r2
 80035cc:	f8c1 308c 	str.w	r3, [r1, #140]	@ 0x8c
    }
#endif /* STM32F746xx || STM32F756xx || STM32F767xx || STM32F769xx || STM32F777xx || STM32F779xx || STM32F750xx  */

    /* Enable PLLSAI Clock */
    __HAL_RCC_PLLSAI_ENABLE();
 80035d0:	4b0f      	ldr	r3, [pc, #60]	@ (8003610 <HAL_RCCEx_PeriphCLKConfig+0x7dc>)
 80035d2:	681b      	ldr	r3, [r3, #0]
 80035d4:	4a0e      	ldr	r2, [pc, #56]	@ (8003610 <HAL_RCCEx_PeriphCLKConfig+0x7dc>)
 80035d6:	f043 5380 	orr.w	r3, r3, #268435456	@ 0x10000000
 80035da:	6013      	str	r3, [r2, #0]

    /* Get Start Tick*/
    tickstart = HAL_GetTick();
 80035dc:	f7fe f84a 	bl	8001674 <HAL_GetTick>
 80035e0:	6178      	str	r0, [r7, #20]

    /* Wait till PLLSAI is ready */
    while(__HAL_RCC_PLLSAI_GET_FLAG() == RESET)
 80035e2:	e008      	b.n	80035f6 <HAL_RCCEx_PeriphCLKConfig+0x7c2>
    {
      if((HAL_GetTick() - tickstart) > PLLSAI_TIMEOUT_VALUE)
 80035e4:	f7fe f846 	bl	8001674 <HAL_GetTick>
 80035e8:	4602      	mov	r2, r0
 80035ea:	697b      	ldr	r3, [r7, #20]
 80035ec:	1ad3      	subs	r3, r2, r3
 80035ee:	2b64      	cmp	r3, #100	@ 0x64
 80035f0:	d901      	bls.n	80035f6 <HAL_RCCEx_PeriphCLKConfig+0x7c2>
      {
        /* return in case of Timeout detected */
        return HAL_TIMEOUT;
 80035f2:	2303      	movs	r3, #3
 80035f4:	e007      	b.n	8003606 <HAL_RCCEx_PeriphCLKConfig+0x7d2>
    while(__HAL_RCC_PLLSAI_GET_FLAG() == RESET)
 80035f6:	4b06      	ldr	r3, [pc, #24]	@ (8003610 <HAL_RCCEx_PeriphCLKConfig+0x7dc>)
 80035f8:	681b      	ldr	r3, [r3, #0]
 80035fa:	f003 5300 	and.w	r3, r3, #536870912	@ 0x20000000
 80035fe:	f1b3 5f00 	cmp.w	r3, #536870912	@ 0x20000000
 8003602:	d1ef      	bne.n	80035e4 <HAL_RCCEx_PeriphCLKConfig+0x7b0>
      }
    }
  }
  return HAL_OK;
 8003604:	2300      	movs	r3, #0
}
 8003606:	4618      	mov	r0, r3
 8003608:	3720      	adds	r7, #32
 800360a:	46bd      	mov	sp, r7
 800360c:	bd80      	pop	{r7, pc}
 800360e:	bf00      	nop
 8003610:	40023800 	.word	0x40023800

08003614 <HAL_TIM_Base_Init>:
  *         Ex: call @ref HAL_TIM_Base_DeInit() before HAL_TIM_Base_Init()
  * @param  htim TIM Base handle
  * @retval HAL status
  */
HAL_StatusTypeDef HAL_TIM_Base_Init(TIM_HandleTypeDef *htim)
{
 8003614:	b580      	push	{r7, lr}
 8003616:	b082      	sub	sp, #8
 8003618:	af00      	add	r7, sp, #0
 800361a:	6078      	str	r0, [r7, #4]
  /* Check the TIM handle allocation */
  if (htim == NULL)
 800361c:	687b      	ldr	r3, [r7, #4]
 800361e:	2b00      	cmp	r3, #0
 8003620:	d101      	bne.n	8003626 <HAL_TIM_Base_Init+0x12>
  {
    return HAL_ERROR;
 8003622:	2301      	movs	r3, #1
 8003624:	e049      	b.n	80036ba <HAL_TIM_Base_Init+0xa6>
  assert_param(IS_TIM_COUNTER_MODE(htim->Init.CounterMode));
  assert_param(IS_TIM_CLOCKDIVISION_DIV(htim->Init.ClockDivision));
  assert_param(IS_TIM_PERIOD(htim, htim->Init.Period));
  assert_param(IS_TIM_AUTORELOAD_PRELOAD(htim->Init.AutoReloadPreload));

  if (htim->State == HAL_TIM_STATE_RESET)
 8003626:	687b      	ldr	r3, [r7, #4]
 8003628:	f893 303d 	ldrb.w	r3, [r3, #61]	@ 0x3d
 800362c:	b2db      	uxtb	r3, r3
 800362e:	2b00      	cmp	r3, #0
 8003630:	d106      	bne.n	8003640 <HAL_TIM_Base_Init+0x2c>
  {
    /* Allocate lock resource and initialize it */
    htim->Lock = HAL_UNLOCKED;
 8003632:	687b      	ldr	r3, [r7, #4]
 8003634:	2200      	movs	r2, #0
 8003636:	f883 203c 	strb.w	r2, [r3, #60]	@ 0x3c
    }
    /* Init the low level hardware : GPIO, CLOCK, NVIC */
    htim->Base_MspInitCallback(htim);
#else
    /* Init the low level hardware : GPIO, CLOCK, NVIC */
    HAL_TIM_Base_MspInit(htim);
 800363a:	6878      	ldr	r0, [r7, #4]
 800363c:	f000 f841 	bl	80036c2 <HAL_TIM_Base_MspInit>
#endif /* USE_HAL_TIM_REGISTER_CALLBACKS */
  }

  /* Set the TIM state */
  htim->State = HAL_TIM_STATE_BUSY;
 8003640:	687b      	ldr	r3, [r7, #4]
 8003642:	2202      	movs	r2, #2
 8003644:	f883 203d 	strb.w	r2, [r3, #61]	@ 0x3d

  /* Set the Time Base configuration */
  TIM_Base_SetConfig(htim->Instance, &htim->Init);
 8003648:	687b      	ldr	r3, [r7, #4]
 800364a:	681a      	ldr	r2, [r3, #0]
 800364c:	687b      	ldr	r3, [r7, #4]
 800364e:	3304      	adds	r3, #4
 8003650:	4619      	mov	r1, r3
 8003652:	4610      	mov	r0, r2
 8003654:	f000 fa00 	bl	8003a58 <TIM_Base_SetConfig>

  /* Initialize the DMA burst operation state */
  htim->DMABurstState = HAL_DMA_BURST_STATE_READY;
 8003658:	687b      	ldr	r3, [r7, #4]
 800365a:	2201      	movs	r2, #1
 800365c:	f883 2048 	strb.w	r2, [r3, #72]	@ 0x48

  /* Initialize the TIM channels state */
  TIM_CHANNEL_STATE_SET_ALL(htim, HAL_TIM_CHANNEL_STATE_READY);
 8003660:	687b      	ldr	r3, [r7, #4]
 8003662:	2201      	movs	r2, #1
 8003664:	f883 203e 	strb.w	r2, [r3, #62]	@ 0x3e
 8003668:	687b      	ldr	r3, [r7, #4]
 800366a:	2201      	movs	r2, #1
 800366c:	f883 203f 	strb.w	r2, [r3, #63]	@ 0x3f
 8003670:	687b      	ldr	r3, [r7, #4]
 8003672:	2201      	movs	r2, #1
 8003674:	f883 2040 	strb.w	r2, [r3, #64]	@ 0x40
 8003678:	687b      	ldr	r3, [r7, #4]
 800367a:	2201      	movs	r2, #1
 800367c:	f883 2041 	strb.w	r2, [r3, #65]	@ 0x41
 8003680:	687b      	ldr	r3, [r7, #4]
 8003682:	2201      	movs	r2, #1
 8003684:	f883 2042 	strb.w	r2, [r3, #66]	@ 0x42
 8003688:	687b      	ldr	r3, [r7, #4]
 800368a:	2201      	movs	r2, #1
 800368c:	f883 2043 	strb.w	r2, [r3, #67]	@ 0x43
  TIM_CHANNEL_N_STATE_SET_ALL(htim, HAL_TIM_CHANNEL_STATE_READY);
 8003690:	687b      	ldr	r3, [r7, #4]
 8003692:	2201      	movs	r2, #1
 8003694:	f883 2044 	strb.w	r2, [r3, #68]	@ 0x44
 8003698:	687b      	ldr	r3, [r7, #4]
 800369a:	2201      	movs	r2, #1
 800369c:	f883 2045 	strb.w	r2, [r3, #69]	@ 0x45
 80036a0:	687b      	ldr	r3, [r7, #4]
 80036a2:	2201      	movs	r2, #1
 80036a4:	f883 2046 	strb.w	r2, [r3, #70]	@ 0x46
 80036a8:	687b      	ldr	r3, [r7, #4]
 80036aa:	2201      	movs	r2, #1
 80036ac:	f883 2047 	strb.w	r2, [r3, #71]	@ 0x47

  /* Initialize the TIM state*/
  htim->State = HAL_TIM_STATE_READY;
 80036b0:	687b      	ldr	r3, [r7, #4]
 80036b2:	2201      	movs	r2, #1
 80036b4:	f883 203d 	strb.w	r2, [r3, #61]	@ 0x3d

  return HAL_OK;
 80036b8:	2300      	movs	r3, #0
}
 80036ba:	4618      	mov	r0, r3
 80036bc:	3708      	adds	r7, #8
 80036be:	46bd      	mov	sp, r7
 80036c0:	bd80      	pop	{r7, pc}

080036c2 <HAL_TIM_Base_MspInit>:
  * @brief  Initializes the TIM Base MSP.
  * @param  htim TIM Base handle
  * @retval None
  */
__weak void HAL_TIM_Base_MspInit(TIM_HandleTypeDef *htim)
{
 80036c2:	b480      	push	{r7}
 80036c4:	b083      	sub	sp, #12
 80036c6:	af00      	add	r7, sp, #0
 80036c8:	6078      	str	r0, [r7, #4]
  UNUSED(htim);

  /* NOTE : This function should not be modified, when the callback is needed,
            the HAL_TIM_Base_MspInit could be implemented in the user file
   */
}
 80036ca:	bf00      	nop
 80036cc:	370c      	adds	r7, #12
 80036ce:	46bd      	mov	sp, r7
 80036d0:	f85d 7b04 	ldr.w	r7, [sp], #4
 80036d4:	4770      	bx	lr
	...

080036d8 <HAL_TIM_Base_Start_IT>:
  * @brief  Starts the TIM Base generation in interrupt mode.
  * @param  htim TIM Base handle
  * @retval HAL status
  */
HAL_StatusTypeDef HAL_TIM_Base_Start_IT(TIM_HandleTypeDef *htim)
{
 80036d8:	b480      	push	{r7}
 80036da:	b085      	sub	sp, #20
 80036dc:	af00      	add	r7, sp, #0
 80036de:	6078      	str	r0, [r7, #4]

  /* Check the parameters */
  assert_param(IS_TIM_INSTANCE(htim->Instance));

  /* Check the TIM state */
  if (htim->State != HAL_TIM_STATE_READY)
 80036e0:	687b      	ldr	r3, [r7, #4]
 80036e2:	f893 303d 	ldrb.w	r3, [r3, #61]	@ 0x3d
 80036e6:	b2db      	uxtb	r3, r3
 80036e8:	2b01      	cmp	r3, #1
 80036ea:	d001      	beq.n	80036f0 <HAL_TIM_Base_Start_IT+0x18>
  {
    return HAL_ERROR;
 80036ec:	2301      	movs	r3, #1
 80036ee:	e054      	b.n	800379a <HAL_TIM_Base_Start_IT+0xc2>
  }

  /* Set the TIM state */
  htim->State = HAL_TIM_STATE_BUSY;
 80036f0:	687b      	ldr	r3, [r7, #4]
 80036f2:	2202      	movs	r2, #2
 80036f4:	f883 203d 	strb.w	r2, [r3, #61]	@ 0x3d

  /* Enable the TIM Update interrupt */
  __HAL_TIM_ENABLE_IT(htim, TIM_IT_UPDATE);
 80036f8:	687b      	ldr	r3, [r7, #4]
 80036fa:	681b      	ldr	r3, [r3, #0]
 80036fc:	68da      	ldr	r2, [r3, #12]
 80036fe:	687b      	ldr	r3, [r7, #4]
 8003700:	681b      	ldr	r3, [r3, #0]
 8003702:	f042 0201 	orr.w	r2, r2, #1
 8003706:	60da      	str	r2, [r3, #12]

  /* Enable the Peripheral, except in trigger mode where enable is automatically done with trigger */
  if (IS_TIM_SLAVE_INSTANCE(htim->Instance))
 8003708:	687b      	ldr	r3, [r7, #4]
 800370a:	681b      	ldr	r3, [r3, #0]
 800370c:	4a26      	ldr	r2, [pc, #152]	@ (80037a8 <HAL_TIM_Base_Start_IT+0xd0>)
 800370e:	4293      	cmp	r3, r2
 8003710:	d022      	beq.n	8003758 <HAL_TIM_Base_Start_IT+0x80>
 8003712:	687b      	ldr	r3, [r7, #4]
 8003714:	681b      	ldr	r3, [r3, #0]
 8003716:	f1b3 4f80 	cmp.w	r3, #1073741824	@ 0x40000000
 800371a:	d01d      	beq.n	8003758 <HAL_TIM_Base_Start_IT+0x80>
 800371c:	687b      	ldr	r3, [r7, #4]
 800371e:	681b      	ldr	r3, [r3, #0]
 8003720:	4a22      	ldr	r2, [pc, #136]	@ (80037ac <HAL_TIM_Base_Start_IT+0xd4>)
 8003722:	4293      	cmp	r3, r2
 8003724:	d018      	beq.n	8003758 <HAL_TIM_Base_Start_IT+0x80>
 8003726:	687b      	ldr	r3, [r7, #4]
 8003728:	681b      	ldr	r3, [r3, #0]
 800372a:	4a21      	ldr	r2, [pc, #132]	@ (80037b0 <HAL_TIM_Base_Start_IT+0xd8>)
 800372c:	4293      	cmp	r3, r2
 800372e:	d013      	beq.n	8003758 <HAL_TIM_Base_Start_IT+0x80>
 8003730:	687b      	ldr	r3, [r7, #4]
 8003732:	681b      	ldr	r3, [r3, #0]
 8003734:	4a1f      	ldr	r2, [pc, #124]	@ (80037b4 <HAL_TIM_Base_Start_IT+0xdc>)
 8003736:	4293      	cmp	r3, r2
 8003738:	d00e      	beq.n	8003758 <HAL_TIM_Base_Start_IT+0x80>
 800373a:	687b      	ldr	r3, [r7, #4]
 800373c:	681b      	ldr	r3, [r3, #0]
 800373e:	4a1e      	ldr	r2, [pc, #120]	@ (80037b8 <HAL_TIM_Base_Start_IT+0xe0>)
 8003740:	4293      	cmp	r3, r2
 8003742:	d009      	beq.n	8003758 <HAL_TIM_Base_Start_IT+0x80>
 8003744:	687b      	ldr	r3, [r7, #4]
 8003746:	681b      	ldr	r3, [r3, #0]
 8003748:	4a1c      	ldr	r2, [pc, #112]	@ (80037bc <HAL_TIM_Base_Start_IT+0xe4>)
 800374a:	4293      	cmp	r3, r2
 800374c:	d004      	beq.n	8003758 <HAL_TIM_Base_Start_IT+0x80>
 800374e:	687b      	ldr	r3, [r7, #4]
 8003750:	681b      	ldr	r3, [r3, #0]
 8003752:	4a1b      	ldr	r2, [pc, #108]	@ (80037c0 <HAL_TIM_Base_Start_IT+0xe8>)
 8003754:	4293      	cmp	r3, r2
 8003756:	d115      	bne.n	8003784 <HAL_TIM_Base_Start_IT+0xac>
  {
    tmpsmcr = htim->Instance->SMCR & TIM_SMCR_SMS;
 8003758:	687b      	ldr	r3, [r7, #4]
 800375a:	681b      	ldr	r3, [r3, #0]
 800375c:	689a      	ldr	r2, [r3, #8]
 800375e:	4b19      	ldr	r3, [pc, #100]	@ (80037c4 <HAL_TIM_Base_Start_IT+0xec>)
 8003760:	4013      	ands	r3, r2
 8003762:	60fb      	str	r3, [r7, #12]
    if (!IS_TIM_SLAVEMODE_TRIGGER_ENABLED(tmpsmcr))
 8003764:	68fb      	ldr	r3, [r7, #12]
 8003766:	2b06      	cmp	r3, #6
 8003768:	d015      	beq.n	8003796 <HAL_TIM_Base_Start_IT+0xbe>
 800376a:	68fb      	ldr	r3, [r7, #12]
 800376c:	f5b3 3f80 	cmp.w	r3, #65536	@ 0x10000
 8003770:	d011      	beq.n	8003796 <HAL_TIM_Base_Start_IT+0xbe>
    {
      __HAL_TIM_ENABLE(htim);
 8003772:	687b      	ldr	r3, [r7, #4]
 8003774:	681b      	ldr	r3, [r3, #0]
 8003776:	681a      	ldr	r2, [r3, #0]
 8003778:	687b      	ldr	r3, [r7, #4]
 800377a:	681b      	ldr	r3, [r3, #0]
 800377c:	f042 0201 	orr.w	r2, r2, #1
 8003780:	601a      	str	r2, [r3, #0]
    if (!IS_TIM_SLAVEMODE_TRIGGER_ENABLED(tmpsmcr))
 8003782:	e008      	b.n	8003796 <HAL_TIM_Base_Start_IT+0xbe>
    }
  }
  else
  {
    __HAL_TIM_ENABLE(htim);
 8003784:	687b      	ldr	r3, [r7, #4]
 8003786:	681b      	ldr	r3, [r3, #0]
 8003788:	681a      	ldr	r2, [r3, #0]
 800378a:	687b      	ldr	r3, [r7, #4]
 800378c:	681b      	ldr	r3, [r3, #0]
 800378e:	f042 0201 	orr.w	r2, r2, #1
 8003792:	601a      	str	r2, [r3, #0]
 8003794:	e000      	b.n	8003798 <HAL_TIM_Base_Start_IT+0xc0>
    if (!IS_TIM_SLAVEMODE_TRIGGER_ENABLED(tmpsmcr))
 8003796:	bf00      	nop
  }

  /* Return function status */
  return HAL_OK;
 8003798:	2300      	movs	r3, #0
}
 800379a:	4618      	mov	r0, r3
 800379c:	3714      	adds	r7, #20
 800379e:	46bd      	mov	sp, r7
 80037a0:	f85d 7b04 	ldr.w	r7, [sp], #4
 80037a4:	4770      	bx	lr
 80037a6:	bf00      	nop
 80037a8:	40010000 	.word	0x40010000
 80037ac:	40000400 	.word	0x40000400
 80037b0:	40000800 	.word	0x40000800
 80037b4:	40000c00 	.word	0x40000c00
 80037b8:	40010400 	.word	0x40010400
 80037bc:	40014000 	.word	0x40014000
 80037c0:	40001800 	.word	0x40001800
 80037c4:	00010007 	.word	0x00010007

080037c8 <HAL_TIM_IRQHandler>:
  * @brief  This function handles TIM interrupts requests.
  * @param  htim TIM  handle
  * @retval None
  */
void HAL_TIM_IRQHandler(TIM_HandleTypeDef *htim)
{
 80037c8:	b580      	push	{r7, lr}
 80037ca:	b082      	sub	sp, #8
 80037cc:	af00      	add	r7, sp, #0
 80037ce:	6078      	str	r0, [r7, #4]
  /* Capture compare 1 event */
  if (__HAL_TIM_GET_FLAG(htim, TIM_FLAG_CC1) != RESET)
 80037d0:	687b      	ldr	r3, [r7, #4]
 80037d2:	681b      	ldr	r3, [r3, #0]
 80037d4:	691b      	ldr	r3, [r3, #16]
 80037d6:	f003 0302 	and.w	r3, r3, #2
 80037da:	2b02      	cmp	r3, #2
 80037dc:	d122      	bne.n	8003824 <HAL_TIM_IRQHandler+0x5c>
  {
    if (__HAL_TIM_GET_IT_SOURCE(htim, TIM_IT_CC1) != RESET)
 80037de:	687b      	ldr	r3, [r7, #4]
 80037e0:	681b      	ldr	r3, [r3, #0]
 80037e2:	68db      	ldr	r3, [r3, #12]
 80037e4:	f003 0302 	and.w	r3, r3, #2
 80037e8:	2b02      	cmp	r3, #2
 80037ea:	d11b      	bne.n	8003824 <HAL_TIM_IRQHandler+0x5c>
    {
      {
        __HAL_TIM_CLEAR_IT(htim, TIM_IT_CC1);
 80037ec:	687b      	ldr	r3, [r7, #4]
 80037ee:	681b      	ldr	r3, [r3, #0]
 80037f0:	f06f 0202 	mvn.w	r2, #2
 80037f4:	611a      	str	r2, [r3, #16]
        htim->Channel = HAL_TIM_ACTIVE_CHANNEL_1;
 80037f6:	687b      	ldr	r3, [r7, #4]
 80037f8:	2201      	movs	r2, #1
 80037fa:	771a      	strb	r2, [r3, #28]

        /* Input capture event */
        if ((htim->Instance->CCMR1 & TIM_CCMR1_CC1S) != 0x00U)
 80037fc:	687b      	ldr	r3, [r7, #4]
 80037fe:	681b      	ldr	r3, [r3, #0]
 8003800:	699b      	ldr	r3, [r3, #24]
 8003802:	f003 0303 	and.w	r3, r3, #3
 8003806:	2b00      	cmp	r3, #0
 8003808:	d003      	beq.n	8003812 <HAL_TIM_IRQHandler+0x4a>
        {
#if (USE_HAL_TIM_REGISTER_CALLBACKS == 1)
          htim->IC_CaptureCallback(htim);
#else
          HAL_TIM_IC_CaptureCallback(htim);
 800380a:	6878      	ldr	r0, [r7, #4]
 800380c:	f000 f905 	bl	8003a1a <HAL_TIM_IC_CaptureCallback>
 8003810:	e005      	b.n	800381e <HAL_TIM_IRQHandler+0x56>
        {
#if (USE_HAL_TIM_REGISTER_CALLBACKS == 1)
          htim->OC_DelayElapsedCallback(htim);
          htim->PWM_PulseFinishedCallback(htim);
#else
          HAL_TIM_OC_DelayElapsedCallback(htim);
 8003812:	6878      	ldr	r0, [r7, #4]
 8003814:	f000 f8f7 	bl	8003a06 <HAL_TIM_OC_DelayElapsedCallback>
          HAL_TIM_PWM_PulseFinishedCallback(htim);
 8003818:	6878      	ldr	r0, [r7, #4]
 800381a:	f000 f908 	bl	8003a2e <HAL_TIM_PWM_PulseFinishedCallback>
#endif /* USE_HAL_TIM_REGISTER_CALLBACKS */
        }
        htim->Channel = HAL_TIM_ACTIVE_CHANNEL_CLEARED;
 800381e:	687b      	ldr	r3, [r7, #4]
 8003820:	2200      	movs	r2, #0
 8003822:	771a      	strb	r2, [r3, #28]
      }
    }
  }
  /* Capture compare 2 event */
  if (__HAL_TIM_GET_FLAG(htim, TIM_FLAG_CC2) != RESET)
 8003824:	687b      	ldr	r3, [r7, #4]
 8003826:	681b      	ldr	r3, [r3, #0]
 8003828:	691b      	ldr	r3, [r3, #16]
 800382a:	f003 0304 	and.w	r3, r3, #4
 800382e:	2b04      	cmp	r3, #4
 8003830:	d122      	bne.n	8003878 <HAL_TIM_IRQHandler+0xb0>
  {
    if (__HAL_TIM_GET_IT_SOURCE(htim, TIM_IT_CC2) != RESET)
 8003832:	687b      	ldr	r3, [r7, #4]
 8003834:	681b      	ldr	r3, [r3, #0]
 8003836:	68db      	ldr	r3, [r3, #12]
 8003838:	f003 0304 	and.w	r3, r3, #4
 800383c:	2b04      	cmp	r3, #4
 800383e:	d11b      	bne.n	8003878 <HAL_TIM_IRQHandler+0xb0>
    {
      __HAL_TIM_CLEAR_IT(htim, TIM_IT_CC2);
 8003840:	687b      	ldr	r3, [r7, #4]
 8003842:	681b      	ldr	r3, [r3, #0]
 8003844:	f06f 0204 	mvn.w	r2, #4
 8003848:	611a      	str	r2, [r3, #16]
      htim->Channel = HAL_TIM_ACTIVE_CHANNEL_2;
 800384a:	687b      	ldr	r3, [r7, #4]
 800384c:	2202      	movs	r2, #2
 800384e:	771a      	strb	r2, [r3, #28]
      /* Input capture event */
      if ((htim->Instance->CCMR1 & TIM_CCMR1_CC2S) != 0x00U)
 8003850:	687b      	ldr	r3, [r7, #4]
 8003852:	681b      	ldr	r3, [r3, #0]
 8003854:	699b      	ldr	r3, [r3, #24]
 8003856:	f403 7340 	and.w	r3, r3, #768	@ 0x300
 800385a:	2b00      	cmp	r3, #0
 800385c:	d003      	beq.n	8003866 <HAL_TIM_IRQHandler+0x9e>
      {
#if (USE_HAL_TIM_REGISTER_CALLBACKS == 1)
        htim->IC_CaptureCallback(htim);
#else
        HAL_TIM_IC_CaptureCallback(htim);
 800385e:	6878      	ldr	r0, [r7, #4]
 8003860:	f000 f8db 	bl	8003a1a <HAL_TIM_IC_CaptureCallback>
 8003864:	e005      	b.n	8003872 <HAL_TIM_IRQHandler+0xaa>
      {
#if (USE_HAL_TIM_REGISTER_CALLBACKS == 1)
        htim->OC_DelayElapsedCallback(htim);
        htim->PWM_PulseFinishedCallback(htim);
#else
        HAL_TIM_OC_DelayElapsedCallback(htim);
 8003866:	6878      	ldr	r0, [r7, #4]
 8003868:	f000 f8cd 	bl	8003a06 <HAL_TIM_OC_DelayElapsedCallback>
        HAL_TIM_PWM_PulseFinishedCallback(htim);
 800386c:	6878      	ldr	r0, [r7, #4]
 800386e:	f000 f8de 	bl	8003a2e <HAL_TIM_PWM_PulseFinishedCallback>
#endif /* USE_HAL_TIM_REGISTER_CALLBACKS */
      }
      htim->Channel = HAL_TIM_ACTIVE_CHANNEL_CLEARED;
 8003872:	687b      	ldr	r3, [r7, #4]
 8003874:	2200      	movs	r2, #0
 8003876:	771a      	strb	r2, [r3, #28]
    }
  }
  /* Capture compare 3 event */
  if (__HAL_TIM_GET_FLAG(htim, TIM_FLAG_CC3) != RESET)
 8003878:	687b      	ldr	r3, [r7, #4]
 800387a:	681b      	ldr	r3, [r3, #0]
 800387c:	691b      	ldr	r3, [r3, #16]
 800387e:	f003 0308 	and.w	r3, r3, #8
 8003882:	2b08      	cmp	r3, #8
 8003884:	d122      	bne.n	80038cc <HAL_TIM_IRQHandler+0x104>
  {
    if (__HAL_TIM_GET_IT_SOURCE(htim, TIM_IT_CC3) != RESET)
 8003886:	687b      	ldr	r3, [r7, #4]
 8003888:	681b      	ldr	r3, [r3, #0]
 800388a:	68db      	ldr	r3, [r3, #12]
 800388c:	f003 0308 	and.w	r3, r3, #8
 8003890:	2b08      	cmp	r3, #8
 8003892:	d11b      	bne.n	80038cc <HAL_TIM_IRQHandler+0x104>
    {
      __HAL_TIM_CLEAR_IT(htim, TIM_IT_CC3);
 8003894:	687b      	ldr	r3, [r7, #4]
 8003896:	681b      	ldr	r3, [r3, #0]
 8003898:	f06f 0208 	mvn.w	r2, #8
 800389c:	611a      	str	r2, [r3, #16]
      htim->Channel = HAL_TIM_ACTIVE_CHANNEL_3;
 800389e:	687b      	ldr	r3, [r7, #4]
 80038a0:	2204      	movs	r2, #4
 80038a2:	771a      	strb	r2, [r3, #28]
      /* Input capture event */
      if ((htim->Instance->CCMR2 & TIM_CCMR2_CC3S) != 0x00U)
 80038a4:	687b      	ldr	r3, [r7, #4]
 80038a6:	681b      	ldr	r3, [r3, #0]
 80038a8:	69db      	ldr	r3, [r3, #28]
 80038aa:	f003 0303 	and.w	r3, r3, #3
 80038ae:	2b00      	cmp	r3, #0
 80038b0:	d003      	beq.n	80038ba <HAL_TIM_IRQHandler+0xf2>
      {
#if (USE_HAL_TIM_REGISTER_CALLBACKS == 1)
        htim->IC_CaptureCallback(htim);
#else
        HAL_TIM_IC_CaptureCallback(htim);
 80038b2:	6878      	ldr	r0, [r7, #4]
 80038b4:	f000 f8b1 	bl	8003a1a <HAL_TIM_IC_CaptureCallback>
 80038b8:	e005      	b.n	80038c6 <HAL_TIM_IRQHandler+0xfe>
      {
#if (USE_HAL_TIM_REGISTER_CALLBACKS == 1)
        htim->OC_DelayElapsedCallback(htim);
        htim->PWM_PulseFinishedCallback(htim);
#else
        HAL_TIM_OC_DelayElapsedCallback(htim);
 80038ba:	6878      	ldr	r0, [r7, #4]
 80038bc:	f000 f8a3 	bl	8003a06 <HAL_TIM_OC_DelayElapsedCallback>
        HAL_TIM_PWM_PulseFinishedCallback(htim);
 80038c0:	6878      	ldr	r0, [r7, #4]
 80038c2:	f000 f8b4 	bl	8003a2e <HAL_TIM_PWM_PulseFinishedCallback>
#endif /* USE_HAL_TIM_REGISTER_CALLBACKS */
      }
      htim->Channel = HAL_TIM_ACTIVE_CHANNEL_CLEARED;
 80038c6:	687b      	ldr	r3, [r7, #4]
 80038c8:	2200      	movs	r2, #0
 80038ca:	771a      	strb	r2, [r3, #28]
    }
  }
  /* Capture compare 4 event */
  if (__HAL_TIM_GET_FLAG(htim, TIM_FLAG_CC4) != RESET)
 80038cc:	687b      	ldr	r3, [r7, #4]
 80038ce:	681b      	ldr	r3, [r3, #0]
 80038d0:	691b      	ldr	r3, [r3, #16]
 80038d2:	f003 0310 	and.w	r3, r3, #16
 80038d6:	2b10      	cmp	r3, #16
 80038d8:	d122      	bne.n	8003920 <HAL_TIM_IRQHandler+0x158>
  {
    if (__HAL_TIM_GET_IT_SOURCE(htim, TIM_IT_CC4) != RESET)
 80038da:	687b      	ldr	r3, [r7, #4]
 80038dc:	681b      	ldr	r3, [r3, #0]
 80038de:	68db      	ldr	r3, [r3, #12]
 80038e0:	f003 0310 	and.w	r3, r3, #16
 80038e4:	2b10      	cmp	r3, #16
 80038e6:	d11b      	bne.n	8003920 <HAL_TIM_IRQHandler+0x158>
    {
      __HAL_TIM_CLEAR_IT(htim, TIM_IT_CC4);
 80038e8:	687b      	ldr	r3, [r7, #4]
 80038ea:	681b      	ldr	r3, [r3, #0]
 80038ec:	f06f 0210 	mvn.w	r2, #16
 80038f0:	611a      	str	r2, [r3, #16]
      htim->Channel = HAL_TIM_ACTIVE_CHANNEL_4;
 80038f2:	687b      	ldr	r3, [r7, #4]
 80038f4:	2208      	movs	r2, #8
 80038f6:	771a      	strb	r2, [r3, #28]
      /* Input capture event */
      if ((htim->Instance->CCMR2 & TIM_CCMR2_CC4S) != 0x00U)
 80038f8:	687b      	ldr	r3, [r7, #4]
 80038fa:	681b      	ldr	r3, [r3, #0]
 80038fc:	69db      	ldr	r3, [r3, #28]
 80038fe:	f403 7340 	and.w	r3, r3, #768	@ 0x300
 8003902:	2b00      	cmp	r3, #0
 8003904:	d003      	beq.n	800390e <HAL_TIM_IRQHandler+0x146>
      {
#if (USE_HAL_TIM_REGISTER_CALLBACKS == 1)
        htim->IC_CaptureCallback(htim);
#else
        HAL_TIM_IC_CaptureCallback(htim);
 8003906:	6878      	ldr	r0, [r7, #4]
 8003908:	f000 f887 	bl	8003a1a <HAL_TIM_IC_CaptureCallback>
 800390c:	e005      	b.n	800391a <HAL_TIM_IRQHandler+0x152>
      {
#if (USE_HAL_TIM_REGISTER_CALLBACKS == 1)
        htim->OC_DelayElapsedCallback(htim);
        htim->PWM_PulseFinishedCallback(htim);
#else
        HAL_TIM_OC_DelayElapsedCallback(htim);
 800390e:	6878      	ldr	r0, [r7, #4]
 8003910:	f000 f879 	bl	8003a06 <HAL_TIM_OC_DelayElapsedCallback>
        HAL_TIM_PWM_PulseFinishedCallback(htim);
 8003914:	6878      	ldr	r0, [r7, #4]
 8003916:	f000 f88a 	bl	8003a2e <HAL_TIM_PWM_PulseFinishedCallback>
#endif /* USE_HAL_TIM_REGISTER_CALLBACKS */
      }
      htim->Channel = HAL_TIM_ACTIVE_CHANNEL_CLEARED;
 800391a:	687b      	ldr	r3, [r7, #4]
 800391c:	2200      	movs	r2, #0
 800391e:	771a      	strb	r2, [r3, #28]
    }
  }
  /* TIM Update event */
  if (__HAL_TIM_GET_FLAG(htim, TIM_FLAG_UPDATE) != RESET)
 8003920:	687b      	ldr	r3, [r7, #4]
 8003922:	681b      	ldr	r3, [r3, #0]
 8003924:	691b      	ldr	r3, [r3, #16]
 8003926:	f003 0301 	and.w	r3, r3, #1
 800392a:	2b01      	cmp	r3, #1
 800392c:	d10e      	bne.n	800394c <HAL_TIM_IRQHandler+0x184>
  {
    if (__HAL_TIM_GET_IT_SOURCE(htim, TIM_IT_UPDATE) != RESET)
 800392e:	687b      	ldr	r3, [r7, #4]
 8003930:	681b      	ldr	r3, [r3, #0]
 8003932:	68db      	ldr	r3, [r3, #12]
 8003934:	f003 0301 	and.w	r3, r3, #1
 8003938:	2b01      	cmp	r3, #1
 800393a:	d107      	bne.n	800394c <HAL_TIM_IRQHandler+0x184>
    {
      __HAL_TIM_CLEAR_IT(htim, TIM_IT_UPDATE);
 800393c:	687b      	ldr	r3, [r7, #4]
 800393e:	681b      	ldr	r3, [r3, #0]
 8003940:	f06f 0201 	mvn.w	r2, #1
 8003944:	611a      	str	r2, [r3, #16]
#if (USE_HAL_TIM_REGISTER_CALLBACKS == 1)
      htim->PeriodElapsedCallback(htim);
#else
      HAL_TIM_PeriodElapsedCallback(htim);
 8003946:	6878      	ldr	r0, [r7, #4]
 8003948:	f7fd fc4a 	bl	80011e0 <HAL_TIM_PeriodElapsedCallback>
#endif /* USE_HAL_TIM_REGISTER_CALLBACKS */
    }
  }
  /* TIM Break input event */
  if (__HAL_TIM_GET_FLAG(htim, TIM_FLAG_BREAK) != RESET)
 800394c:	687b      	ldr	r3, [r7, #4]
 800394e:	681b      	ldr	r3, [r3, #0]
 8003950:	691b      	ldr	r3, [r3, #16]
 8003952:	f003 0380 	and.w	r3, r3, #128	@ 0x80
 8003956:	2b80      	cmp	r3, #128	@ 0x80
 8003958:	d10e      	bne.n	8003978 <HAL_TIM_IRQHandler+0x1b0>
  {
    if (__HAL_TIM_GET_IT_SOURCE(htim, TIM_IT_BREAK) != RESET)
 800395a:	687b      	ldr	r3, [r7, #4]
 800395c:	681b      	ldr	r3, [r3, #0]
 800395e:	68db      	ldr	r3, [r3, #12]
 8003960:	f003 0380 	and.w	r3, r3, #128	@ 0x80
 8003964:	2b80      	cmp	r3, #128	@ 0x80
 8003966:	d107      	bne.n	8003978 <HAL_TIM_IRQHandler+0x1b0>
    {
      __HAL_TIM_CLEAR_IT(htim, TIM_IT_BREAK);
 8003968:	687b      	ldr	r3, [r7, #4]
 800396a:	681b      	ldr	r3, [r3, #0]
 800396c:	f06f 0280 	mvn.w	r2, #128	@ 0x80
 8003970:	611a      	str	r2, [r3, #16]
#if (USE_HAL_TIM_REGISTER_CALLBACKS == 1)
      htim->BreakCallback(htim);
#else
      HAL_TIMEx_BreakCallback(htim);
 8003972:	6878      	ldr	r0, [r7, #4]
 8003974:	f000 f91a 	bl	8003bac <HAL_TIMEx_BreakCallback>
#endif /* USE_HAL_TIM_REGISTER_CALLBACKS */
    }
  }
  /* TIM Break2 input event */
  if (__HAL_TIM_GET_FLAG(htim, TIM_FLAG_BREAK2) != RESET)
 8003978:	687b      	ldr	r3, [r7, #4]
 800397a:	681b      	ldr	r3, [r3, #0]
 800397c:	691b      	ldr	r3, [r3, #16]
 800397e:	f403 7380 	and.w	r3, r3, #256	@ 0x100
 8003982:	f5b3 7f80 	cmp.w	r3, #256	@ 0x100
 8003986:	d10e      	bne.n	80039a6 <HAL_TIM_IRQHandler+0x1de>
  {
    if (__HAL_TIM_GET_IT_SOURCE(htim, TIM_IT_BREAK) != RESET)
 8003988:	687b      	ldr	r3, [r7, #4]
 800398a:	681b      	ldr	r3, [r3, #0]
 800398c:	68db      	ldr	r3, [r3, #12]
 800398e:	f003 0380 	and.w	r3, r3, #128	@ 0x80
 8003992:	2b80      	cmp	r3, #128	@ 0x80
 8003994:	d107      	bne.n	80039a6 <HAL_TIM_IRQHandler+0x1de>
    {
      __HAL_TIM_CLEAR_FLAG(htim, TIM_FLAG_BREAK2);
 8003996:	687b      	ldr	r3, [r7, #4]
 8003998:	681b      	ldr	r3, [r3, #0]
 800399a:	f46f 7280 	mvn.w	r2, #256	@ 0x100
 800399e:	611a      	str	r2, [r3, #16]
#if (USE_HAL_TIM_REGISTER_CALLBACKS == 1)
      htim->Break2Callback(htim);
#else
      HAL_TIMEx_Break2Callback(htim);
 80039a0:	6878      	ldr	r0, [r7, #4]
 80039a2:	f000 f90d 	bl	8003bc0 <HAL_TIMEx_Break2Callback>
#endif /* USE_HAL_TIM_REGISTER_CALLBACKS */
    }
  }
  /* TIM Trigger detection event */
  if (__HAL_TIM_GET_FLAG(htim, TIM_FLAG_TRIGGER) != RESET)
 80039a6:	687b      	ldr	r3, [r7, #4]
 80039a8:	681b      	ldr	r3, [r3, #0]
 80039aa:	691b      	ldr	r3, [r3, #16]
 80039ac:	f003 0340 	and.w	r3, r3, #64	@ 0x40
 80039b0:	2b40      	cmp	r3, #64	@ 0x40
 80039b2:	d10e      	bne.n	80039d2 <HAL_TIM_IRQHandler+0x20a>
  {
    if (__HAL_TIM_GET_IT_SOURCE(htim, TIM_IT_TRIGGER) != RESET)
 80039b4:	687b      	ldr	r3, [r7, #4]
 80039b6:	681b      	ldr	r3, [r3, #0]
 80039b8:	68db      	ldr	r3, [r3, #12]
 80039ba:	f003 0340 	and.w	r3, r3, #64	@ 0x40
 80039be:	2b40      	cmp	r3, #64	@ 0x40
 80039c0:	d107      	bne.n	80039d2 <HAL_TIM_IRQHandler+0x20a>
    {
      __HAL_TIM_CLEAR_IT(htim, TIM_IT_TRIGGER);
 80039c2:	687b      	ldr	r3, [r7, #4]
 80039c4:	681b      	ldr	r3, [r3, #0]
 80039c6:	f06f 0240 	mvn.w	r2, #64	@ 0x40
 80039ca:	611a      	str	r2, [r3, #16]
#if (USE_HAL_TIM_REGISTER_CALLBACKS == 1)
      htim->TriggerCallback(htim);
#else
      HAL_TIM_TriggerCallback(htim);
 80039cc:	6878      	ldr	r0, [r7, #4]
 80039ce:	f000 f838 	bl	8003a42 <HAL_TIM_TriggerCallback>
#endif /* USE_HAL_TIM_REGISTER_CALLBACKS */
    }
  }
  /* TIM commutation event */
  if (__HAL_TIM_GET_FLAG(htim, TIM_FLAG_COM) != RESET)
 80039d2:	687b      	ldr	r3, [r7, #4]
 80039d4:	681b      	ldr	r3, [r3, #0]
 80039d6:	691b      	ldr	r3, [r3, #16]
 80039d8:	f003 0320 	and.w	r3, r3, #32
 80039dc:	2b20      	cmp	r3, #32
 80039de:	d10e      	bne.n	80039fe <HAL_TIM_IRQHandler+0x236>
  {
    if (__HAL_TIM_GET_IT_SOURCE(htim, TIM_IT_COM) != RESET)
 80039e0:	687b      	ldr	r3, [r7, #4]
 80039e2:	681b      	ldr	r3, [r3, #0]
 80039e4:	68db      	ldr	r3, [r3, #12]
 80039e6:	f003 0320 	and.w	r3, r3, #32
 80039ea:	2b20      	cmp	r3, #32
 80039ec:	d107      	bne.n	80039fe <HAL_TIM_IRQHandler+0x236>
    {
      __HAL_TIM_CLEAR_IT(htim, TIM_FLAG_COM);
 80039ee:	687b      	ldr	r3, [r7, #4]
 80039f0:	681b      	ldr	r3, [r3, #0]
 80039f2:	f06f 0220 	mvn.w	r2, #32
 80039f6:	611a      	str	r2, [r3, #16]
#if (USE_HAL_TIM_REGISTER_CALLBACKS == 1)
      htim->CommutationCallback(htim);
#else
      HAL_TIMEx_CommutCallback(htim);
 80039f8:	6878      	ldr	r0, [r7, #4]
 80039fa:	f000 f8cd 	bl	8003b98 <HAL_TIMEx_CommutCallback>
#endif /* USE_HAL_TIM_REGISTER_CALLBACKS */
    }
  }
}
 80039fe:	bf00      	nop
 8003a00:	3708      	adds	r7, #8
 8003a02:	46bd      	mov	sp, r7
 8003a04:	bd80      	pop	{r7, pc}

08003a06 <HAL_TIM_OC_DelayElapsedCallback>:
  * @brief  Output Compare callback in non-blocking mode
  * @param  htim TIM OC handle
  * @retval None
  */
__weak void HAL_TIM_OC_DelayElapsedCallback(TIM_HandleTypeDef *htim)
{
 8003a06:	b480      	push	{r7}
 8003a08:	b083      	sub	sp, #12
 8003a0a:	af00      	add	r7, sp, #0
 8003a0c:	6078      	str	r0, [r7, #4]
  UNUSED(htim);

  /* NOTE : This function should not be modified, when the callback is needed,
            the HAL_TIM_OC_DelayElapsedCallback could be implemented in the user file
   */
}
 8003a0e:	bf00      	nop
 8003a10:	370c      	adds	r7, #12
 8003a12:	46bd      	mov	sp, r7
 8003a14:	f85d 7b04 	ldr.w	r7, [sp], #4
 8003a18:	4770      	bx	lr

08003a1a <HAL_TIM_IC_CaptureCallback>:
  * @brief  Input Capture callback in non-blocking mode
  * @param  htim TIM IC handle
  * @retval None
  */
__weak void HAL_TIM_IC_CaptureCallback(TIM_HandleTypeDef *htim)
{
 8003a1a:	b480      	push	{r7}
 8003a1c:	b083      	sub	sp, #12
 8003a1e:	af00      	add	r7, sp, #0
 8003a20:	6078      	str	r0, [r7, #4]
  UNUSED(htim);

  /* NOTE : This function should not be modified, when the callback is needed,
            the HAL_TIM_IC_CaptureCallback could be implemented in the user file
   */
}
 8003a22:	bf00      	nop
 8003a24:	370c      	adds	r7, #12
 8003a26:	46bd      	mov	sp, r7
 8003a28:	f85d 7b04 	ldr.w	r7, [sp], #4
 8003a2c:	4770      	bx	lr

08003a2e <HAL_TIM_PWM_PulseFinishedCallback>:
  * @brief  PWM Pulse finished callback in non-blocking mode
  * @param  htim TIM handle
  * @retval None
  */
__weak void HAL_TIM_PWM_PulseFinishedCallback(TIM_HandleTypeDef *htim)
{
 8003a2e:	b480      	push	{r7}
 8003a30:	b083      	sub	sp, #12
 8003a32:	af00      	add	r7, sp, #0
 8003a34:	6078      	str	r0, [r7, #4]
  UNUSED(htim);

  /* NOTE : This function should not be modified, when the callback is needed,
            the HAL_TIM_PWM_PulseFinishedCallback could be implemented in the user file
   */
}
 8003a36:	bf00      	nop
 8003a38:	370c      	adds	r7, #12
 8003a3a:	46bd      	mov	sp, r7
 8003a3c:	f85d 7b04 	ldr.w	r7, [sp], #4
 8003a40:	4770      	bx	lr

08003a42 <HAL_TIM_TriggerCallback>:
  * @brief  Hall Trigger detection callback in non-blocking mode
  * @param  htim TIM handle
  * @retval None
  */
__weak void HAL_TIM_TriggerCallback(TIM_HandleTypeDef *htim)
{
 8003a42:	b480      	push	{r7}
 8003a44:	b083      	sub	sp, #12
 8003a46:	af00      	add	r7, sp, #0
 8003a48:	6078      	str	r0, [r7, #4]
  UNUSED(htim);

  /* NOTE : This function should not be modified, when the callback is needed,
            the HAL_TIM_TriggerCallback could be implemented in the user file
   */
}
 8003a4a:	bf00      	nop
 8003a4c:	370c      	adds	r7, #12
 8003a4e:	46bd      	mov	sp, r7
 8003a50:	f85d 7b04 	ldr.w	r7, [sp], #4
 8003a54:	4770      	bx	lr
	...

08003a58 <TIM_Base_SetConfig>:
  * @param  TIMx TIM peripheral
  * @param  Structure TIM Base configuration structure
  * @retval None
  */
void TIM_Base_SetConfig(TIM_TypeDef *TIMx, const TIM_Base_InitTypeDef *Structure)
{
 8003a58:	b480      	push	{r7}
 8003a5a:	b085      	sub	sp, #20
 8003a5c:	af00      	add	r7, sp, #0
 8003a5e:	6078      	str	r0, [r7, #4]
 8003a60:	6039      	str	r1, [r7, #0]
  uint32_t tmpcr1;
  tmpcr1 = TIMx->CR1;
 8003a62:	687b      	ldr	r3, [r7, #4]
 8003a64:	681b      	ldr	r3, [r3, #0]
 8003a66:	60fb      	str	r3, [r7, #12]

  /* Set TIM Time Base Unit parameters ---------------------------------------*/
  if (IS_TIM_COUNTER_MODE_SELECT_INSTANCE(TIMx))
 8003a68:	687b      	ldr	r3, [r7, #4]
 8003a6a:	4a40      	ldr	r2, [pc, #256]	@ (8003b6c <TIM_Base_SetConfig+0x114>)
 8003a6c:	4293      	cmp	r3, r2
 8003a6e:	d013      	beq.n	8003a98 <TIM_Base_SetConfig+0x40>
 8003a70:	687b      	ldr	r3, [r7, #4]
 8003a72:	f1b3 4f80 	cmp.w	r3, #1073741824	@ 0x40000000
 8003a76:	d00f      	beq.n	8003a98 <TIM_Base_SetConfig+0x40>
 8003a78:	687b      	ldr	r3, [r7, #4]
 8003a7a:	4a3d      	ldr	r2, [pc, #244]	@ (8003b70 <TIM_Base_SetConfig+0x118>)
 8003a7c:	4293      	cmp	r3, r2
 8003a7e:	d00b      	beq.n	8003a98 <TIM_Base_SetConfig+0x40>
 8003a80:	687b      	ldr	r3, [r7, #4]
 8003a82:	4a3c      	ldr	r2, [pc, #240]	@ (8003b74 <TIM_Base_SetConfig+0x11c>)
 8003a84:	4293      	cmp	r3, r2
 8003a86:	d007      	beq.n	8003a98 <TIM_Base_SetConfig+0x40>
 8003a88:	687b      	ldr	r3, [r7, #4]
 8003a8a:	4a3b      	ldr	r2, [pc, #236]	@ (8003b78 <TIM_Base_SetConfig+0x120>)
 8003a8c:	4293      	cmp	r3, r2
 8003a8e:	d003      	beq.n	8003a98 <TIM_Base_SetConfig+0x40>
 8003a90:	687b      	ldr	r3, [r7, #4]
 8003a92:	4a3a      	ldr	r2, [pc, #232]	@ (8003b7c <TIM_Base_SetConfig+0x124>)
 8003a94:	4293      	cmp	r3, r2
 8003a96:	d108      	bne.n	8003aaa <TIM_Base_SetConfig+0x52>
  {
    /* Select the Counter Mode */
    tmpcr1 &= ~(TIM_CR1_DIR | TIM_CR1_CMS);
 8003a98:	68fb      	ldr	r3, [r7, #12]
 8003a9a:	f023 0370 	bic.w	r3, r3, #112	@ 0x70
 8003a9e:	60fb      	str	r3, [r7, #12]
    tmpcr1 |= Structure->CounterMode;
 8003aa0:	683b      	ldr	r3, [r7, #0]
 8003aa2:	685b      	ldr	r3, [r3, #4]
 8003aa4:	68fa      	ldr	r2, [r7, #12]
 8003aa6:	4313      	orrs	r3, r2
 8003aa8:	60fb      	str	r3, [r7, #12]
  }

  if (IS_TIM_CLOCK_DIVISION_INSTANCE(TIMx))
 8003aaa:	687b      	ldr	r3, [r7, #4]
 8003aac:	4a2f      	ldr	r2, [pc, #188]	@ (8003b6c <TIM_Base_SetConfig+0x114>)
 8003aae:	4293      	cmp	r3, r2
 8003ab0:	d02b      	beq.n	8003b0a <TIM_Base_SetConfig+0xb2>
 8003ab2:	687b      	ldr	r3, [r7, #4]
 8003ab4:	f1b3 4f80 	cmp.w	r3, #1073741824	@ 0x40000000
 8003ab8:	d027      	beq.n	8003b0a <TIM_Base_SetConfig+0xb2>
 8003aba:	687b      	ldr	r3, [r7, #4]
 8003abc:	4a2c      	ldr	r2, [pc, #176]	@ (8003b70 <TIM_Base_SetConfig+0x118>)
 8003abe:	4293      	cmp	r3, r2
 8003ac0:	d023      	beq.n	8003b0a <TIM_Base_SetConfig+0xb2>
 8003ac2:	687b      	ldr	r3, [r7, #4]
 8003ac4:	4a2b      	ldr	r2, [pc, #172]	@ (8003b74 <TIM_Base_SetConfig+0x11c>)
 8003ac6:	4293      	cmp	r3, r2
 8003ac8:	d01f      	beq.n	8003b0a <TIM_Base_SetConfig+0xb2>
 8003aca:	687b      	ldr	r3, [r7, #4]
 8003acc:	4a2a      	ldr	r2, [pc, #168]	@ (8003b78 <TIM_Base_SetConfig+0x120>)
 8003ace:	4293      	cmp	r3, r2
 8003ad0:	d01b      	beq.n	8003b0a <TIM_Base_SetConfig+0xb2>
 8003ad2:	687b      	ldr	r3, [r7, #4]
 8003ad4:	4a29      	ldr	r2, [pc, #164]	@ (8003b7c <TIM_Base_SetConfig+0x124>)
 8003ad6:	4293      	cmp	r3, r2
 8003ad8:	d017      	beq.n	8003b0a <TIM_Base_SetConfig+0xb2>
 8003ada:	687b      	ldr	r3, [r7, #4]
 8003adc:	4a28      	ldr	r2, [pc, #160]	@ (8003b80 <TIM_Base_SetConfig+0x128>)
 8003ade:	4293      	cmp	r3, r2
 8003ae0:	d013      	beq.n	8003b0a <TIM_Base_SetConfig+0xb2>
 8003ae2:	687b      	ldr	r3, [r7, #4]
 8003ae4:	4a27      	ldr	r2, [pc, #156]	@ (8003b84 <TIM_Base_SetConfig+0x12c>)
 8003ae6:	4293      	cmp	r3, r2
 8003ae8:	d00f      	beq.n	8003b0a <TIM_Base_SetConfig+0xb2>
 8003aea:	687b      	ldr	r3, [r7, #4]
 8003aec:	4a26      	ldr	r2, [pc, #152]	@ (8003b88 <TIM_Base_SetConfig+0x130>)
 8003aee:	4293      	cmp	r3, r2
 8003af0:	d00b      	beq.n	8003b0a <TIM_Base_SetConfig+0xb2>
 8003af2:	687b      	ldr	r3, [r7, #4]
 8003af4:	4a25      	ldr	r2, [pc, #148]	@ (8003b8c <TIM_Base_SetConfig+0x134>)
 8003af6:	4293      	cmp	r3, r2
 8003af8:	d007      	beq.n	8003b0a <TIM_Base_SetConfig+0xb2>
 8003afa:	687b      	ldr	r3, [r7, #4]
 8003afc:	4a24      	ldr	r2, [pc, #144]	@ (8003b90 <TIM_Base_SetConfig+0x138>)
 8003afe:	4293      	cmp	r3, r2
 8003b00:	d003      	beq.n	8003b0a <TIM_Base_SetConfig+0xb2>
 8003b02:	687b      	ldr	r3, [r7, #4]
 8003b04:	4a23      	ldr	r2, [pc, #140]	@ (8003b94 <TIM_Base_SetConfig+0x13c>)
 8003b06:	4293      	cmp	r3, r2
 8003b08:	d108      	bne.n	8003b1c <TIM_Base_SetConfig+0xc4>
  {
    /* Set the clock division */
    tmpcr1 &= ~TIM_CR1_CKD;
 8003b0a:	68fb      	ldr	r3, [r7, #12]
 8003b0c:	f423 7340 	bic.w	r3, r3, #768	@ 0x300
 8003b10:	60fb      	str	r3, [r7, #12]
    tmpcr1 |= (uint32_t)Structure->ClockDivision;
 8003b12:	683b      	ldr	r3, [r7, #0]
 8003b14:	68db      	ldr	r3, [r3, #12]
 8003b16:	68fa      	ldr	r2, [r7, #12]
 8003b18:	4313      	orrs	r3, r2
 8003b1a:	60fb      	str	r3, [r7, #12]
  }

  /* Set the auto-reload preload */
  MODIFY_REG(tmpcr1, TIM_CR1_ARPE, Structure->AutoReloadPreload);
 8003b1c:	68fb      	ldr	r3, [r7, #12]
 8003b1e:	f023 0280 	bic.w	r2, r3, #128	@ 0x80
 8003b22:	683b      	ldr	r3, [r7, #0]
 8003b24:	695b      	ldr	r3, [r3, #20]
 8003b26:	4313      	orrs	r3, r2
 8003b28:	60fb      	str	r3, [r7, #12]

  TIMx->CR1 = tmpcr1;
 8003b2a:	687b      	ldr	r3, [r7, #4]
 8003b2c:	68fa      	ldr	r2, [r7, #12]
 8003b2e:	601a      	str	r2, [r3, #0]

  /* Set the Autoreload value */
  TIMx->ARR = (uint32_t)Structure->Period ;
 8003b30:	683b      	ldr	r3, [r7, #0]
 8003b32:	689a      	ldr	r2, [r3, #8]
 8003b34:	687b      	ldr	r3, [r7, #4]
 8003b36:	62da      	str	r2, [r3, #44]	@ 0x2c

  /* Set the Prescaler value */
  TIMx->PSC = Structure->Prescaler;
 8003b38:	683b      	ldr	r3, [r7, #0]
 8003b3a:	681a      	ldr	r2, [r3, #0]
 8003b3c:	687b      	ldr	r3, [r7, #4]
 8003b3e:	629a      	str	r2, [r3, #40]	@ 0x28

  if (IS_TIM_REPETITION_COUNTER_INSTANCE(TIMx))
 8003b40:	687b      	ldr	r3, [r7, #4]
 8003b42:	4a0a      	ldr	r2, [pc, #40]	@ (8003b6c <TIM_Base_SetConfig+0x114>)
 8003b44:	4293      	cmp	r3, r2
 8003b46:	d003      	beq.n	8003b50 <TIM_Base_SetConfig+0xf8>
 8003b48:	687b      	ldr	r3, [r7, #4]
 8003b4a:	4a0c      	ldr	r2, [pc, #48]	@ (8003b7c <TIM_Base_SetConfig+0x124>)
 8003b4c:	4293      	cmp	r3, r2
 8003b4e:	d103      	bne.n	8003b58 <TIM_Base_SetConfig+0x100>
  {
    /* Set the Repetition Counter value */
    TIMx->RCR = Structure->RepetitionCounter;
 8003b50:	683b      	ldr	r3, [r7, #0]
 8003b52:	691a      	ldr	r2, [r3, #16]
 8003b54:	687b      	ldr	r3, [r7, #4]
 8003b56:	631a      	str	r2, [r3, #48]	@ 0x30
  }

  /* Generate an update event to reload the Prescaler
     and the repetition counter (only for advanced timer) value immediately */
  TIMx->EGR = TIM_EGR_UG;
 8003b58:	687b      	ldr	r3, [r7, #4]
 8003b5a:	2201      	movs	r2, #1
 8003b5c:	615a      	str	r2, [r3, #20]
}
 8003b5e:	bf00      	nop
 8003b60:	3714      	adds	r7, #20
 8003b62:	46bd      	mov	sp, r7
 8003b64:	f85d 7b04 	ldr.w	r7, [sp], #4
 8003b68:	4770      	bx	lr
 8003b6a:	bf00      	nop
 8003b6c:	40010000 	.word	0x40010000
 8003b70:	40000400 	.word	0x40000400
 8003b74:	40000800 	.word	0x40000800
 8003b78:	40000c00 	.word	0x40000c00
 8003b7c:	40010400 	.word	0x40010400
 8003b80:	40014000 	.word	0x40014000
 8003b84:	40014400 	.word	0x40014400
 8003b88:	40014800 	.word	0x40014800
 8003b8c:	40001800 	.word	0x40001800
 8003b90:	40001c00 	.word	0x40001c00
 8003b94:	40002000 	.word	0x40002000

08003b98 <HAL_TIMEx_CommutCallback>:
  * @brief  Hall commutation changed callback in non-blocking mode
  * @param  htim TIM handle
  * @retval None
  */
__weak void HAL_TIMEx_CommutCallback(TIM_HandleTypeDef *htim)
{
 8003b98:	b480      	push	{r7}
 8003b9a:	b083      	sub	sp, #12
 8003b9c:	af00      	add	r7, sp, #0
 8003b9e:	6078      	str	r0, [r7, #4]
  UNUSED(htim);

  /* NOTE : This function should not be modified, when the callback is needed,
            the HAL_TIMEx_CommutCallback could be implemented in the user file
   */
}
 8003ba0:	bf00      	nop
 8003ba2:	370c      	adds	r7, #12
 8003ba4:	46bd      	mov	sp, r7
 8003ba6:	f85d 7b04 	ldr.w	r7, [sp], #4
 8003baa:	4770      	bx	lr

08003bac <HAL_TIMEx_BreakCallback>:
  * @brief  Hall Break detection callback in non-blocking mode
  * @param  htim TIM handle
  * @retval None
  */
__weak void HAL_TIMEx_BreakCallback(TIM_HandleTypeDef *htim)
{
 8003bac:	b480      	push	{r7}
 8003bae:	b083      	sub	sp, #12
 8003bb0:	af00      	add	r7, sp, #0
 8003bb2:	6078      	str	r0, [r7, #4]
  UNUSED(htim);

  /* NOTE : This function should not be modified, when the callback is needed,
            the HAL_TIMEx_BreakCallback could be implemented in the user file
   */
}
 8003bb4:	bf00      	nop
 8003bb6:	370c      	adds	r7, #12
 8003bb8:	46bd      	mov	sp, r7
 8003bba:	f85d 7b04 	ldr.w	r7, [sp], #4
 8003bbe:	4770      	bx	lr

08003bc0 <HAL_TIMEx_Break2Callback>:
  * @brief  Hall Break2 detection callback in non blocking mode
  * @param  htim: TIM handle
  * @retval None
  */
__weak void HAL_TIMEx_Break2Callback(TIM_HandleTypeDef *htim)
{
 8003bc0:	b480      	push	{r7}
 8003bc2:	b083      	sub	sp, #12
 8003bc4:	af00      	add	r7, sp, #0
 8003bc6:	6078      	str	r0, [r7, #4]
  UNUSED(htim);

  /* NOTE : This function Should not be modified, when the callback is needed,
            the HAL_TIMEx_Break2Callback could be implemented in the user file
   */
}
 8003bc8:	bf00      	nop
 8003bca:	370c      	adds	r7, #12
 8003bcc:	46bd      	mov	sp, r7
 8003bce:	f85d 7b04 	ldr.w	r7, [sp], #4
 8003bd2:	4770      	bx	lr

08003bd4 <HAL_UART_Init>:
  *        parameters in the UART_InitTypeDef and initialize the associated handle.
  * @param huart UART handle.
  * @retval HAL status
  */
HAL_StatusTypeDef HAL_UART_Init(UART_HandleTypeDef *huart)
{
 8003bd4:	b580      	push	{r7, lr}
 8003bd6:	b082      	sub	sp, #8
 8003bd8:	af00      	add	r7, sp, #0
 8003bda:	6078      	str	r0, [r7, #4]
  /* Check the UART handle allocation */
  if (huart == NULL)
 8003bdc:	687b      	ldr	r3, [r7, #4]
 8003bde:	2b00      	cmp	r3, #0
 8003be0:	d101      	bne.n	8003be6 <HAL_UART_Init+0x12>
  {
    return HAL_ERROR;
 8003be2:	2301      	movs	r3, #1
 8003be4:	e040      	b.n	8003c68 <HAL_UART_Init+0x94>
  {
    /* Check the parameters */
    assert_param(IS_UART_INSTANCE(huart->Instance));
  }

  if (huart->gState == HAL_UART_STATE_RESET)
 8003be6:	687b      	ldr	r3, [r7, #4]
 8003be8:	6fdb      	ldr	r3, [r3, #124]	@ 0x7c
 8003bea:	2b00      	cmp	r3, #0
 8003bec:	d106      	bne.n	8003bfc <HAL_UART_Init+0x28>
  {
    /* Allocate lock resource and initialize it */
    huart->Lock = HAL_UNLOCKED;
 8003bee:	687b      	ldr	r3, [r7, #4]
 8003bf0:	2200      	movs	r2, #0
 8003bf2:	f883 2078 	strb.w	r2, [r3, #120]	@ 0x78

    /* Init the low level hardware */
    huart->MspInitCallback(huart);
#else
    /* Init the low level hardware : GPIO, CLOCK */
    HAL_UART_MspInit(huart);
 8003bf6:	6878      	ldr	r0, [r7, #4]
 8003bf8:	f7fd fbac 	bl	8001354 <HAL_UART_MspInit>
#endif /* (USE_HAL_UART_REGISTER_CALLBACKS) */
  }

  huart->gState = HAL_UART_STATE_BUSY;
 8003bfc:	687b      	ldr	r3, [r7, #4]
 8003bfe:	2224      	movs	r2, #36	@ 0x24
 8003c00:	67da      	str	r2, [r3, #124]	@ 0x7c

  __HAL_UART_DISABLE(huart);
 8003c02:	687b      	ldr	r3, [r7, #4]
 8003c04:	681b      	ldr	r3, [r3, #0]
 8003c06:	681a      	ldr	r2, [r3, #0]
 8003c08:	687b      	ldr	r3, [r7, #4]
 8003c0a:	681b      	ldr	r3, [r3, #0]
 8003c0c:	f022 0201 	bic.w	r2, r2, #1
 8003c10:	601a      	str	r2, [r3, #0]

  /* Set the UART Communication parameters */
  if (UART_SetConfig(huart) == HAL_ERROR)
 8003c12:	6878      	ldr	r0, [r7, #4]
 8003c14:	f000 fba2 	bl	800435c <UART_SetConfig>
 8003c18:	4603      	mov	r3, r0
 8003c1a:	2b01      	cmp	r3, #1
 8003c1c:	d101      	bne.n	8003c22 <HAL_UART_Init+0x4e>
  {
    return HAL_ERROR;
 8003c1e:	2301      	movs	r3, #1
 8003c20:	e022      	b.n	8003c68 <HAL_UART_Init+0x94>
  }

  if (huart->AdvancedInit.AdvFeatureInit != UART_ADVFEATURE_NO_INIT)
 8003c22:	687b      	ldr	r3, [r7, #4]
 8003c24:	6a5b      	ldr	r3, [r3, #36]	@ 0x24
 8003c26:	2b00      	cmp	r3, #0
 8003c28:	d002      	beq.n	8003c30 <HAL_UART_Init+0x5c>
  {
    UART_AdvFeatureConfig(huart);
 8003c2a:	6878      	ldr	r0, [r7, #4]
 8003c2c:	f000 fdfa 	bl	8004824 <UART_AdvFeatureConfig>
  }

  /* In asynchronous mode, the following bits must be kept cleared:
  - LINEN and CLKEN bits in the USART_CR2 register,
  - SCEN, HDSEL and IREN  bits in the USART_CR3 register.*/
  CLEAR_BIT(huart->Instance->CR2, (USART_CR2_LINEN | USART_CR2_CLKEN));
 8003c30:	687b      	ldr	r3, [r7, #4]
 8003c32:	681b      	ldr	r3, [r3, #0]
 8003c34:	685a      	ldr	r2, [r3, #4]
 8003c36:	687b      	ldr	r3, [r7, #4]
 8003c38:	681b      	ldr	r3, [r3, #0]
 8003c3a:	f422 4290 	bic.w	r2, r2, #18432	@ 0x4800
 8003c3e:	605a      	str	r2, [r3, #4]
  CLEAR_BIT(huart->Instance->CR3, (USART_CR3_SCEN | USART_CR3_HDSEL | USART_CR3_IREN));
 8003c40:	687b      	ldr	r3, [r7, #4]
 8003c42:	681b      	ldr	r3, [r3, #0]
 8003c44:	689a      	ldr	r2, [r3, #8]
 8003c46:	687b      	ldr	r3, [r7, #4]
 8003c48:	681b      	ldr	r3, [r3, #0]
 8003c4a:	f022 022a 	bic.w	r2, r2, #42	@ 0x2a
 8003c4e:	609a      	str	r2, [r3, #8]

  __HAL_UART_ENABLE(huart);
 8003c50:	687b      	ldr	r3, [r7, #4]
 8003c52:	681b      	ldr	r3, [r3, #0]
 8003c54:	681a      	ldr	r2, [r3, #0]
 8003c56:	687b      	ldr	r3, [r7, #4]
 8003c58:	681b      	ldr	r3, [r3, #0]
 8003c5a:	f042 0201 	orr.w	r2, r2, #1
 8003c5e:	601a      	str	r2, [r3, #0]

  /* TEACK and/or REACK to check before moving huart->gState and huart->RxState to Ready */
  return (UART_CheckIdleState(huart));
 8003c60:	6878      	ldr	r0, [r7, #4]
 8003c62:	f000 fe81 	bl	8004968 <UART_CheckIdleState>
 8003c66:	4603      	mov	r3, r0
}
 8003c68:	4618      	mov	r0, r3
 8003c6a:	3708      	adds	r7, #8
 8003c6c:	46bd      	mov	sp, r7
 8003c6e:	bd80      	pop	{r7, pc}

08003c70 <HAL_UART_Transmit>:
  * @param Size    Amount of data elements (u8 or u16) to be sent.
  * @param Timeout Timeout duration.
  * @retval HAL status
  */
HAL_StatusTypeDef HAL_UART_Transmit(UART_HandleTypeDef *huart, const uint8_t *pData, uint16_t Size, uint32_t Timeout)
{
 8003c70:	b580      	push	{r7, lr}
 8003c72:	b08a      	sub	sp, #40	@ 0x28
 8003c74:	af02      	add	r7, sp, #8
 8003c76:	60f8      	str	r0, [r7, #12]
 8003c78:	60b9      	str	r1, [r7, #8]
 8003c7a:	603b      	str	r3, [r7, #0]
 8003c7c:	4613      	mov	r3, r2
 8003c7e:	80fb      	strh	r3, [r7, #6]
  const uint8_t  *pdata8bits;
  const uint16_t *pdata16bits;
  uint32_t tickstart;

  /* Check that a Tx process is not already ongoing */
  if (huart->gState == HAL_UART_STATE_READY)
 8003c80:	68fb      	ldr	r3, [r7, #12]
 8003c82:	6fdb      	ldr	r3, [r3, #124]	@ 0x7c
 8003c84:	2b20      	cmp	r3, #32
 8003c86:	d171      	bne.n	8003d6c <HAL_UART_Transmit+0xfc>
  {
    if ((pData == NULL) || (Size == 0U))
 8003c88:	68bb      	ldr	r3, [r7, #8]
 8003c8a:	2b00      	cmp	r3, #0
 8003c8c:	d002      	beq.n	8003c94 <HAL_UART_Transmit+0x24>
 8003c8e:	88fb      	ldrh	r3, [r7, #6]
 8003c90:	2b00      	cmp	r3, #0
 8003c92:	d101      	bne.n	8003c98 <HAL_UART_Transmit+0x28>
    {
      return  HAL_ERROR;
 8003c94:	2301      	movs	r3, #1
 8003c96:	e06a      	b.n	8003d6e <HAL_UART_Transmit+0xfe>
    }

    huart->ErrorCode = HAL_UART_ERROR_NONE;
 8003c98:	68fb      	ldr	r3, [r7, #12]
 8003c9a:	2200      	movs	r2, #0
 8003c9c:	f8c3 2084 	str.w	r2, [r3, #132]	@ 0x84
    huart->gState = HAL_UART_STATE_BUSY_TX;
 8003ca0:	68fb      	ldr	r3, [r7, #12]
 8003ca2:	2221      	movs	r2, #33	@ 0x21
 8003ca4:	67da      	str	r2, [r3, #124]	@ 0x7c

    /* Init tickstart for timeout management */
    tickstart = HAL_GetTick();
 8003ca6:	f7fd fce5 	bl	8001674 <HAL_GetTick>
 8003caa:	6178      	str	r0, [r7, #20]

    huart->TxXferSize  = Size;
 8003cac:	68fb      	ldr	r3, [r7, #12]
 8003cae:	88fa      	ldrh	r2, [r7, #6]
 8003cb0:	f8a3 2050 	strh.w	r2, [r3, #80]	@ 0x50
    huart->TxXferCount = Size;
 8003cb4:	68fb      	ldr	r3, [r7, #12]
 8003cb6:	88fa      	ldrh	r2, [r7, #6]
 8003cb8:	f8a3 2052 	strh.w	r2, [r3, #82]	@ 0x52

    /* In case of 9bits/No Parity transfer, pData needs to be handled as a uint16_t pointer */
    if ((huart->Init.WordLength == UART_WORDLENGTH_9B) && (huart->Init.Parity == UART_PARITY_NONE))
 8003cbc:	68fb      	ldr	r3, [r7, #12]
 8003cbe:	689b      	ldr	r3, [r3, #8]
 8003cc0:	f5b3 5f80 	cmp.w	r3, #4096	@ 0x1000
 8003cc4:	d108      	bne.n	8003cd8 <HAL_UART_Transmit+0x68>
 8003cc6:	68fb      	ldr	r3, [r7, #12]
 8003cc8:	691b      	ldr	r3, [r3, #16]
 8003cca:	2b00      	cmp	r3, #0
 8003ccc:	d104      	bne.n	8003cd8 <HAL_UART_Transmit+0x68>
    {
      pdata8bits  = NULL;
 8003cce:	2300      	movs	r3, #0
 8003cd0:	61fb      	str	r3, [r7, #28]
      pdata16bits = (const uint16_t *) pData;
 8003cd2:	68bb      	ldr	r3, [r7, #8]
 8003cd4:	61bb      	str	r3, [r7, #24]
 8003cd6:	e003      	b.n	8003ce0 <HAL_UART_Transmit+0x70>
    }
    else
    {
      pdata8bits  = pData;
 8003cd8:	68bb      	ldr	r3, [r7, #8]
 8003cda:	61fb      	str	r3, [r7, #28]
      pdata16bits = NULL;
 8003cdc:	2300      	movs	r3, #0
 8003cde:	61bb      	str	r3, [r7, #24]
    }

    while (huart->TxXferCount > 0U)
 8003ce0:	e02c      	b.n	8003d3c <HAL_UART_Transmit+0xcc>
    {
      if (UART_WaitOnFlagUntilTimeout(huart, UART_FLAG_TXE, RESET, tickstart, Timeout) != HAL_OK)
 8003ce2:	683b      	ldr	r3, [r7, #0]
 8003ce4:	9300      	str	r3, [sp, #0]
 8003ce6:	697b      	ldr	r3, [r7, #20]
 8003ce8:	2200      	movs	r2, #0
 8003cea:	2180      	movs	r1, #128	@ 0x80
 8003cec:	68f8      	ldr	r0, [r7, #12]
 8003cee:	f000 fe72 	bl	80049d6 <UART_WaitOnFlagUntilTimeout>
 8003cf2:	4603      	mov	r3, r0
 8003cf4:	2b00      	cmp	r3, #0
 8003cf6:	d001      	beq.n	8003cfc <HAL_UART_Transmit+0x8c>
      {
        return HAL_TIMEOUT;
 8003cf8:	2303      	movs	r3, #3
 8003cfa:	e038      	b.n	8003d6e <HAL_UART_Transmit+0xfe>
      }
      if (pdata8bits == NULL)
 8003cfc:	69fb      	ldr	r3, [r7, #28]
 8003cfe:	2b00      	cmp	r3, #0
 8003d00:	d10b      	bne.n	8003d1a <HAL_UART_Transmit+0xaa>
      {
        huart->Instance->TDR = (uint16_t)(*pdata16bits & 0x01FFU);
 8003d02:	69bb      	ldr	r3, [r7, #24]
 8003d04:	881b      	ldrh	r3, [r3, #0]
 8003d06:	461a      	mov	r2, r3
 8003d08:	68fb      	ldr	r3, [r7, #12]
 8003d0a:	681b      	ldr	r3, [r3, #0]
 8003d0c:	f3c2 0208 	ubfx	r2, r2, #0, #9
 8003d10:	629a      	str	r2, [r3, #40]	@ 0x28
        pdata16bits++;
 8003d12:	69bb      	ldr	r3, [r7, #24]
 8003d14:	3302      	adds	r3, #2
 8003d16:	61bb      	str	r3, [r7, #24]
 8003d18:	e007      	b.n	8003d2a <HAL_UART_Transmit+0xba>
      }
      else
      {
        huart->Instance->TDR = (uint8_t)(*pdata8bits & 0xFFU);
 8003d1a:	69fb      	ldr	r3, [r7, #28]
 8003d1c:	781a      	ldrb	r2, [r3, #0]
 8003d1e:	68fb      	ldr	r3, [r7, #12]
 8003d20:	681b      	ldr	r3, [r3, #0]
 8003d22:	629a      	str	r2, [r3, #40]	@ 0x28
        pdata8bits++;
 8003d24:	69fb      	ldr	r3, [r7, #28]
 8003d26:	3301      	adds	r3, #1
 8003d28:	61fb      	str	r3, [r7, #28]
      }
      huart->TxXferCount--;
 8003d2a:	68fb      	ldr	r3, [r7, #12]
 8003d2c:	f8b3 3052 	ldrh.w	r3, [r3, #82]	@ 0x52
 8003d30:	b29b      	uxth	r3, r3
 8003d32:	3b01      	subs	r3, #1
 8003d34:	b29a      	uxth	r2, r3
 8003d36:	68fb      	ldr	r3, [r7, #12]
 8003d38:	f8a3 2052 	strh.w	r2, [r3, #82]	@ 0x52
    while (huart->TxXferCount > 0U)
 8003d3c:	68fb      	ldr	r3, [r7, #12]
 8003d3e:	f8b3 3052 	ldrh.w	r3, [r3, #82]	@ 0x52
 8003d42:	b29b      	uxth	r3, r3
 8003d44:	2b00      	cmp	r3, #0
 8003d46:	d1cc      	bne.n	8003ce2 <HAL_UART_Transmit+0x72>
    }

    if (UART_WaitOnFlagUntilTimeout(huart, UART_FLAG_TC, RESET, tickstart, Timeout) != HAL_OK)
 8003d48:	683b      	ldr	r3, [r7, #0]
 8003d4a:	9300      	str	r3, [sp, #0]
 8003d4c:	697b      	ldr	r3, [r7, #20]
 8003d4e:	2200      	movs	r2, #0
 8003d50:	2140      	movs	r1, #64	@ 0x40
 8003d52:	68f8      	ldr	r0, [r7, #12]
 8003d54:	f000 fe3f 	bl	80049d6 <UART_WaitOnFlagUntilTimeout>
 8003d58:	4603      	mov	r3, r0
 8003d5a:	2b00      	cmp	r3, #0
 8003d5c:	d001      	beq.n	8003d62 <HAL_UART_Transmit+0xf2>
    {
      return HAL_TIMEOUT;
 8003d5e:	2303      	movs	r3, #3
 8003d60:	e005      	b.n	8003d6e <HAL_UART_Transmit+0xfe>
    }

    /* At end of Tx process, restore huart->gState to Ready */
    huart->gState = HAL_UART_STATE_READY;
 8003d62:	68fb      	ldr	r3, [r7, #12]
 8003d64:	2220      	movs	r2, #32
 8003d66:	67da      	str	r2, [r3, #124]	@ 0x7c

    return HAL_OK;
 8003d68:	2300      	movs	r3, #0
 8003d6a:	e000      	b.n	8003d6e <HAL_UART_Transmit+0xfe>
  }
  else
  {
    return HAL_BUSY;
 8003d6c:	2302      	movs	r3, #2
  }
}
 8003d6e:	4618      	mov	r0, r3
 8003d70:	3720      	adds	r7, #32
 8003d72:	46bd      	mov	sp, r7
 8003d74:	bd80      	pop	{r7, pc}
	...

08003d78 <HAL_UART_IRQHandler>:
  * @brief Handle UART interrupt request.
  * @param huart UART handle.
  * @retval None
  */
void HAL_UART_IRQHandler(UART_HandleTypeDef *huart)
{
 8003d78:	b580      	push	{r7, lr}
 8003d7a:	b0ba      	sub	sp, #232	@ 0xe8
 8003d7c:	af00      	add	r7, sp, #0
 8003d7e:	6078      	str	r0, [r7, #4]
  uint32_t isrflags   = READ_REG(huart->Instance->ISR);
 8003d80:	687b      	ldr	r3, [r7, #4]
 8003d82:	681b      	ldr	r3, [r3, #0]
 8003d84:	69db      	ldr	r3, [r3, #28]
 8003d86:	f8c7 30e4 	str.w	r3, [r7, #228]	@ 0xe4
  uint32_t cr1its     = READ_REG(huart->Instance->CR1);
 8003d8a:	687b      	ldr	r3, [r7, #4]
 8003d8c:	681b      	ldr	r3, [r3, #0]
 8003d8e:	681b      	ldr	r3, [r3, #0]
 8003d90:	f8c7 30e0 	str.w	r3, [r7, #224]	@ 0xe0
  uint32_t cr3its     = READ_REG(huart->Instance->CR3);
 8003d94:	687b      	ldr	r3, [r7, #4]
 8003d96:	681b      	ldr	r3, [r3, #0]
 8003d98:	689b      	ldr	r3, [r3, #8]
 8003d9a:	f8c7 30dc 	str.w	r3, [r7, #220]	@ 0xdc

  uint32_t errorflags;
  uint32_t errorcode;

  /* If no error occurs */
  errorflags = (isrflags & (uint32_t)(USART_ISR_PE | USART_ISR_FE | USART_ISR_ORE | USART_ISR_NE | USART_ISR_RTOF));
 8003d9e:	f8d7 20e4 	ldr.w	r2, [r7, #228]	@ 0xe4
 8003da2:	f640 030f 	movw	r3, #2063	@ 0x80f
 8003da6:	4013      	ands	r3, r2
 8003da8:	f8c7 30d8 	str.w	r3, [r7, #216]	@ 0xd8
  if (errorflags == 0U)
 8003dac:	f8d7 30d8 	ldr.w	r3, [r7, #216]	@ 0xd8
 8003db0:	2b00      	cmp	r3, #0
 8003db2:	d115      	bne.n	8003de0 <HAL_UART_IRQHandler+0x68>
  {
    /* UART in mode Receiver ---------------------------------------------------*/
    if (((isrflags & USART_ISR_RXNE) != 0U)
 8003db4:	f8d7 30e4 	ldr.w	r3, [r7, #228]	@ 0xe4
 8003db8:	f003 0320 	and.w	r3, r3, #32
 8003dbc:	2b00      	cmp	r3, #0
 8003dbe:	d00f      	beq.n	8003de0 <HAL_UART_IRQHandler+0x68>
        && ((cr1its & USART_CR1_RXNEIE) != 0U))
 8003dc0:	f8d7 30e0 	ldr.w	r3, [r7, #224]	@ 0xe0
 8003dc4:	f003 0320 	and.w	r3, r3, #32
 8003dc8:	2b00      	cmp	r3, #0
 8003dca:	d009      	beq.n	8003de0 <HAL_UART_IRQHandler+0x68>
    {
      if (huart->RxISR != NULL)
 8003dcc:	687b      	ldr	r3, [r7, #4]
 8003dce:	6e9b      	ldr	r3, [r3, #104]	@ 0x68
 8003dd0:	2b00      	cmp	r3, #0
 8003dd2:	f000 8297 	beq.w	8004304 <HAL_UART_IRQHandler+0x58c>
      {
        huart->RxISR(huart);
 8003dd6:	687b      	ldr	r3, [r7, #4]
 8003dd8:	6e9b      	ldr	r3, [r3, #104]	@ 0x68
 8003dda:	6878      	ldr	r0, [r7, #4]
 8003ddc:	4798      	blx	r3
      }
      return;
 8003dde:	e291      	b.n	8004304 <HAL_UART_IRQHandler+0x58c>
    }
  }

  /* If some errors occur */
  if ((errorflags != 0U)
 8003de0:	f8d7 30d8 	ldr.w	r3, [r7, #216]	@ 0xd8
 8003de4:	2b00      	cmp	r3, #0
 8003de6:	f000 8117 	beq.w	8004018 <HAL_UART_IRQHandler+0x2a0>
      && (((cr3its & USART_CR3_EIE) != 0U)
 8003dea:	f8d7 30dc 	ldr.w	r3, [r7, #220]	@ 0xdc
 8003dee:	f003 0301 	and.w	r3, r3, #1
 8003df2:	2b00      	cmp	r3, #0
 8003df4:	d106      	bne.n	8003e04 <HAL_UART_IRQHandler+0x8c>
          || ((cr1its & (USART_CR1_RXNEIE | USART_CR1_PEIE | USART_CR1_RTOIE)) != 0U)))
 8003df6:	f8d7 20e0 	ldr.w	r2, [r7, #224]	@ 0xe0
 8003dfa:	4b85      	ldr	r3, [pc, #532]	@ (8004010 <HAL_UART_IRQHandler+0x298>)
 8003dfc:	4013      	ands	r3, r2
 8003dfe:	2b00      	cmp	r3, #0
 8003e00:	f000 810a 	beq.w	8004018 <HAL_UART_IRQHandler+0x2a0>
  {
    /* UART parity error interrupt occurred -------------------------------------*/
    if (((isrflags & USART_ISR_PE) != 0U) && ((cr1its & USART_CR1_PEIE) != 0U))
 8003e04:	f8d7 30e4 	ldr.w	r3, [r7, #228]	@ 0xe4
 8003e08:	f003 0301 	and.w	r3, r3, #1
 8003e0c:	2b00      	cmp	r3, #0
 8003e0e:	d011      	beq.n	8003e34 <HAL_UART_IRQHandler+0xbc>
 8003e10:	f8d7 30e0 	ldr.w	r3, [r7, #224]	@ 0xe0
 8003e14:	f403 7380 	and.w	r3, r3, #256	@ 0x100
 8003e18:	2b00      	cmp	r3, #0
 8003e1a:	d00b      	beq.n	8003e34 <HAL_UART_IRQHandler+0xbc>
    {
      __HAL_UART_CLEAR_FLAG(huart, UART_CLEAR_PEF);
 8003e1c:	687b      	ldr	r3, [r7, #4]
 8003e1e:	681b      	ldr	r3, [r3, #0]
 8003e20:	2201      	movs	r2, #1
 8003e22:	621a      	str	r2, [r3, #32]

      huart->ErrorCode |= HAL_UART_ERROR_PE;
 8003e24:	687b      	ldr	r3, [r7, #4]
 8003e26:	f8d3 3084 	ldr.w	r3, [r3, #132]	@ 0x84
 8003e2a:	f043 0201 	orr.w	r2, r3, #1
 8003e2e:	687b      	ldr	r3, [r7, #4]
 8003e30:	f8c3 2084 	str.w	r2, [r3, #132]	@ 0x84
    }

    /* UART frame error interrupt occurred --------------------------------------*/
    if (((isrflags & USART_ISR_FE) != 0U) && ((cr3its & USART_CR3_EIE) != 0U))
 8003e34:	f8d7 30e4 	ldr.w	r3, [r7, #228]	@ 0xe4
 8003e38:	f003 0302 	and.w	r3, r3, #2
 8003e3c:	2b00      	cmp	r3, #0
 8003e3e:	d011      	beq.n	8003e64 <HAL_UART_IRQHandler+0xec>
 8003e40:	f8d7 30dc 	ldr.w	r3, [r7, #220]	@ 0xdc
 8003e44:	f003 0301 	and.w	r3, r3, #1
 8003e48:	2b00      	cmp	r3, #0
 8003e4a:	d00b      	beq.n	8003e64 <HAL_UART_IRQHandler+0xec>
    {
      __HAL_UART_CLEAR_FLAG(huart, UART_CLEAR_FEF);
 8003e4c:	687b      	ldr	r3, [r7, #4]
 8003e4e:	681b      	ldr	r3, [r3, #0]
 8003e50:	2202      	movs	r2, #2
 8003e52:	621a      	str	r2, [r3, #32]

      huart->ErrorCode |= HAL_UART_ERROR_FE;
 8003e54:	687b      	ldr	r3, [r7, #4]
 8003e56:	f8d3 3084 	ldr.w	r3, [r3, #132]	@ 0x84
 8003e5a:	f043 0204 	orr.w	r2, r3, #4
 8003e5e:	687b      	ldr	r3, [r7, #4]
 8003e60:	f8c3 2084 	str.w	r2, [r3, #132]	@ 0x84
    }

    /* UART noise error interrupt occurred --------------------------------------*/
    if (((isrflags & USART_ISR_NE) != 0U) && ((cr3its & USART_CR3_EIE) != 0U))
 8003e64:	f8d7 30e4 	ldr.w	r3, [r7, #228]	@ 0xe4
 8003e68:	f003 0304 	and.w	r3, r3, #4
 8003e6c:	2b00      	cmp	r3, #0
 8003e6e:	d011      	beq.n	8003e94 <HAL_UART_IRQHandler+0x11c>
 8003e70:	f8d7 30dc 	ldr.w	r3, [r7, #220]	@ 0xdc
 8003e74:	f003 0301 	and.w	r3, r3, #1
 8003e78:	2b00      	cmp	r3, #0
 8003e7a:	d00b      	beq.n	8003e94 <HAL_UART_IRQHandler+0x11c>
    {
      __HAL_UART_CLEAR_FLAG(huart, UART_CLEAR_NEF);
 8003e7c:	687b      	ldr	r3, [r7, #4]
 8003e7e:	681b      	ldr	r3, [r3, #0]
 8003e80:	2204      	movs	r2, #4
 8003e82:	621a      	str	r2, [r3, #32]

      huart->ErrorCode |= HAL_UART_ERROR_NE;
 8003e84:	687b      	ldr	r3, [r7, #4]
 8003e86:	f8d3 3084 	ldr.w	r3, [r3, #132]	@ 0x84
 8003e8a:	f043 0202 	orr.w	r2, r3, #2
 8003e8e:	687b      	ldr	r3, [r7, #4]
 8003e90:	f8c3 2084 	str.w	r2, [r3, #132]	@ 0x84
    }

    /* UART Over-Run interrupt occurred -----------------------------------------*/
    if (((isrflags & USART_ISR_ORE) != 0U)
 8003e94:	f8d7 30e4 	ldr.w	r3, [r7, #228]	@ 0xe4
 8003e98:	f003 0308 	and.w	r3, r3, #8
 8003e9c:	2b00      	cmp	r3, #0
 8003e9e:	d017      	beq.n	8003ed0 <HAL_UART_IRQHandler+0x158>
        && (((cr1its & USART_CR1_RXNEIE) != 0U) ||
 8003ea0:	f8d7 30e0 	ldr.w	r3, [r7, #224]	@ 0xe0
 8003ea4:	f003 0320 	and.w	r3, r3, #32
 8003ea8:	2b00      	cmp	r3, #0
 8003eaa:	d105      	bne.n	8003eb8 <HAL_UART_IRQHandler+0x140>
            ((cr3its & USART_CR3_EIE) != 0U)))
 8003eac:	f8d7 30dc 	ldr.w	r3, [r7, #220]	@ 0xdc
 8003eb0:	f003 0301 	and.w	r3, r3, #1
        && (((cr1its & USART_CR1_RXNEIE) != 0U) ||
 8003eb4:	2b00      	cmp	r3, #0
 8003eb6:	d00b      	beq.n	8003ed0 <HAL_UART_IRQHandler+0x158>
    {
      __HAL_UART_CLEAR_FLAG(huart, UART_CLEAR_OREF);
 8003eb8:	687b      	ldr	r3, [r7, #4]
 8003eba:	681b      	ldr	r3, [r3, #0]
 8003ebc:	2208      	movs	r2, #8
 8003ebe:	621a      	str	r2, [r3, #32]

      huart->ErrorCode |= HAL_UART_ERROR_ORE;
 8003ec0:	687b      	ldr	r3, [r7, #4]
 8003ec2:	f8d3 3084 	ldr.w	r3, [r3, #132]	@ 0x84
 8003ec6:	f043 0208 	orr.w	r2, r3, #8
 8003eca:	687b      	ldr	r3, [r7, #4]
 8003ecc:	f8c3 2084 	str.w	r2, [r3, #132]	@ 0x84
    }

    /* UART Receiver Timeout interrupt occurred ---------------------------------*/
    if (((isrflags & USART_ISR_RTOF) != 0U) && ((cr1its & USART_CR1_RTOIE) != 0U))
 8003ed0:	f8d7 30e4 	ldr.w	r3, [r7, #228]	@ 0xe4
 8003ed4:	f403 6300 	and.w	r3, r3, #2048	@ 0x800
 8003ed8:	2b00      	cmp	r3, #0
 8003eda:	d012      	beq.n	8003f02 <HAL_UART_IRQHandler+0x18a>
 8003edc:	f8d7 30e0 	ldr.w	r3, [r7, #224]	@ 0xe0
 8003ee0:	f003 6380 	and.w	r3, r3, #67108864	@ 0x4000000
 8003ee4:	2b00      	cmp	r3, #0
 8003ee6:	d00c      	beq.n	8003f02 <HAL_UART_IRQHandler+0x18a>
    {
      __HAL_UART_CLEAR_FLAG(huart, UART_CLEAR_RTOF);
 8003ee8:	687b      	ldr	r3, [r7, #4]
 8003eea:	681b      	ldr	r3, [r3, #0]
 8003eec:	f44f 6200 	mov.w	r2, #2048	@ 0x800
 8003ef0:	621a      	str	r2, [r3, #32]

      huart->ErrorCode |= HAL_UART_ERROR_RTO;
 8003ef2:	687b      	ldr	r3, [r7, #4]
 8003ef4:	f8d3 3084 	ldr.w	r3, [r3, #132]	@ 0x84
 8003ef8:	f043 0220 	orr.w	r2, r3, #32
 8003efc:	687b      	ldr	r3, [r7, #4]
 8003efe:	f8c3 2084 	str.w	r2, [r3, #132]	@ 0x84
    }

    /* Call UART Error Call back function if need be ----------------------------*/
    if (huart->ErrorCode != HAL_UART_ERROR_NONE)
 8003f02:	687b      	ldr	r3, [r7, #4]
 8003f04:	f8d3 3084 	ldr.w	r3, [r3, #132]	@ 0x84
 8003f08:	2b00      	cmp	r3, #0
 8003f0a:	f000 81fd 	beq.w	8004308 <HAL_UART_IRQHandler+0x590>
    {
      /* UART in mode Receiver --------------------------------------------------*/
      if (((isrflags & USART_ISR_RXNE) != 0U)
 8003f0e:	f8d7 30e4 	ldr.w	r3, [r7, #228]	@ 0xe4
 8003f12:	f003 0320 	and.w	r3, r3, #32
 8003f16:	2b00      	cmp	r3, #0
 8003f18:	d00d      	beq.n	8003f36 <HAL_UART_IRQHandler+0x1be>
          && ((cr1its & USART_CR1_RXNEIE) != 0U))
 8003f1a:	f8d7 30e0 	ldr.w	r3, [r7, #224]	@ 0xe0
 8003f1e:	f003 0320 	and.w	r3, r3, #32
 8003f22:	2b00      	cmp	r3, #0
 8003f24:	d007      	beq.n	8003f36 <HAL_UART_IRQHandler+0x1be>
      {
        if (huart->RxISR != NULL)
 8003f26:	687b      	ldr	r3, [r7, #4]
 8003f28:	6e9b      	ldr	r3, [r3, #104]	@ 0x68
 8003f2a:	2b00      	cmp	r3, #0
 8003f2c:	d003      	beq.n	8003f36 <HAL_UART_IRQHandler+0x1be>
        {
          huart->RxISR(huart);
 8003f2e:	687b      	ldr	r3, [r7, #4]
 8003f30:	6e9b      	ldr	r3, [r3, #104]	@ 0x68
 8003f32:	6878      	ldr	r0, [r7, #4]
 8003f34:	4798      	blx	r3
      /* If Error is to be considered as blocking :
          - Receiver Timeout error in Reception
          - Overrun error in Reception
          - any error occurs in DMA mode reception
      */
      errorcode = huart->ErrorCode;
 8003f36:	687b      	ldr	r3, [r7, #4]
 8003f38:	f8d3 3084 	ldr.w	r3, [r3, #132]	@ 0x84
 8003f3c:	f8c7 30d4 	str.w	r3, [r7, #212]	@ 0xd4
      if ((HAL_IS_BIT_SET(huart->Instance->CR3, USART_CR3_DMAR)) ||
 8003f40:	687b      	ldr	r3, [r7, #4]
 8003f42:	681b      	ldr	r3, [r3, #0]
 8003f44:	689b      	ldr	r3, [r3, #8]
 8003f46:	f003 0340 	and.w	r3, r3, #64	@ 0x40
 8003f4a:	2b40      	cmp	r3, #64	@ 0x40
 8003f4c:	d005      	beq.n	8003f5a <HAL_UART_IRQHandler+0x1e2>
          ((errorcode & (HAL_UART_ERROR_RTO | HAL_UART_ERROR_ORE)) != 0U))
 8003f4e:	f8d7 30d4 	ldr.w	r3, [r7, #212]	@ 0xd4
 8003f52:	f003 0328 	and.w	r3, r3, #40	@ 0x28
      if ((HAL_IS_BIT_SET(huart->Instance->CR3, USART_CR3_DMAR)) ||
 8003f56:	2b00      	cmp	r3, #0
 8003f58:	d04f      	beq.n	8003ffa <HAL_UART_IRQHandler+0x282>
      {
        /* Blocking error : transfer is aborted
           Set the UART state ready to be able to start again the process,
           Disable Rx Interrupts, and disable Rx DMA request, if ongoing */
        UART_EndRxTransfer(huart);
 8003f5a:	6878      	ldr	r0, [r7, #4]
 8003f5c:	f000 fe01 	bl	8004b62 <UART_EndRxTransfer>

        /* Abort the UART DMA Rx channel if enabled */
        if (HAL_IS_BIT_SET(huart->Instance->CR3, USART_CR3_DMAR))
 8003f60:	687b      	ldr	r3, [r7, #4]
 8003f62:	681b      	ldr	r3, [r3, #0]
 8003f64:	689b      	ldr	r3, [r3, #8]
 8003f66:	f003 0340 	and.w	r3, r3, #64	@ 0x40
 8003f6a:	2b40      	cmp	r3, #64	@ 0x40
 8003f6c:	d141      	bne.n	8003ff2 <HAL_UART_IRQHandler+0x27a>
        {
          /* Disable the UART DMA Rx request if enabled */
          ATOMIC_CLEAR_BIT(huart->Instance->CR3, USART_CR3_DMAR);
 8003f6e:	687b      	ldr	r3, [r7, #4]
 8003f70:	681b      	ldr	r3, [r3, #0]
 8003f72:	3308      	adds	r3, #8
 8003f74:	f8c7 309c 	str.w	r3, [r7, #156]	@ 0x9c
 */
__STATIC_FORCEINLINE uint32_t __LDREXW(volatile uint32_t *addr)
{
    uint32_t result;

   __ASM volatile ("ldrex %0, %1" : "=r" (result) : "Q" (*addr) );
 8003f78:	f8d7 309c 	ldr.w	r3, [r7, #156]	@ 0x9c
 8003f7c:	e853 3f00 	ldrex	r3, [r3]
 8003f80:	f8c7 3098 	str.w	r3, [r7, #152]	@ 0x98
   return(result);
 8003f84:	f8d7 3098 	ldr.w	r3, [r7, #152]	@ 0x98
 8003f88:	f023 0340 	bic.w	r3, r3, #64	@ 0x40
 8003f8c:	f8c7 30d0 	str.w	r3, [r7, #208]	@ 0xd0
 8003f90:	687b      	ldr	r3, [r7, #4]
 8003f92:	681b      	ldr	r3, [r3, #0]
 8003f94:	3308      	adds	r3, #8
 8003f96:	f8d7 20d0 	ldr.w	r2, [r7, #208]	@ 0xd0
 8003f9a:	f8c7 20a8 	str.w	r2, [r7, #168]	@ 0xa8
 8003f9e:	f8c7 30a4 	str.w	r3, [r7, #164]	@ 0xa4
 */
__STATIC_FORCEINLINE uint32_t __STREXW(uint32_t value, volatile uint32_t *addr)
{
   uint32_t result;

   __ASM volatile ("strex %0, %2, %1" : "=&r" (result), "=Q" (*addr) : "r" (value) );
 8003fa2:	f8d7 10a4 	ldr.w	r1, [r7, #164]	@ 0xa4
 8003fa6:	f8d7 20a8 	ldr.w	r2, [r7, #168]	@ 0xa8
 8003faa:	e841 2300 	strex	r3, r2, [r1]
 8003fae:	f8c7 30a0 	str.w	r3, [r7, #160]	@ 0xa0
   return(result);
 8003fb2:	f8d7 30a0 	ldr.w	r3, [r7, #160]	@ 0xa0
 8003fb6:	2b00      	cmp	r3, #0
 8003fb8:	d1d9      	bne.n	8003f6e <HAL_UART_IRQHandler+0x1f6>

          /* Abort the UART DMA Rx channel */
          if (huart->hdmarx != NULL)
 8003fba:	687b      	ldr	r3, [r7, #4]
 8003fbc:	6f5b      	ldr	r3, [r3, #116]	@ 0x74
 8003fbe:	2b00      	cmp	r3, #0
 8003fc0:	d013      	beq.n	8003fea <HAL_UART_IRQHandler+0x272>
          {
            /* Set the UART DMA Abort callback :
               will lead to call HAL_UART_ErrorCallback() at end of DMA abort procedure */
            huart->hdmarx->XferAbortCallback = UART_DMAAbortOnError;
 8003fc2:	687b      	ldr	r3, [r7, #4]
 8003fc4:	6f5b      	ldr	r3, [r3, #116]	@ 0x74
 8003fc6:	4a13      	ldr	r2, [pc, #76]	@ (8004014 <HAL_UART_IRQHandler+0x29c>)
 8003fc8:	651a      	str	r2, [r3, #80]	@ 0x50

            /* Abort DMA RX */
            if (HAL_DMA_Abort_IT(huart->hdmarx) != HAL_OK)
 8003fca:	687b      	ldr	r3, [r7, #4]
 8003fcc:	6f5b      	ldr	r3, [r3, #116]	@ 0x74
 8003fce:	4618      	mov	r0, r3
 8003fd0:	f7fe f82c 	bl	800202c <HAL_DMA_Abort_IT>
 8003fd4:	4603      	mov	r3, r0
 8003fd6:	2b00      	cmp	r3, #0
 8003fd8:	d017      	beq.n	800400a <HAL_UART_IRQHandler+0x292>
            {
              /* Call Directly huart->hdmarx->XferAbortCallback function in case of error */
              huart->hdmarx->XferAbortCallback(huart->hdmarx);
 8003fda:	687b      	ldr	r3, [r7, #4]
 8003fdc:	6f5b      	ldr	r3, [r3, #116]	@ 0x74
 8003fde:	6d1b      	ldr	r3, [r3, #80]	@ 0x50
 8003fe0:	687a      	ldr	r2, [r7, #4]
 8003fe2:	6f52      	ldr	r2, [r2, #116]	@ 0x74
 8003fe4:	4610      	mov	r0, r2
 8003fe6:	4798      	blx	r3
        if (HAL_IS_BIT_SET(huart->Instance->CR3, USART_CR3_DMAR))
 8003fe8:	e00f      	b.n	800400a <HAL_UART_IRQHandler+0x292>
#if (USE_HAL_UART_REGISTER_CALLBACKS == 1)
            /*Call registered error callback*/
            huart->ErrorCallback(huart);
#else
            /*Call legacy weak error callback*/
            HAL_UART_ErrorCallback(huart);
 8003fea:	6878      	ldr	r0, [r7, #4]
 8003fec:	f000 f9a0 	bl	8004330 <HAL_UART_ErrorCallback>
        if (HAL_IS_BIT_SET(huart->Instance->CR3, USART_CR3_DMAR))
 8003ff0:	e00b      	b.n	800400a <HAL_UART_IRQHandler+0x292>
#if (USE_HAL_UART_REGISTER_CALLBACKS == 1)
          /*Call registered error callback*/
          huart->ErrorCallback(huart);
#else
          /*Call legacy weak error callback*/
          HAL_UART_ErrorCallback(huart);
 8003ff2:	6878      	ldr	r0, [r7, #4]
 8003ff4:	f000 f99c 	bl	8004330 <HAL_UART_ErrorCallback>
        if (HAL_IS_BIT_SET(huart->Instance->CR3, USART_CR3_DMAR))
 8003ff8:	e007      	b.n	800400a <HAL_UART_IRQHandler+0x292>
#if (USE_HAL_UART_REGISTER_CALLBACKS == 1)
        /*Call registered error callback*/
        huart->ErrorCallback(huart);
#else
        /*Call legacy weak error callback*/
        HAL_UART_ErrorCallback(huart);
 8003ffa:	6878      	ldr	r0, [r7, #4]
 8003ffc:	f000 f998 	bl	8004330 <HAL_UART_ErrorCallback>
#endif /* USE_HAL_UART_REGISTER_CALLBACKS */
        huart->ErrorCode = HAL_UART_ERROR_NONE;
 8004000:	687b      	ldr	r3, [r7, #4]
 8004002:	2200      	movs	r2, #0
 8004004:	f8c3 2084 	str.w	r2, [r3, #132]	@ 0x84
      }
    }
    return;
 8004008:	e17e      	b.n	8004308 <HAL_UART_IRQHandler+0x590>
        if (HAL_IS_BIT_SET(huart->Instance->CR3, USART_CR3_DMAR))
 800400a:	bf00      	nop
    return;
 800400c:	e17c      	b.n	8004308 <HAL_UART_IRQHandler+0x590>
 800400e:	bf00      	nop
 8004010:	04000120 	.word	0x04000120
 8004014:	08004c2b 	.word	0x08004c2b

  } /* End if some error occurs */

  /* Check current reception Mode :
     If Reception till IDLE event has been selected : */
  if ((huart->ReceptionType == HAL_UART_RECEPTION_TOIDLE)
 8004018:	687b      	ldr	r3, [r7, #4]
 800401a:	6e1b      	ldr	r3, [r3, #96]	@ 0x60
 800401c:	2b01      	cmp	r3, #1
 800401e:	f040 814c 	bne.w	80042ba <HAL_UART_IRQHandler+0x542>
      && ((isrflags & USART_ISR_IDLE) != 0U)
 8004022:	f8d7 30e4 	ldr.w	r3, [r7, #228]	@ 0xe4
 8004026:	f003 0310 	and.w	r3, r3, #16
 800402a:	2b00      	cmp	r3, #0
 800402c:	f000 8145 	beq.w	80042ba <HAL_UART_IRQHandler+0x542>
      && ((cr1its & USART_ISR_IDLE) != 0U))
 8004030:	f8d7 30e0 	ldr.w	r3, [r7, #224]	@ 0xe0
 8004034:	f003 0310 	and.w	r3, r3, #16
 8004038:	2b00      	cmp	r3, #0
 800403a:	f000 813e 	beq.w	80042ba <HAL_UART_IRQHandler+0x542>
  {
    __HAL_UART_CLEAR_FLAG(huart, UART_CLEAR_IDLEF);
 800403e:	687b      	ldr	r3, [r7, #4]
 8004040:	681b      	ldr	r3, [r3, #0]
 8004042:	2210      	movs	r2, #16
 8004044:	621a      	str	r2, [r3, #32]

    /* Check if DMA mode is enabled in UART */
    if (HAL_IS_BIT_SET(huart->Instance->CR3, USART_CR3_DMAR))
 8004046:	687b      	ldr	r3, [r7, #4]
 8004048:	681b      	ldr	r3, [r3, #0]
 800404a:	689b      	ldr	r3, [r3, #8]
 800404c:	f003 0340 	and.w	r3, r3, #64	@ 0x40
 8004050:	2b40      	cmp	r3, #64	@ 0x40
 8004052:	f040 80b6 	bne.w	80041c2 <HAL_UART_IRQHandler+0x44a>
    {
      /* DMA mode enabled */
      /* Check received length : If all expected data are received, do nothing,
         (DMA cplt callback will be called).
         Otherwise, if at least one data has already been received, IDLE event is to be notified to user */
      uint16_t nb_remaining_rx_data = (uint16_t) __HAL_DMA_GET_COUNTER(huart->hdmarx);
 8004056:	687b      	ldr	r3, [r7, #4]
 8004058:	6f5b      	ldr	r3, [r3, #116]	@ 0x74
 800405a:	681b      	ldr	r3, [r3, #0]
 800405c:	685b      	ldr	r3, [r3, #4]
 800405e:	f8a7 30be 	strh.w	r3, [r7, #190]	@ 0xbe
      if ((nb_remaining_rx_data > 0U)
 8004062:	f8b7 30be 	ldrh.w	r3, [r7, #190]	@ 0xbe
 8004066:	2b00      	cmp	r3, #0
 8004068:	f000 8150 	beq.w	800430c <HAL_UART_IRQHandler+0x594>
          && (nb_remaining_rx_data < huart->RxXferSize))
 800406c:	687b      	ldr	r3, [r7, #4]
 800406e:	f8b3 3058 	ldrh.w	r3, [r3, #88]	@ 0x58
 8004072:	f8b7 20be 	ldrh.w	r2, [r7, #190]	@ 0xbe
 8004076:	429a      	cmp	r2, r3
 8004078:	f080 8148 	bcs.w	800430c <HAL_UART_IRQHandler+0x594>
      {
        /* Reception is not complete */
        huart->RxXferCount = nb_remaining_rx_data;
 800407c:	687b      	ldr	r3, [r7, #4]
 800407e:	f8b7 20be 	ldrh.w	r2, [r7, #190]	@ 0xbe
 8004082:	f8a3 205a 	strh.w	r2, [r3, #90]	@ 0x5a

        /* In Normal mode, end DMA xfer and HAL UART Rx process*/
        if (huart->hdmarx->Init.Mode != DMA_CIRCULAR)
 8004086:	687b      	ldr	r3, [r7, #4]
 8004088:	6f5b      	ldr	r3, [r3, #116]	@ 0x74
 800408a:	69db      	ldr	r3, [r3, #28]
 800408c:	f5b3 7f80 	cmp.w	r3, #256	@ 0x100
 8004090:	f000 8086 	beq.w	80041a0 <HAL_UART_IRQHandler+0x428>
        {
          /* Disable PE and ERR (Frame error, noise error, overrun error) interrupts */
          ATOMIC_CLEAR_BIT(huart->Instance->CR1, USART_CR1_PEIE);
 8004094:	687b      	ldr	r3, [r7, #4]
 8004096:	681b      	ldr	r3, [r3, #0]
 8004098:	f8c7 3088 	str.w	r3, [r7, #136]	@ 0x88
   __ASM volatile ("ldrex %0, %1" : "=r" (result) : "Q" (*addr) );
 800409c:	f8d7 3088 	ldr.w	r3, [r7, #136]	@ 0x88
 80040a0:	e853 3f00 	ldrex	r3, [r3]
 80040a4:	f8c7 3084 	str.w	r3, [r7, #132]	@ 0x84
   return(result);
 80040a8:	f8d7 3084 	ldr.w	r3, [r7, #132]	@ 0x84
 80040ac:	f423 7380 	bic.w	r3, r3, #256	@ 0x100
 80040b0:	f8c7 30b8 	str.w	r3, [r7, #184]	@ 0xb8
 80040b4:	687b      	ldr	r3, [r7, #4]
 80040b6:	681b      	ldr	r3, [r3, #0]
 80040b8:	461a      	mov	r2, r3
 80040ba:	f8d7 30b8 	ldr.w	r3, [r7, #184]	@ 0xb8
 80040be:	f8c7 3094 	str.w	r3, [r7, #148]	@ 0x94
 80040c2:	f8c7 2090 	str.w	r2, [r7, #144]	@ 0x90
   __ASM volatile ("strex %0, %2, %1" : "=&r" (result), "=Q" (*addr) : "r" (value) );
 80040c6:	f8d7 1090 	ldr.w	r1, [r7, #144]	@ 0x90
 80040ca:	f8d7 2094 	ldr.w	r2, [r7, #148]	@ 0x94
 80040ce:	e841 2300 	strex	r3, r2, [r1]
 80040d2:	f8c7 308c 	str.w	r3, [r7, #140]	@ 0x8c
   return(result);
 80040d6:	f8d7 308c 	ldr.w	r3, [r7, #140]	@ 0x8c
 80040da:	2b00      	cmp	r3, #0
 80040dc:	d1da      	bne.n	8004094 <HAL_UART_IRQHandler+0x31c>
          ATOMIC_CLEAR_BIT(huart->Instance->CR3, USART_CR3_EIE);
 80040de:	687b      	ldr	r3, [r7, #4]
 80040e0:	681b      	ldr	r3, [r3, #0]
 80040e2:	3308      	adds	r3, #8
 80040e4:	677b      	str	r3, [r7, #116]	@ 0x74
   __ASM volatile ("ldrex %0, %1" : "=r" (result) : "Q" (*addr) );
 80040e6:	6f7b      	ldr	r3, [r7, #116]	@ 0x74
 80040e8:	e853 3f00 	ldrex	r3, [r3]
 80040ec:	673b      	str	r3, [r7, #112]	@ 0x70
   return(result);
 80040ee:	6f3b      	ldr	r3, [r7, #112]	@ 0x70
 80040f0:	f023 0301 	bic.w	r3, r3, #1
 80040f4:	f8c7 30b4 	str.w	r3, [r7, #180]	@ 0xb4
 80040f8:	687b      	ldr	r3, [r7, #4]
 80040fa:	681b      	ldr	r3, [r3, #0]
 80040fc:	3308      	adds	r3, #8
 80040fe:	f8d7 20b4 	ldr.w	r2, [r7, #180]	@ 0xb4
 8004102:	f8c7 2080 	str.w	r2, [r7, #128]	@ 0x80
 8004106:	67fb      	str	r3, [r7, #124]	@ 0x7c
   __ASM volatile ("strex %0, %2, %1" : "=&r" (result), "=Q" (*addr) : "r" (value) );
 8004108:	6ff9      	ldr	r1, [r7, #124]	@ 0x7c
 800410a:	f8d7 2080 	ldr.w	r2, [r7, #128]	@ 0x80
 800410e:	e841 2300 	strex	r3, r2, [r1]
 8004112:	67bb      	str	r3, [r7, #120]	@ 0x78
   return(result);
 8004114:	6fbb      	ldr	r3, [r7, #120]	@ 0x78
 8004116:	2b00      	cmp	r3, #0
 8004118:	d1e1      	bne.n	80040de <HAL_UART_IRQHandler+0x366>

          /* Disable the DMA transfer for the receiver request by resetting the DMAR bit
             in the UART CR3 register */
          ATOMIC_CLEAR_BIT(huart->Instance->CR3, USART_CR3_DMAR);
 800411a:	687b      	ldr	r3, [r7, #4]
 800411c:	681b      	ldr	r3, [r3, #0]
 800411e:	3308      	adds	r3, #8
 8004120:	663b      	str	r3, [r7, #96]	@ 0x60
   __ASM volatile ("ldrex %0, %1" : "=r" (result) : "Q" (*addr) );
 8004122:	6e3b      	ldr	r3, [r7, #96]	@ 0x60
 8004124:	e853 3f00 	ldrex	r3, [r3]
 8004128:	65fb      	str	r3, [r7, #92]	@ 0x5c
   return(result);
 800412a:	6dfb      	ldr	r3, [r7, #92]	@ 0x5c
 800412c:	f023 0340 	bic.w	r3, r3, #64	@ 0x40
 8004130:	f8c7 30b0 	str.w	r3, [r7, #176]	@ 0xb0
 8004134:	687b      	ldr	r3, [r7, #4]
 8004136:	681b      	ldr	r3, [r3, #0]
 8004138:	3308      	adds	r3, #8
 800413a:	f8d7 20b0 	ldr.w	r2, [r7, #176]	@ 0xb0
 800413e:	66fa      	str	r2, [r7, #108]	@ 0x6c
 8004140:	66bb      	str	r3, [r7, #104]	@ 0x68
   __ASM volatile ("strex %0, %2, %1" : "=&r" (result), "=Q" (*addr) : "r" (value) );
 8004142:	6eb9      	ldr	r1, [r7, #104]	@ 0x68
 8004144:	6efa      	ldr	r2, [r7, #108]	@ 0x6c
 8004146:	e841 2300 	strex	r3, r2, [r1]
 800414a:	667b      	str	r3, [r7, #100]	@ 0x64
   return(result);
 800414c:	6e7b      	ldr	r3, [r7, #100]	@ 0x64
 800414e:	2b00      	cmp	r3, #0
 8004150:	d1e3      	bne.n	800411a <HAL_UART_IRQHandler+0x3a2>

          /* At end of Rx process, restore huart->RxState to Ready */
          huart->RxState = HAL_UART_STATE_READY;
 8004152:	687b      	ldr	r3, [r7, #4]
 8004154:	2220      	movs	r2, #32
 8004156:	f8c3 2080 	str.w	r2, [r3, #128]	@ 0x80
          huart->ReceptionType = HAL_UART_RECEPTION_STANDARD;
 800415a:	687b      	ldr	r3, [r7, #4]
 800415c:	2200      	movs	r2, #0
 800415e:	661a      	str	r2, [r3, #96]	@ 0x60

          ATOMIC_CLEAR_BIT(huart->Instance->CR1, USART_CR1_IDLEIE);
 8004160:	687b      	ldr	r3, [r7, #4]
 8004162:	681b      	ldr	r3, [r3, #0]
 8004164:	64fb      	str	r3, [r7, #76]	@ 0x4c
   __ASM volatile ("ldrex %0, %1" : "=r" (result) : "Q" (*addr) );
 8004166:	6cfb      	ldr	r3, [r7, #76]	@ 0x4c
 8004168:	e853 3f00 	ldrex	r3, [r3]
 800416c:	64bb      	str	r3, [r7, #72]	@ 0x48
   return(result);
 800416e:	6cbb      	ldr	r3, [r7, #72]	@ 0x48
 8004170:	f023 0310 	bic.w	r3, r3, #16
 8004174:	f8c7 30ac 	str.w	r3, [r7, #172]	@ 0xac
 8004178:	687b      	ldr	r3, [r7, #4]
 800417a:	681b      	ldr	r3, [r3, #0]
 800417c:	461a      	mov	r2, r3
 800417e:	f8d7 30ac 	ldr.w	r3, [r7, #172]	@ 0xac
 8004182:	65bb      	str	r3, [r7, #88]	@ 0x58
 8004184:	657a      	str	r2, [r7, #84]	@ 0x54
   __ASM volatile ("strex %0, %2, %1" : "=&r" (result), "=Q" (*addr) : "r" (value) );
 8004186:	6d79      	ldr	r1, [r7, #84]	@ 0x54
 8004188:	6dba      	ldr	r2, [r7, #88]	@ 0x58
 800418a:	e841 2300 	strex	r3, r2, [r1]
 800418e:	653b      	str	r3, [r7, #80]	@ 0x50
   return(result);
 8004190:	6d3b      	ldr	r3, [r7, #80]	@ 0x50
 8004192:	2b00      	cmp	r3, #0
 8004194:	d1e4      	bne.n	8004160 <HAL_UART_IRQHandler+0x3e8>

          /* Last bytes received, so no need as the abort is immediate */
          (void)HAL_DMA_Abort(huart->hdmarx);
 8004196:	687b      	ldr	r3, [r7, #4]
 8004198:	6f5b      	ldr	r3, [r3, #116]	@ 0x74
 800419a:	4618      	mov	r0, r3
 800419c:	f7fd fed6 	bl	8001f4c <HAL_DMA_Abort>
        }

        /* Initialize type of RxEvent that correspond to RxEvent callback execution;
           In this case, Rx Event type is Idle Event */
        huart->RxEventType = HAL_UART_RXEVENT_IDLE;
 80041a0:	687b      	ldr	r3, [r7, #4]
 80041a2:	2202      	movs	r2, #2
 80041a4:	665a      	str	r2, [r3, #100]	@ 0x64
#if (USE_HAL_UART_REGISTER_CALLBACKS == 1)
        /*Call registered Rx Event callback*/
        huart->RxEventCallback(huart, (huart->RxXferSize - huart->RxXferCount));
#else
        /*Call legacy weak Rx Event callback*/
        HAL_UARTEx_RxEventCallback(huart, (huart->RxXferSize - huart->RxXferCount));
 80041a6:	687b      	ldr	r3, [r7, #4]
 80041a8:	f8b3 2058 	ldrh.w	r2, [r3, #88]	@ 0x58
 80041ac:	687b      	ldr	r3, [r7, #4]
 80041ae:	f8b3 305a 	ldrh.w	r3, [r3, #90]	@ 0x5a
 80041b2:	b29b      	uxth	r3, r3
 80041b4:	1ad3      	subs	r3, r2, r3
 80041b6:	b29b      	uxth	r3, r3
 80041b8:	4619      	mov	r1, r3
 80041ba:	6878      	ldr	r0, [r7, #4]
 80041bc:	f000 f8c2 	bl	8004344 <HAL_UARTEx_RxEventCallback>
#endif /* (USE_HAL_UART_REGISTER_CALLBACKS) */
      }
      return;
 80041c0:	e0a4      	b.n	800430c <HAL_UART_IRQHandler+0x594>
    else
    {
      /* DMA mode not enabled */
      /* Check received length : If all expected data are received, do nothing.
         Otherwise, if at least one data has already been received, IDLE event is to be notified to user */
      uint16_t nb_rx_data = huart->RxXferSize - huart->RxXferCount;
 80041c2:	687b      	ldr	r3, [r7, #4]
 80041c4:	f8b3 2058 	ldrh.w	r2, [r3, #88]	@ 0x58
 80041c8:	687b      	ldr	r3, [r7, #4]
 80041ca:	f8b3 305a 	ldrh.w	r3, [r3, #90]	@ 0x5a
 80041ce:	b29b      	uxth	r3, r3
 80041d0:	1ad3      	subs	r3, r2, r3
 80041d2:	f8a7 30ce 	strh.w	r3, [r7, #206]	@ 0xce
      if ((huart->RxXferCount > 0U)
 80041d6:	687b      	ldr	r3, [r7, #4]
 80041d8:	f8b3 305a 	ldrh.w	r3, [r3, #90]	@ 0x5a
 80041dc:	b29b      	uxth	r3, r3
 80041de:	2b00      	cmp	r3, #0
 80041e0:	f000 8096 	beq.w	8004310 <HAL_UART_IRQHandler+0x598>
          && (nb_rx_data > 0U))
 80041e4:	f8b7 30ce 	ldrh.w	r3, [r7, #206]	@ 0xce
 80041e8:	2b00      	cmp	r3, #0
 80041ea:	f000 8091 	beq.w	8004310 <HAL_UART_IRQHandler+0x598>
      {
        /* Disable the UART Parity Error Interrupt and RXNE interrupts */
        ATOMIC_CLEAR_BIT(huart->Instance->CR1, (USART_CR1_RXNEIE | USART_CR1_PEIE));
 80041ee:	687b      	ldr	r3, [r7, #4]
 80041f0:	681b      	ldr	r3, [r3, #0]
 80041f2:	63bb      	str	r3, [r7, #56]	@ 0x38
   __ASM volatile ("ldrex %0, %1" : "=r" (result) : "Q" (*addr) );
 80041f4:	6bbb      	ldr	r3, [r7, #56]	@ 0x38
 80041f6:	e853 3f00 	ldrex	r3, [r3]
 80041fa:	637b      	str	r3, [r7, #52]	@ 0x34
   return(result);
 80041fc:	6b7b      	ldr	r3, [r7, #52]	@ 0x34
 80041fe:	f423 7390 	bic.w	r3, r3, #288	@ 0x120
 8004202:	f8c7 30c8 	str.w	r3, [r7, #200]	@ 0xc8
 8004206:	687b      	ldr	r3, [r7, #4]
 8004208:	681b      	ldr	r3, [r3, #0]
 800420a:	461a      	mov	r2, r3
 800420c:	f8d7 30c8 	ldr.w	r3, [r7, #200]	@ 0xc8
 8004210:	647b      	str	r3, [r7, #68]	@ 0x44
 8004212:	643a      	str	r2, [r7, #64]	@ 0x40
   __ASM volatile ("strex %0, %2, %1" : "=&r" (result), "=Q" (*addr) : "r" (value) );
 8004214:	6c39      	ldr	r1, [r7, #64]	@ 0x40
 8004216:	6c7a      	ldr	r2, [r7, #68]	@ 0x44
 8004218:	e841 2300 	strex	r3, r2, [r1]
 800421c:	63fb      	str	r3, [r7, #60]	@ 0x3c
   return(result);
 800421e:	6bfb      	ldr	r3, [r7, #60]	@ 0x3c
 8004220:	2b00      	cmp	r3, #0
 8004222:	d1e4      	bne.n	80041ee <HAL_UART_IRQHandler+0x476>

        /* Disable the UART Error Interrupt: (Frame error, noise error, overrun error) */
        ATOMIC_CLEAR_BIT(huart->Instance->CR3, USART_CR3_EIE);
 8004224:	687b      	ldr	r3, [r7, #4]
 8004226:	681b      	ldr	r3, [r3, #0]
 8004228:	3308      	adds	r3, #8
 800422a:	627b      	str	r3, [r7, #36]	@ 0x24
   __ASM volatile ("ldrex %0, %1" : "=r" (result) : "Q" (*addr) );
 800422c:	6a7b      	ldr	r3, [r7, #36]	@ 0x24
 800422e:	e853 3f00 	ldrex	r3, [r3]
 8004232:	623b      	str	r3, [r7, #32]
   return(result);
 8004234:	6a3b      	ldr	r3, [r7, #32]
 8004236:	f023 0301 	bic.w	r3, r3, #1
 800423a:	f8c7 30c4 	str.w	r3, [r7, #196]	@ 0xc4
 800423e:	687b      	ldr	r3, [r7, #4]
 8004240:	681b      	ldr	r3, [r3, #0]
 8004242:	3308      	adds	r3, #8
 8004244:	f8d7 20c4 	ldr.w	r2, [r7, #196]	@ 0xc4
 8004248:	633a      	str	r2, [r7, #48]	@ 0x30
 800424a:	62fb      	str	r3, [r7, #44]	@ 0x2c
   __ASM volatile ("strex %0, %2, %1" : "=&r" (result), "=Q" (*addr) : "r" (value) );
 800424c:	6af9      	ldr	r1, [r7, #44]	@ 0x2c
 800424e:	6b3a      	ldr	r2, [r7, #48]	@ 0x30
 8004250:	e841 2300 	strex	r3, r2, [r1]
 8004254:	62bb      	str	r3, [r7, #40]	@ 0x28
   return(result);
 8004256:	6abb      	ldr	r3, [r7, #40]	@ 0x28
 8004258:	2b00      	cmp	r3, #0
 800425a:	d1e3      	bne.n	8004224 <HAL_UART_IRQHandler+0x4ac>

        /* Rx process is completed, restore huart->RxState to Ready */
        huart->RxState = HAL_UART_STATE_READY;
 800425c:	687b      	ldr	r3, [r7, #4]
 800425e:	2220      	movs	r2, #32
 8004260:	f8c3 2080 	str.w	r2, [r3, #128]	@ 0x80
        huart->ReceptionType = HAL_UART_RECEPTION_STANDARD;
 8004264:	687b      	ldr	r3, [r7, #4]
 8004266:	2200      	movs	r2, #0
 8004268:	661a      	str	r2, [r3, #96]	@ 0x60

        /* Clear RxISR function pointer */
        huart->RxISR = NULL;
 800426a:	687b      	ldr	r3, [r7, #4]
 800426c:	2200      	movs	r2, #0
 800426e:	669a      	str	r2, [r3, #104]	@ 0x68

        ATOMIC_CLEAR_BIT(huart->Instance->CR1, USART_CR1_IDLEIE);
 8004270:	687b      	ldr	r3, [r7, #4]
 8004272:	681b      	ldr	r3, [r3, #0]
 8004274:	613b      	str	r3, [r7, #16]
   __ASM volatile ("ldrex %0, %1" : "=r" (result) : "Q" (*addr) );
 8004276:	693b      	ldr	r3, [r7, #16]
 8004278:	e853 3f00 	ldrex	r3, [r3]
 800427c:	60fb      	str	r3, [r7, #12]
   return(result);
 800427e:	68fb      	ldr	r3, [r7, #12]
 8004280:	f023 0310 	bic.w	r3, r3, #16
 8004284:	f8c7 30c0 	str.w	r3, [r7, #192]	@ 0xc0
 8004288:	687b      	ldr	r3, [r7, #4]
 800428a:	681b      	ldr	r3, [r3, #0]
 800428c:	461a      	mov	r2, r3
 800428e:	f8d7 30c0 	ldr.w	r3, [r7, #192]	@ 0xc0
 8004292:	61fb      	str	r3, [r7, #28]
 8004294:	61ba      	str	r2, [r7, #24]
   __ASM volatile ("strex %0, %2, %1" : "=&r" (result), "=Q" (*addr) : "r" (value) );
 8004296:	69b9      	ldr	r1, [r7, #24]
 8004298:	69fa      	ldr	r2, [r7, #28]
 800429a:	e841 2300 	strex	r3, r2, [r1]
 800429e:	617b      	str	r3, [r7, #20]
   return(result);
 80042a0:	697b      	ldr	r3, [r7, #20]
 80042a2:	2b00      	cmp	r3, #0
 80042a4:	d1e4      	bne.n	8004270 <HAL_UART_IRQHandler+0x4f8>

        /* Initialize type of RxEvent that correspond to RxEvent callback execution;
           In this case, Rx Event type is Idle Event */
        huart->RxEventType = HAL_UART_RXEVENT_IDLE;
 80042a6:	687b      	ldr	r3, [r7, #4]
 80042a8:	2202      	movs	r2, #2
 80042aa:	665a      	str	r2, [r3, #100]	@ 0x64
#if (USE_HAL_UART_REGISTER_CALLBACKS == 1)
        /*Call registered Rx complete callback*/
        huart->RxEventCallback(huart, nb_rx_data);
#else
        /*Call legacy weak Rx Event callback*/
        HAL_UARTEx_RxEventCallback(huart, nb_rx_data);
 80042ac:	f8b7 30ce 	ldrh.w	r3, [r7, #206]	@ 0xce
 80042b0:	4619      	mov	r1, r3
 80042b2:	6878      	ldr	r0, [r7, #4]
 80042b4:	f000 f846 	bl	8004344 <HAL_UARTEx_RxEventCallback>
#endif /* (USE_HAL_UART_REGISTER_CALLBACKS) */
      }
      return;
 80042b8:	e02a      	b.n	8004310 <HAL_UART_IRQHandler+0x598>
  }
#endif /* USART_CR3_WUFIE */
#endif /* USART_CR1_UESM */

  /* UART in mode Transmitter ------------------------------------------------*/
  if (((isrflags & USART_ISR_TXE) != 0U)
 80042ba:	f8d7 30e4 	ldr.w	r3, [r7, #228]	@ 0xe4
 80042be:	f003 0380 	and.w	r3, r3, #128	@ 0x80
 80042c2:	2b00      	cmp	r3, #0
 80042c4:	d00e      	beq.n	80042e4 <HAL_UART_IRQHandler+0x56c>
      && ((cr1its & USART_CR1_TXEIE) != 0U))
 80042c6:	f8d7 30e0 	ldr.w	r3, [r7, #224]	@ 0xe0
 80042ca:	f003 0380 	and.w	r3, r3, #128	@ 0x80
 80042ce:	2b00      	cmp	r3, #0
 80042d0:	d008      	beq.n	80042e4 <HAL_UART_IRQHandler+0x56c>
  {
    if (huart->TxISR != NULL)
 80042d2:	687b      	ldr	r3, [r7, #4]
 80042d4:	6edb      	ldr	r3, [r3, #108]	@ 0x6c
 80042d6:	2b00      	cmp	r3, #0
 80042d8:	d01c      	beq.n	8004314 <HAL_UART_IRQHandler+0x59c>
    {
      huart->TxISR(huart);
 80042da:	687b      	ldr	r3, [r7, #4]
 80042dc:	6edb      	ldr	r3, [r3, #108]	@ 0x6c
 80042de:	6878      	ldr	r0, [r7, #4]
 80042e0:	4798      	blx	r3
    }
    return;
 80042e2:	e017      	b.n	8004314 <HAL_UART_IRQHandler+0x59c>
  }

  /* UART in mode Transmitter (transmission end) -----------------------------*/
  if (((isrflags & USART_ISR_TC) != 0U) && ((cr1its & USART_CR1_TCIE) != 0U))
 80042e4:	f8d7 30e4 	ldr.w	r3, [r7, #228]	@ 0xe4
 80042e8:	f003 0340 	and.w	r3, r3, #64	@ 0x40
 80042ec:	2b00      	cmp	r3, #0
 80042ee:	d012      	beq.n	8004316 <HAL_UART_IRQHandler+0x59e>
 80042f0:	f8d7 30e0 	ldr.w	r3, [r7, #224]	@ 0xe0
 80042f4:	f003 0340 	and.w	r3, r3, #64	@ 0x40
 80042f8:	2b00      	cmp	r3, #0
 80042fa:	d00c      	beq.n	8004316 <HAL_UART_IRQHandler+0x59e>
  {
    UART_EndTransmit_IT(huart);
 80042fc:	6878      	ldr	r0, [r7, #4]
 80042fe:	f000 fcaa 	bl	8004c56 <UART_EndTransmit_IT>
    return;
 8004302:	e008      	b.n	8004316 <HAL_UART_IRQHandler+0x59e>
      return;
 8004304:	bf00      	nop
 8004306:	e006      	b.n	8004316 <HAL_UART_IRQHandler+0x59e>
    return;
 8004308:	bf00      	nop
 800430a:	e004      	b.n	8004316 <HAL_UART_IRQHandler+0x59e>
      return;
 800430c:	bf00      	nop
 800430e:	e002      	b.n	8004316 <HAL_UART_IRQHandler+0x59e>
      return;
 8004310:	bf00      	nop
 8004312:	e000      	b.n	8004316 <HAL_UART_IRQHandler+0x59e>
    return;
 8004314:	bf00      	nop
  }

}
 8004316:	37e8      	adds	r7, #232	@ 0xe8
 8004318:	46bd      	mov	sp, r7
 800431a:	bd80      	pop	{r7, pc}

0800431c <HAL_UART_TxCpltCallback>:
  * @brief Tx Transfer completed callback.
  * @param huart UART handle.
  * @retval None
  */
__weak void HAL_UART_TxCpltCallback(UART_HandleTypeDef *huart)
{
 800431c:	b480      	push	{r7}
 800431e:	b083      	sub	sp, #12
 8004320:	af00      	add	r7, sp, #0
 8004322:	6078      	str	r0, [r7, #4]
  UNUSED(huart);

  /* NOTE : This function should not be modified, when the callback is needed,
            the HAL_UART_TxCpltCallback can be implemented in the user file.
   */
}
 8004324:	bf00      	nop
 8004326:	370c      	adds	r7, #12
 8004328:	46bd      	mov	sp, r7
 800432a:	f85d 7b04 	ldr.w	r7, [sp], #4
 800432e:	4770      	bx	lr

08004330 <HAL_UART_ErrorCallback>:
  * @brief  UART error callback.
  * @param  huart UART handle.
  * @retval None
  */
__weak void HAL_UART_ErrorCallback(UART_HandleTypeDef *huart)
{
 8004330:	b480      	push	{r7}
 8004332:	b083      	sub	sp, #12
 8004334:	af00      	add	r7, sp, #0
 8004336:	6078      	str	r0, [r7, #4]
  UNUSED(huart);

  /* NOTE : This function should not be modified, when the callback is needed,
            the HAL_UART_ErrorCallback can be implemented in the user file.
   */
}
 8004338:	bf00      	nop
 800433a:	370c      	adds	r7, #12
 800433c:	46bd      	mov	sp, r7
 800433e:	f85d 7b04 	ldr.w	r7, [sp], #4
 8004342:	4770      	bx	lr

08004344 <HAL_UARTEx_RxEventCallback>:
  * @param  Size  Number of data available in application reception buffer (indicates a position in
  *               reception buffer until which, data are available)
  * @retval None
  */
__weak void HAL_UARTEx_RxEventCallback(UART_HandleTypeDef *huart, uint16_t Size)
{
 8004344:	b480      	push	{r7}
 8004346:	b083      	sub	sp, #12
 8004348:	af00      	add	r7, sp, #0
 800434a:	6078      	str	r0, [r7, #4]
 800434c:	460b      	mov	r3, r1
 800434e:	807b      	strh	r3, [r7, #2]
  UNUSED(Size);

  /* NOTE : This function should not be modified, when the callback is needed,
            the HAL_UARTEx_RxEventCallback can be implemented in the user file.
   */
}
 8004350:	bf00      	nop
 8004352:	370c      	adds	r7, #12
 8004354:	46bd      	mov	sp, r7
 8004356:	f85d 7b04 	ldr.w	r7, [sp], #4
 800435a:	4770      	bx	lr

0800435c <UART_SetConfig>:
  * @brief Configure the UART peripheral.
  * @param huart UART handle.
  * @retval HAL status
  */
HAL_StatusTypeDef UART_SetConfig(UART_HandleTypeDef *huart)
{
 800435c:	b580      	push	{r7, lr}
 800435e:	b088      	sub	sp, #32
 8004360:	af00      	add	r7, sp, #0
 8004362:	6078      	str	r0, [r7, #4]
  uint32_t tmpreg;
  uint16_t brrtemp;
  UART_ClockSourceTypeDef clocksource;
  uint32_t usartdiv;
  HAL_StatusTypeDef ret               = HAL_OK;
 8004364:	2300      	movs	r3, #0
 8004366:	77bb      	strb	r3, [r7, #30]
  *  the UART Word Length, Parity, Mode and oversampling:
  *  set the M bits according to huart->Init.WordLength value
  *  set PCE and PS bits according to huart->Init.Parity value
  *  set TE and RE bits according to huart->Init.Mode value
  *  set OVER8 bit according to huart->Init.OverSampling value */
  tmpreg = (uint32_t)huart->Init.WordLength | huart->Init.Parity | huart->Init.Mode | huart->Init.OverSampling ;
 8004368:	687b      	ldr	r3, [r7, #4]
 800436a:	689a      	ldr	r2, [r3, #8]
 800436c:	687b      	ldr	r3, [r7, #4]
 800436e:	691b      	ldr	r3, [r3, #16]
 8004370:	431a      	orrs	r2, r3
 8004372:	687b      	ldr	r3, [r7, #4]
 8004374:	695b      	ldr	r3, [r3, #20]
 8004376:	431a      	orrs	r2, r3
 8004378:	687b      	ldr	r3, [r7, #4]
 800437a:	69db      	ldr	r3, [r3, #28]
 800437c:	4313      	orrs	r3, r2
 800437e:	617b      	str	r3, [r7, #20]
  MODIFY_REG(huart->Instance->CR1, USART_CR1_FIELDS, tmpreg);
 8004380:	687b      	ldr	r3, [r7, #4]
 8004382:	681b      	ldr	r3, [r3, #0]
 8004384:	681a      	ldr	r2, [r3, #0]
 8004386:	4ba6      	ldr	r3, [pc, #664]	@ (8004620 <UART_SetConfig+0x2c4>)
 8004388:	4013      	ands	r3, r2
 800438a:	687a      	ldr	r2, [r7, #4]
 800438c:	6812      	ldr	r2, [r2, #0]
 800438e:	6979      	ldr	r1, [r7, #20]
 8004390:	430b      	orrs	r3, r1
 8004392:	6013      	str	r3, [r2, #0]

  /*-------------------------- USART CR2 Configuration -----------------------*/
  /* Configure the UART Stop Bits: Set STOP[13:12] bits according
  * to huart->Init.StopBits value */
  MODIFY_REG(huart->Instance->CR2, USART_CR2_STOP, huart->Init.StopBits);
 8004394:	687b      	ldr	r3, [r7, #4]
 8004396:	681b      	ldr	r3, [r3, #0]
 8004398:	685b      	ldr	r3, [r3, #4]
 800439a:	f423 5140 	bic.w	r1, r3, #12288	@ 0x3000
 800439e:	687b      	ldr	r3, [r7, #4]
 80043a0:	68da      	ldr	r2, [r3, #12]
 80043a2:	687b      	ldr	r3, [r7, #4]
 80043a4:	681b      	ldr	r3, [r3, #0]
 80043a6:	430a      	orrs	r2, r1
 80043a8:	605a      	str	r2, [r3, #4]
  /* Configure
  * - UART HardWare Flow Control: set CTSE and RTSE bits according
  *   to huart->Init.HwFlowCtl value
  * - one-bit sampling method versus three samples' majority rule according
  *   to huart->Init.OneBitSampling (not applicable to LPUART) */
  tmpreg = (uint32_t)huart->Init.HwFlowCtl;
 80043aa:	687b      	ldr	r3, [r7, #4]
 80043ac:	699b      	ldr	r3, [r3, #24]
 80043ae:	617b      	str	r3, [r7, #20]

  tmpreg |= huart->Init.OneBitSampling;
 80043b0:	687b      	ldr	r3, [r7, #4]
 80043b2:	6a1b      	ldr	r3, [r3, #32]
 80043b4:	697a      	ldr	r2, [r7, #20]
 80043b6:	4313      	orrs	r3, r2
 80043b8:	617b      	str	r3, [r7, #20]
  MODIFY_REG(huart->Instance->CR3, USART_CR3_FIELDS, tmpreg);
 80043ba:	687b      	ldr	r3, [r7, #4]
 80043bc:	681b      	ldr	r3, [r3, #0]
 80043be:	689b      	ldr	r3, [r3, #8]
 80043c0:	f423 6130 	bic.w	r1, r3, #2816	@ 0xb00
 80043c4:	687b      	ldr	r3, [r7, #4]
 80043c6:	681b      	ldr	r3, [r3, #0]
 80043c8:	697a      	ldr	r2, [r7, #20]
 80043ca:	430a      	orrs	r2, r1
 80043cc:	609a      	str	r2, [r3, #8]


  /*-------------------------- USART BRR Configuration -----------------------*/
  UART_GETCLOCKSOURCE(huart, clocksource);
 80043ce:	687b      	ldr	r3, [r7, #4]
 80043d0:	681b      	ldr	r3, [r3, #0]
 80043d2:	4a94      	ldr	r2, [pc, #592]	@ (8004624 <UART_SetConfig+0x2c8>)
 80043d4:	4293      	cmp	r3, r2
 80043d6:	d120      	bne.n	800441a <UART_SetConfig+0xbe>
 80043d8:	4b93      	ldr	r3, [pc, #588]	@ (8004628 <UART_SetConfig+0x2cc>)
 80043da:	f8d3 3090 	ldr.w	r3, [r3, #144]	@ 0x90
 80043de:	f003 0303 	and.w	r3, r3, #3
 80043e2:	2b03      	cmp	r3, #3
 80043e4:	d816      	bhi.n	8004414 <UART_SetConfig+0xb8>
 80043e6:	a201      	add	r2, pc, #4	@ (adr r2, 80043ec <UART_SetConfig+0x90>)
 80043e8:	f852 f023 	ldr.w	pc, [r2, r3, lsl #2]
 80043ec:	080043fd 	.word	0x080043fd
 80043f0:	08004409 	.word	0x08004409
 80043f4:	08004403 	.word	0x08004403
 80043f8:	0800440f 	.word	0x0800440f
 80043fc:	2301      	movs	r3, #1
 80043fe:	77fb      	strb	r3, [r7, #31]
 8004400:	e150      	b.n	80046a4 <UART_SetConfig+0x348>
 8004402:	2302      	movs	r3, #2
 8004404:	77fb      	strb	r3, [r7, #31]
 8004406:	e14d      	b.n	80046a4 <UART_SetConfig+0x348>
 8004408:	2304      	movs	r3, #4
 800440a:	77fb      	strb	r3, [r7, #31]
 800440c:	e14a      	b.n	80046a4 <UART_SetConfig+0x348>
 800440e:	2308      	movs	r3, #8
 8004410:	77fb      	strb	r3, [r7, #31]
 8004412:	e147      	b.n	80046a4 <UART_SetConfig+0x348>
 8004414:	2310      	movs	r3, #16
 8004416:	77fb      	strb	r3, [r7, #31]
 8004418:	e144      	b.n	80046a4 <UART_SetConfig+0x348>
 800441a:	687b      	ldr	r3, [r7, #4]
 800441c:	681b      	ldr	r3, [r3, #0]
 800441e:	4a83      	ldr	r2, [pc, #524]	@ (800462c <UART_SetConfig+0x2d0>)
 8004420:	4293      	cmp	r3, r2
 8004422:	d132      	bne.n	800448a <UART_SetConfig+0x12e>
 8004424:	4b80      	ldr	r3, [pc, #512]	@ (8004628 <UART_SetConfig+0x2cc>)
 8004426:	f8d3 3090 	ldr.w	r3, [r3, #144]	@ 0x90
 800442a:	f003 030c 	and.w	r3, r3, #12
 800442e:	2b0c      	cmp	r3, #12
 8004430:	d828      	bhi.n	8004484 <UART_SetConfig+0x128>
 8004432:	a201      	add	r2, pc, #4	@ (adr r2, 8004438 <UART_SetConfig+0xdc>)
 8004434:	f852 f023 	ldr.w	pc, [r2, r3, lsl #2]
 8004438:	0800446d 	.word	0x0800446d
 800443c:	08004485 	.word	0x08004485
 8004440:	08004485 	.word	0x08004485
 8004444:	08004485 	.word	0x08004485
 8004448:	08004479 	.word	0x08004479
 800444c:	08004485 	.word	0x08004485
 8004450:	08004485 	.word	0x08004485
 8004454:	08004485 	.word	0x08004485
 8004458:	08004473 	.word	0x08004473
 800445c:	08004485 	.word	0x08004485
 8004460:	08004485 	.word	0x08004485
 8004464:	08004485 	.word	0x08004485
 8004468:	0800447f 	.word	0x0800447f
 800446c:	2300      	movs	r3, #0
 800446e:	77fb      	strb	r3, [r7, #31]
 8004470:	e118      	b.n	80046a4 <UART_SetConfig+0x348>
 8004472:	2302      	movs	r3, #2
 8004474:	77fb      	strb	r3, [r7, #31]
 8004476:	e115      	b.n	80046a4 <UART_SetConfig+0x348>
 8004478:	2304      	movs	r3, #4
 800447a:	77fb      	strb	r3, [r7, #31]
 800447c:	e112      	b.n	80046a4 <UART_SetConfig+0x348>
 800447e:	2308      	movs	r3, #8
 8004480:	77fb      	strb	r3, [r7, #31]
 8004482:	e10f      	b.n	80046a4 <UART_SetConfig+0x348>
 8004484:	2310      	movs	r3, #16
 8004486:	77fb      	strb	r3, [r7, #31]
 8004488:	e10c      	b.n	80046a4 <UART_SetConfig+0x348>
 800448a:	687b      	ldr	r3, [r7, #4]
 800448c:	681b      	ldr	r3, [r3, #0]
 800448e:	4a68      	ldr	r2, [pc, #416]	@ (8004630 <UART_SetConfig+0x2d4>)
 8004490:	4293      	cmp	r3, r2
 8004492:	d120      	bne.n	80044d6 <UART_SetConfig+0x17a>
 8004494:	4b64      	ldr	r3, [pc, #400]	@ (8004628 <UART_SetConfig+0x2cc>)
 8004496:	f8d3 3090 	ldr.w	r3, [r3, #144]	@ 0x90
 800449a:	f003 0330 	and.w	r3, r3, #48	@ 0x30
 800449e:	2b30      	cmp	r3, #48	@ 0x30
 80044a0:	d013      	beq.n	80044ca <UART_SetConfig+0x16e>
 80044a2:	2b30      	cmp	r3, #48	@ 0x30
 80044a4:	d814      	bhi.n	80044d0 <UART_SetConfig+0x174>
 80044a6:	2b20      	cmp	r3, #32
 80044a8:	d009      	beq.n	80044be <UART_SetConfig+0x162>
 80044aa:	2b20      	cmp	r3, #32
 80044ac:	d810      	bhi.n	80044d0 <UART_SetConfig+0x174>
 80044ae:	2b00      	cmp	r3, #0
 80044b0:	d002      	beq.n	80044b8 <UART_SetConfig+0x15c>
 80044b2:	2b10      	cmp	r3, #16
 80044b4:	d006      	beq.n	80044c4 <UART_SetConfig+0x168>
 80044b6:	e00b      	b.n	80044d0 <UART_SetConfig+0x174>
 80044b8:	2300      	movs	r3, #0
 80044ba:	77fb      	strb	r3, [r7, #31]
 80044bc:	e0f2      	b.n	80046a4 <UART_SetConfig+0x348>
 80044be:	2302      	movs	r3, #2
 80044c0:	77fb      	strb	r3, [r7, #31]
 80044c2:	e0ef      	b.n	80046a4 <UART_SetConfig+0x348>
 80044c4:	2304      	movs	r3, #4
 80044c6:	77fb      	strb	r3, [r7, #31]
 80044c8:	e0ec      	b.n	80046a4 <UART_SetConfig+0x348>
 80044ca:	2308      	movs	r3, #8
 80044cc:	77fb      	strb	r3, [r7, #31]
 80044ce:	e0e9      	b.n	80046a4 <UART_SetConfig+0x348>
 80044d0:	2310      	movs	r3, #16
 80044d2:	77fb      	strb	r3, [r7, #31]
 80044d4:	e0e6      	b.n	80046a4 <UART_SetConfig+0x348>
 80044d6:	687b      	ldr	r3, [r7, #4]
 80044d8:	681b      	ldr	r3, [r3, #0]
 80044da:	4a56      	ldr	r2, [pc, #344]	@ (8004634 <UART_SetConfig+0x2d8>)
 80044dc:	4293      	cmp	r3, r2
 80044de:	d120      	bne.n	8004522 <UART_SetConfig+0x1c6>
 80044e0:	4b51      	ldr	r3, [pc, #324]	@ (8004628 <UART_SetConfig+0x2cc>)
 80044e2:	f8d3 3090 	ldr.w	r3, [r3, #144]	@ 0x90
 80044e6:	f003 03c0 	and.w	r3, r3, #192	@ 0xc0
 80044ea:	2bc0      	cmp	r3, #192	@ 0xc0
 80044ec:	d013      	beq.n	8004516 <UART_SetConfig+0x1ba>
 80044ee:	2bc0      	cmp	r3, #192	@ 0xc0
 80044f0:	d814      	bhi.n	800451c <UART_SetConfig+0x1c0>
 80044f2:	2b80      	cmp	r3, #128	@ 0x80
 80044f4:	d009      	beq.n	800450a <UART_SetConfig+0x1ae>
 80044f6:	2b80      	cmp	r3, #128	@ 0x80
 80044f8:	d810      	bhi.n	800451c <UART_SetConfig+0x1c0>
 80044fa:	2b00      	cmp	r3, #0
 80044fc:	d002      	beq.n	8004504 <UART_SetConfig+0x1a8>
 80044fe:	2b40      	cmp	r3, #64	@ 0x40
 8004500:	d006      	beq.n	8004510 <UART_SetConfig+0x1b4>
 8004502:	e00b      	b.n	800451c <UART_SetConfig+0x1c0>
 8004504:	2300      	movs	r3, #0
 8004506:	77fb      	strb	r3, [r7, #31]
 8004508:	e0cc      	b.n	80046a4 <UART_SetConfig+0x348>
 800450a:	2302      	movs	r3, #2
 800450c:	77fb      	strb	r3, [r7, #31]
 800450e:	e0c9      	b.n	80046a4 <UART_SetConfig+0x348>
 8004510:	2304      	movs	r3, #4
 8004512:	77fb      	strb	r3, [r7, #31]
 8004514:	e0c6      	b.n	80046a4 <UART_SetConfig+0x348>
 8004516:	2308      	movs	r3, #8
 8004518:	77fb      	strb	r3, [r7, #31]
 800451a:	e0c3      	b.n	80046a4 <UART_SetConfig+0x348>
 800451c:	2310      	movs	r3, #16
 800451e:	77fb      	strb	r3, [r7, #31]
 8004520:	e0c0      	b.n	80046a4 <UART_SetConfig+0x348>
 8004522:	687b      	ldr	r3, [r7, #4]
 8004524:	681b      	ldr	r3, [r3, #0]
 8004526:	4a44      	ldr	r2, [pc, #272]	@ (8004638 <UART_SetConfig+0x2dc>)
 8004528:	4293      	cmp	r3, r2
 800452a:	d125      	bne.n	8004578 <UART_SetConfig+0x21c>
 800452c:	4b3e      	ldr	r3, [pc, #248]	@ (8004628 <UART_SetConfig+0x2cc>)
 800452e:	f8d3 3090 	ldr.w	r3, [r3, #144]	@ 0x90
 8004532:	f403 7340 	and.w	r3, r3, #768	@ 0x300
 8004536:	f5b3 7f40 	cmp.w	r3, #768	@ 0x300
 800453a:	d017      	beq.n	800456c <UART_SetConfig+0x210>
 800453c:	f5b3 7f40 	cmp.w	r3, #768	@ 0x300
 8004540:	d817      	bhi.n	8004572 <UART_SetConfig+0x216>
 8004542:	f5b3 7f00 	cmp.w	r3, #512	@ 0x200
 8004546:	d00b      	beq.n	8004560 <UART_SetConfig+0x204>
 8004548:	f5b3 7f00 	cmp.w	r3, #512	@ 0x200
 800454c:	d811      	bhi.n	8004572 <UART_SetConfig+0x216>
 800454e:	2b00      	cmp	r3, #0
 8004550:	d003      	beq.n	800455a <UART_SetConfig+0x1fe>
 8004552:	f5b3 7f80 	cmp.w	r3, #256	@ 0x100
 8004556:	d006      	beq.n	8004566 <UART_SetConfig+0x20a>
 8004558:	e00b      	b.n	8004572 <UART_SetConfig+0x216>
 800455a:	2300      	movs	r3, #0
 800455c:	77fb      	strb	r3, [r7, #31]
 800455e:	e0a1      	b.n	80046a4 <UART_SetConfig+0x348>
 8004560:	2302      	movs	r3, #2
 8004562:	77fb      	strb	r3, [r7, #31]
 8004564:	e09e      	b.n	80046a4 <UART_SetConfig+0x348>
 8004566:	2304      	movs	r3, #4
 8004568:	77fb      	strb	r3, [r7, #31]
 800456a:	e09b      	b.n	80046a4 <UART_SetConfig+0x348>
 800456c:	2308      	movs	r3, #8
 800456e:	77fb      	strb	r3, [r7, #31]
 8004570:	e098      	b.n	80046a4 <UART_SetConfig+0x348>
 8004572:	2310      	movs	r3, #16
 8004574:	77fb      	strb	r3, [r7, #31]
 8004576:	e095      	b.n	80046a4 <UART_SetConfig+0x348>
 8004578:	687b      	ldr	r3, [r7, #4]
 800457a:	681b      	ldr	r3, [r3, #0]
 800457c:	4a2f      	ldr	r2, [pc, #188]	@ (800463c <UART_SetConfig+0x2e0>)
 800457e:	4293      	cmp	r3, r2
 8004580:	d125      	bne.n	80045ce <UART_SetConfig+0x272>
 8004582:	4b29      	ldr	r3, [pc, #164]	@ (8004628 <UART_SetConfig+0x2cc>)
 8004584:	f8d3 3090 	ldr.w	r3, [r3, #144]	@ 0x90
 8004588:	f403 6340 	and.w	r3, r3, #3072	@ 0xc00
 800458c:	f5b3 6f40 	cmp.w	r3, #3072	@ 0xc00
 8004590:	d017      	beq.n	80045c2 <UART_SetConfig+0x266>
 8004592:	f5b3 6f40 	cmp.w	r3, #3072	@ 0xc00
 8004596:	d817      	bhi.n	80045c8 <UART_SetConfig+0x26c>
 8004598:	f5b3 6f00 	cmp.w	r3, #2048	@ 0x800
 800459c:	d00b      	beq.n	80045b6 <UART_SetConfig+0x25a>
 800459e:	f5b3 6f00 	cmp.w	r3, #2048	@ 0x800
 80045a2:	d811      	bhi.n	80045c8 <UART_SetConfig+0x26c>
 80045a4:	2b00      	cmp	r3, #0
 80045a6:	d003      	beq.n	80045b0 <UART_SetConfig+0x254>
 80045a8:	f5b3 6f80 	cmp.w	r3, #1024	@ 0x400
 80045ac:	d006      	beq.n	80045bc <UART_SetConfig+0x260>
 80045ae:	e00b      	b.n	80045c8 <UART_SetConfig+0x26c>
 80045b0:	2301      	movs	r3, #1
 80045b2:	77fb      	strb	r3, [r7, #31]
 80045b4:	e076      	b.n	80046a4 <UART_SetConfig+0x348>
 80045b6:	2302      	movs	r3, #2
 80045b8:	77fb      	strb	r3, [r7, #31]
 80045ba:	e073      	b.n	80046a4 <UART_SetConfig+0x348>
 80045bc:	2304      	movs	r3, #4
 80045be:	77fb      	strb	r3, [r7, #31]
 80045c0:	e070      	b.n	80046a4 <UART_SetConfig+0x348>
 80045c2:	2308      	movs	r3, #8
 80045c4:	77fb      	strb	r3, [r7, #31]
 80045c6:	e06d      	b.n	80046a4 <UART_SetConfig+0x348>
 80045c8:	2310      	movs	r3, #16
 80045ca:	77fb      	strb	r3, [r7, #31]
 80045cc:	e06a      	b.n	80046a4 <UART_SetConfig+0x348>
 80045ce:	687b      	ldr	r3, [r7, #4]
 80045d0:	681b      	ldr	r3, [r3, #0]
 80045d2:	4a1b      	ldr	r2, [pc, #108]	@ (8004640 <UART_SetConfig+0x2e4>)
 80045d4:	4293      	cmp	r3, r2
 80045d6:	d138      	bne.n	800464a <UART_SetConfig+0x2ee>
 80045d8:	4b13      	ldr	r3, [pc, #76]	@ (8004628 <UART_SetConfig+0x2cc>)
 80045da:	f8d3 3090 	ldr.w	r3, [r3, #144]	@ 0x90
 80045de:	f403 5340 	and.w	r3, r3, #12288	@ 0x3000
 80045e2:	f5b3 5f40 	cmp.w	r3, #12288	@ 0x3000
 80045e6:	d017      	beq.n	8004618 <UART_SetConfig+0x2bc>
 80045e8:	f5b3 5f40 	cmp.w	r3, #12288	@ 0x3000
 80045ec:	d82a      	bhi.n	8004644 <UART_SetConfig+0x2e8>
 80045ee:	f5b3 5f00 	cmp.w	r3, #8192	@ 0x2000
 80045f2:	d00b      	beq.n	800460c <UART_SetConfig+0x2b0>
 80045f4:	f5b3 5f00 	cmp.w	r3, #8192	@ 0x2000
 80045f8:	d824      	bhi.n	8004644 <UART_SetConfig+0x2e8>
 80045fa:	2b00      	cmp	r3, #0
 80045fc:	d003      	beq.n	8004606 <UART_SetConfig+0x2aa>
 80045fe:	f5b3 5f80 	cmp.w	r3, #4096	@ 0x1000
 8004602:	d006      	beq.n	8004612 <UART_SetConfig+0x2b6>
 8004604:	e01e      	b.n	8004644 <UART_SetConfig+0x2e8>
 8004606:	2300      	movs	r3, #0
 8004608:	77fb      	strb	r3, [r7, #31]
 800460a:	e04b      	b.n	80046a4 <UART_SetConfig+0x348>
 800460c:	2302      	movs	r3, #2
 800460e:	77fb      	strb	r3, [r7, #31]
 8004610:	e048      	b.n	80046a4 <UART_SetConfig+0x348>
 8004612:	2304      	movs	r3, #4
 8004614:	77fb      	strb	r3, [r7, #31]
 8004616:	e045      	b.n	80046a4 <UART_SetConfig+0x348>
 8004618:	2308      	movs	r3, #8
 800461a:	77fb      	strb	r3, [r7, #31]
 800461c:	e042      	b.n	80046a4 <UART_SetConfig+0x348>
 800461e:	bf00      	nop
 8004620:	efff69f3 	.word	0xefff69f3
 8004624:	40011000 	.word	0x40011000
 8004628:	40023800 	.word	0x40023800
 800462c:	40004400 	.word	0x40004400
 8004630:	40004800 	.word	0x40004800
 8004634:	40004c00 	.word	0x40004c00
 8004638:	40005000 	.word	0x40005000
 800463c:	40011400 	.word	0x40011400
 8004640:	40007800 	.word	0x40007800
 8004644:	2310      	movs	r3, #16
 8004646:	77fb      	strb	r3, [r7, #31]
 8004648:	e02c      	b.n	80046a4 <UART_SetConfig+0x348>
 800464a:	687b      	ldr	r3, [r7, #4]
 800464c:	681b      	ldr	r3, [r3, #0]
 800464e:	4a72      	ldr	r2, [pc, #456]	@ (8004818 <UART_SetConfig+0x4bc>)
 8004650:	4293      	cmp	r3, r2
 8004652:	d125      	bne.n	80046a0 <UART_SetConfig+0x344>
 8004654:	4b71      	ldr	r3, [pc, #452]	@ (800481c <UART_SetConfig+0x4c0>)
 8004656:	f8d3 3090 	ldr.w	r3, [r3, #144]	@ 0x90
 800465a:	f403 4340 	and.w	r3, r3, #49152	@ 0xc000
 800465e:	f5b3 4f40 	cmp.w	r3, #49152	@ 0xc000
 8004662:	d017      	beq.n	8004694 <UART_SetConfig+0x338>
 8004664:	f5b3 4f40 	cmp.w	r3, #49152	@ 0xc000
 8004668:	d817      	bhi.n	800469a <UART_SetConfig+0x33e>
 800466a:	f5b3 4f00 	cmp.w	r3, #32768	@ 0x8000
 800466e:	d00b      	beq.n	8004688 <UART_SetConfig+0x32c>
 8004670:	f5b3 4f00 	cmp.w	r3, #32768	@ 0x8000
 8004674:	d811      	bhi.n	800469a <UART_SetConfig+0x33e>
 8004676:	2b00      	cmp	r3, #0
 8004678:	d003      	beq.n	8004682 <UART_SetConfig+0x326>
 800467a:	f5b3 4f80 	cmp.w	r3, #16384	@ 0x4000
 800467e:	d006      	beq.n	800468e <UART_SetConfig+0x332>
 8004680:	e00b      	b.n	800469a <UART_SetConfig+0x33e>
 8004682:	2300      	movs	r3, #0
 8004684:	77fb      	strb	r3, [r7, #31]
 8004686:	e00d      	b.n	80046a4 <UART_SetConfig+0x348>
 8004688:	2302      	movs	r3, #2
 800468a:	77fb      	strb	r3, [r7, #31]
 800468c:	e00a      	b.n	80046a4 <UART_SetConfig+0x348>
 800468e:	2304      	movs	r3, #4
 8004690:	77fb      	strb	r3, [r7, #31]
 8004692:	e007      	b.n	80046a4 <UART_SetConfig+0x348>
 8004694:	2308      	movs	r3, #8
 8004696:	77fb      	strb	r3, [r7, #31]
 8004698:	e004      	b.n	80046a4 <UART_SetConfig+0x348>
 800469a:	2310      	movs	r3, #16
 800469c:	77fb      	strb	r3, [r7, #31]
 800469e:	e001      	b.n	80046a4 <UART_SetConfig+0x348>
 80046a0:	2310      	movs	r3, #16
 80046a2:	77fb      	strb	r3, [r7, #31]

  if (huart->Init.OverSampling == UART_OVERSAMPLING_8)
 80046a4:	687b      	ldr	r3, [r7, #4]
 80046a6:	69db      	ldr	r3, [r3, #28]
 80046a8:	f5b3 4f00 	cmp.w	r3, #32768	@ 0x8000
 80046ac:	d15b      	bne.n	8004766 <UART_SetConfig+0x40a>
  {
    switch (clocksource)
 80046ae:	7ffb      	ldrb	r3, [r7, #31]
 80046b0:	2b08      	cmp	r3, #8
 80046b2:	d828      	bhi.n	8004706 <UART_SetConfig+0x3aa>
 80046b4:	a201      	add	r2, pc, #4	@ (adr r2, 80046bc <UART_SetConfig+0x360>)
 80046b6:	f852 f023 	ldr.w	pc, [r2, r3, lsl #2]
 80046ba:	bf00      	nop
 80046bc:	080046e1 	.word	0x080046e1
 80046c0:	080046e9 	.word	0x080046e9
 80046c4:	080046f1 	.word	0x080046f1
 80046c8:	08004707 	.word	0x08004707
 80046cc:	080046f7 	.word	0x080046f7
 80046d0:	08004707 	.word	0x08004707
 80046d4:	08004707 	.word	0x08004707
 80046d8:	08004707 	.word	0x08004707
 80046dc:	080046ff 	.word	0x080046ff
    {
      case UART_CLOCKSOURCE_PCLK1:
        pclk = HAL_RCC_GetPCLK1Freq();
 80046e0:	f7fe fb4e 	bl	8002d80 <HAL_RCC_GetPCLK1Freq>
 80046e4:	61b8      	str	r0, [r7, #24]
        break;
 80046e6:	e013      	b.n	8004710 <UART_SetConfig+0x3b4>
      case UART_CLOCKSOURCE_PCLK2:
        pclk = HAL_RCC_GetPCLK2Freq();
 80046e8:	f7fe fb5e 	bl	8002da8 <HAL_RCC_GetPCLK2Freq>
 80046ec:	61b8      	str	r0, [r7, #24]
        break;
 80046ee:	e00f      	b.n	8004710 <UART_SetConfig+0x3b4>
      case UART_CLOCKSOURCE_HSI:
        pclk = (uint32_t) HSI_VALUE;
 80046f0:	4b4b      	ldr	r3, [pc, #300]	@ (8004820 <UART_SetConfig+0x4c4>)
 80046f2:	61bb      	str	r3, [r7, #24]
        break;
 80046f4:	e00c      	b.n	8004710 <UART_SetConfig+0x3b4>
      case UART_CLOCKSOURCE_SYSCLK:
        pclk = HAL_RCC_GetSysClockFreq();
 80046f6:	f7fe fa71 	bl	8002bdc <HAL_RCC_GetSysClockFreq>
 80046fa:	61b8      	str	r0, [r7, #24]
        break;
 80046fc:	e008      	b.n	8004710 <UART_SetConfig+0x3b4>
      case UART_CLOCKSOURCE_LSE:
        pclk = (uint32_t) LSE_VALUE;
 80046fe:	f44f 4300 	mov.w	r3, #32768	@ 0x8000
 8004702:	61bb      	str	r3, [r7, #24]
        break;
 8004704:	e004      	b.n	8004710 <UART_SetConfig+0x3b4>
      default:
        pclk = 0U;
 8004706:	2300      	movs	r3, #0
 8004708:	61bb      	str	r3, [r7, #24]
        ret = HAL_ERROR;
 800470a:	2301      	movs	r3, #1
 800470c:	77bb      	strb	r3, [r7, #30]
        break;
 800470e:	bf00      	nop
    }

    /* USARTDIV must be greater than or equal to 0d16 */
    if (pclk != 0U)
 8004710:	69bb      	ldr	r3, [r7, #24]
 8004712:	2b00      	cmp	r3, #0
 8004714:	d074      	beq.n	8004800 <UART_SetConfig+0x4a4>
    {
      usartdiv = (uint32_t)(UART_DIV_SAMPLING8(pclk, huart->Init.BaudRate));
 8004716:	69bb      	ldr	r3, [r7, #24]
 8004718:	005a      	lsls	r2, r3, #1
 800471a:	687b      	ldr	r3, [r7, #4]
 800471c:	685b      	ldr	r3, [r3, #4]
 800471e:	085b      	lsrs	r3, r3, #1
 8004720:	441a      	add	r2, r3
 8004722:	687b      	ldr	r3, [r7, #4]
 8004724:	685b      	ldr	r3, [r3, #4]
 8004726:	fbb2 f3f3 	udiv	r3, r2, r3
 800472a:	613b      	str	r3, [r7, #16]
      if ((usartdiv >= UART_BRR_MIN) && (usartdiv <= UART_BRR_MAX))
 800472c:	693b      	ldr	r3, [r7, #16]
 800472e:	2b0f      	cmp	r3, #15
 8004730:	d916      	bls.n	8004760 <UART_SetConfig+0x404>
 8004732:	693b      	ldr	r3, [r7, #16]
 8004734:	f5b3 3f80 	cmp.w	r3, #65536	@ 0x10000
 8004738:	d212      	bcs.n	8004760 <UART_SetConfig+0x404>
      {
        brrtemp = (uint16_t)(usartdiv & 0xFFF0U);
 800473a:	693b      	ldr	r3, [r7, #16]
 800473c:	b29b      	uxth	r3, r3
 800473e:	f023 030f 	bic.w	r3, r3, #15
 8004742:	81fb      	strh	r3, [r7, #14]
        brrtemp |= (uint16_t)((usartdiv & (uint16_t)0x000FU) >> 1U);
 8004744:	693b      	ldr	r3, [r7, #16]
 8004746:	085b      	lsrs	r3, r3, #1
 8004748:	b29b      	uxth	r3, r3
 800474a:	f003 0307 	and.w	r3, r3, #7
 800474e:	b29a      	uxth	r2, r3
 8004750:	89fb      	ldrh	r3, [r7, #14]
 8004752:	4313      	orrs	r3, r2
 8004754:	81fb      	strh	r3, [r7, #14]
        huart->Instance->BRR = brrtemp;
 8004756:	687b      	ldr	r3, [r7, #4]
 8004758:	681b      	ldr	r3, [r3, #0]
 800475a:	89fa      	ldrh	r2, [r7, #14]
 800475c:	60da      	str	r2, [r3, #12]
 800475e:	e04f      	b.n	8004800 <UART_SetConfig+0x4a4>
      }
      else
      {
        ret = HAL_ERROR;
 8004760:	2301      	movs	r3, #1
 8004762:	77bb      	strb	r3, [r7, #30]
 8004764:	e04c      	b.n	8004800 <UART_SetConfig+0x4a4>
      }
    }
  }
  else
  {
    switch (clocksource)
 8004766:	7ffb      	ldrb	r3, [r7, #31]
 8004768:	2b08      	cmp	r3, #8
 800476a:	d828      	bhi.n	80047be <UART_SetConfig+0x462>
 800476c:	a201      	add	r2, pc, #4	@ (adr r2, 8004774 <UART_SetConfig+0x418>)
 800476e:	f852 f023 	ldr.w	pc, [r2, r3, lsl #2]
 8004772:	bf00      	nop
 8004774:	08004799 	.word	0x08004799
 8004778:	080047a1 	.word	0x080047a1
 800477c:	080047a9 	.word	0x080047a9
 8004780:	080047bf 	.word	0x080047bf
 8004784:	080047af 	.word	0x080047af
 8004788:	080047bf 	.word	0x080047bf
 800478c:	080047bf 	.word	0x080047bf
 8004790:	080047bf 	.word	0x080047bf
 8004794:	080047b7 	.word	0x080047b7
    {
      case UART_CLOCKSOURCE_PCLK1:
        pclk = HAL_RCC_GetPCLK1Freq();
 8004798:	f7fe faf2 	bl	8002d80 <HAL_RCC_GetPCLK1Freq>
 800479c:	61b8      	str	r0, [r7, #24]
        break;
 800479e:	e013      	b.n	80047c8 <UART_SetConfig+0x46c>
      case UART_CLOCKSOURCE_PCLK2:
        pclk = HAL_RCC_GetPCLK2Freq();
 80047a0:	f7fe fb02 	bl	8002da8 <HAL_RCC_GetPCLK2Freq>
 80047a4:	61b8      	str	r0, [r7, #24]
        break;
 80047a6:	e00f      	b.n	80047c8 <UART_SetConfig+0x46c>
      case UART_CLOCKSOURCE_HSI:
        pclk = (uint32_t) HSI_VALUE;
 80047a8:	4b1d      	ldr	r3, [pc, #116]	@ (8004820 <UART_SetConfig+0x4c4>)
 80047aa:	61bb      	str	r3, [r7, #24]
        break;
 80047ac:	e00c      	b.n	80047c8 <UART_SetConfig+0x46c>
      case UART_CLOCKSOURCE_SYSCLK:
        pclk = HAL_RCC_GetSysClockFreq();
 80047ae:	f7fe fa15 	bl	8002bdc <HAL_RCC_GetSysClockFreq>
 80047b2:	61b8      	str	r0, [r7, #24]
        break;
 80047b4:	e008      	b.n	80047c8 <UART_SetConfig+0x46c>
      case UART_CLOCKSOURCE_LSE:
        pclk = (uint32_t) LSE_VALUE;
 80047b6:	f44f 4300 	mov.w	r3, #32768	@ 0x8000
 80047ba:	61bb      	str	r3, [r7, #24]
        break;
 80047bc:	e004      	b.n	80047c8 <UART_SetConfig+0x46c>
      default:
        pclk = 0U;
 80047be:	2300      	movs	r3, #0
 80047c0:	61bb      	str	r3, [r7, #24]
        ret = HAL_ERROR;
 80047c2:	2301      	movs	r3, #1
 80047c4:	77bb      	strb	r3, [r7, #30]
        break;
 80047c6:	bf00      	nop
    }

    if (pclk != 0U)
 80047c8:	69bb      	ldr	r3, [r7, #24]
 80047ca:	2b00      	cmp	r3, #0
 80047cc:	d018      	beq.n	8004800 <UART_SetConfig+0x4a4>
    {
      /* USARTDIV must be greater than or equal to 0d16 */
      usartdiv = (uint32_t)(UART_DIV_SAMPLING16(pclk, huart->Init.BaudRate));
 80047ce:	687b      	ldr	r3, [r7, #4]
 80047d0:	685b      	ldr	r3, [r3, #4]
 80047d2:	085a      	lsrs	r2, r3, #1
 80047d4:	69bb      	ldr	r3, [r7, #24]
 80047d6:	441a      	add	r2, r3
 80047d8:	687b      	ldr	r3, [r7, #4]
 80047da:	685b      	ldr	r3, [r3, #4]
 80047dc:	fbb2 f3f3 	udiv	r3, r2, r3
 80047e0:	613b      	str	r3, [r7, #16]
      if ((usartdiv >= UART_BRR_MIN) && (usartdiv <= UART_BRR_MAX))
 80047e2:	693b      	ldr	r3, [r7, #16]
 80047e4:	2b0f      	cmp	r3, #15
 80047e6:	d909      	bls.n	80047fc <UART_SetConfig+0x4a0>
 80047e8:	693b      	ldr	r3, [r7, #16]
 80047ea:	f5b3 3f80 	cmp.w	r3, #65536	@ 0x10000
 80047ee:	d205      	bcs.n	80047fc <UART_SetConfig+0x4a0>
      {
        huart->Instance->BRR = (uint16_t)usartdiv;
 80047f0:	693b      	ldr	r3, [r7, #16]
 80047f2:	b29a      	uxth	r2, r3
 80047f4:	687b      	ldr	r3, [r7, #4]
 80047f6:	681b      	ldr	r3, [r3, #0]
 80047f8:	60da      	str	r2, [r3, #12]
 80047fa:	e001      	b.n	8004800 <UART_SetConfig+0x4a4>
      }
      else
      {
        ret = HAL_ERROR;
 80047fc:	2301      	movs	r3, #1
 80047fe:	77bb      	strb	r3, [r7, #30]
    }
  }


  /* Clear ISR function pointers */
  huart->RxISR = NULL;
 8004800:	687b      	ldr	r3, [r7, #4]
 8004802:	2200      	movs	r2, #0
 8004804:	669a      	str	r2, [r3, #104]	@ 0x68
  huart->TxISR = NULL;
 8004806:	687b      	ldr	r3, [r7, #4]
 8004808:	2200      	movs	r2, #0
 800480a:	66da      	str	r2, [r3, #108]	@ 0x6c

  return ret;
 800480c:	7fbb      	ldrb	r3, [r7, #30]
}
 800480e:	4618      	mov	r0, r3
 8004810:	3720      	adds	r7, #32
 8004812:	46bd      	mov	sp, r7
 8004814:	bd80      	pop	{r7, pc}
 8004816:	bf00      	nop
 8004818:	40007c00 	.word	0x40007c00
 800481c:	40023800 	.word	0x40023800
 8004820:	00f42400 	.word	0x00f42400

08004824 <UART_AdvFeatureConfig>:
  * @brief Configure the UART peripheral advanced features.
  * @param huart UART handle.
  * @retval None
  */
void UART_AdvFeatureConfig(UART_HandleTypeDef *huart)
{
 8004824:	b480      	push	{r7}
 8004826:	b083      	sub	sp, #12
 8004828:	af00      	add	r7, sp, #0
 800482a:	6078      	str	r0, [r7, #4]
  /* Check whether the set of advanced features to configure is properly set */
  assert_param(IS_UART_ADVFEATURE_INIT(huart->AdvancedInit.AdvFeatureInit));

  /* if required, configure TX pin active level inversion */
  if (HAL_IS_BIT_SET(huart->AdvancedInit.AdvFeatureInit, UART_ADVFEATURE_TXINVERT_INIT))
 800482c:	687b      	ldr	r3, [r7, #4]
 800482e:	6a5b      	ldr	r3, [r3, #36]	@ 0x24
 8004830:	f003 0301 	and.w	r3, r3, #1
 8004834:	2b00      	cmp	r3, #0
 8004836:	d00a      	beq.n	800484e <UART_AdvFeatureConfig+0x2a>
  {
    assert_param(IS_UART_ADVFEATURE_TXINV(huart->AdvancedInit.TxPinLevelInvert));
    MODIFY_REG(huart->Instance->CR2, USART_CR2_TXINV, huart->AdvancedInit.TxPinLevelInvert);
 8004838:	687b      	ldr	r3, [r7, #4]
 800483a:	681b      	ldr	r3, [r3, #0]
 800483c:	685b      	ldr	r3, [r3, #4]
 800483e:	f423 3100 	bic.w	r1, r3, #131072	@ 0x20000
 8004842:	687b      	ldr	r3, [r7, #4]
 8004844:	6a9a      	ldr	r2, [r3, #40]	@ 0x28
 8004846:	687b      	ldr	r3, [r7, #4]
 8004848:	681b      	ldr	r3, [r3, #0]
 800484a:	430a      	orrs	r2, r1
 800484c:	605a      	str	r2, [r3, #4]
  }

  /* if required, configure RX pin active level inversion */
  if (HAL_IS_BIT_SET(huart->AdvancedInit.AdvFeatureInit, UART_ADVFEATURE_RXINVERT_INIT))
 800484e:	687b      	ldr	r3, [r7, #4]
 8004850:	6a5b      	ldr	r3, [r3, #36]	@ 0x24
 8004852:	f003 0302 	and.w	r3, r3, #2
 8004856:	2b00      	cmp	r3, #0
 8004858:	d00a      	beq.n	8004870 <UART_AdvFeatureConfig+0x4c>
  {
    assert_param(IS_UART_ADVFEATURE_RXINV(huart->AdvancedInit.RxPinLevelInvert));
    MODIFY_REG(huart->Instance->CR2, USART_CR2_RXINV, huart->AdvancedInit.RxPinLevelInvert);
 800485a:	687b      	ldr	r3, [r7, #4]
 800485c:	681b      	ldr	r3, [r3, #0]
 800485e:	685b      	ldr	r3, [r3, #4]
 8004860:	f423 3180 	bic.w	r1, r3, #65536	@ 0x10000
 8004864:	687b      	ldr	r3, [r7, #4]
 8004866:	6ada      	ldr	r2, [r3, #44]	@ 0x2c
 8004868:	687b      	ldr	r3, [r7, #4]
 800486a:	681b      	ldr	r3, [r3, #0]
 800486c:	430a      	orrs	r2, r1
 800486e:	605a      	str	r2, [r3, #4]
  }

  /* if required, configure data inversion */
  if (HAL_IS_BIT_SET(huart->AdvancedInit.AdvFeatureInit, UART_ADVFEATURE_DATAINVERT_INIT))
 8004870:	687b      	ldr	r3, [r7, #4]
 8004872:	6a5b      	ldr	r3, [r3, #36]	@ 0x24
 8004874:	f003 0304 	and.w	r3, r3, #4
 8004878:	2b00      	cmp	r3, #0
 800487a:	d00a      	beq.n	8004892 <UART_AdvFeatureConfig+0x6e>
  {
    assert_param(IS_UART_ADVFEATURE_DATAINV(huart->AdvancedInit.DataInvert));
    MODIFY_REG(huart->Instance->CR2, USART_CR2_DATAINV, huart->AdvancedInit.DataInvert);
 800487c:	687b      	ldr	r3, [r7, #4]
 800487e:	681b      	ldr	r3, [r3, #0]
 8004880:	685b      	ldr	r3, [r3, #4]
 8004882:	f423 2180 	bic.w	r1, r3, #262144	@ 0x40000
 8004886:	687b      	ldr	r3, [r7, #4]
 8004888:	6b1a      	ldr	r2, [r3, #48]	@ 0x30
 800488a:	687b      	ldr	r3, [r7, #4]
 800488c:	681b      	ldr	r3, [r3, #0]
 800488e:	430a      	orrs	r2, r1
 8004890:	605a      	str	r2, [r3, #4]
  }

  /* if required, configure RX/TX pins swap */
  if (HAL_IS_BIT_SET(huart->AdvancedInit.AdvFeatureInit, UART_ADVFEATURE_SWAP_INIT))
 8004892:	687b      	ldr	r3, [r7, #4]
 8004894:	6a5b      	ldr	r3, [r3, #36]	@ 0x24
 8004896:	f003 0308 	and.w	r3, r3, #8
 800489a:	2b00      	cmp	r3, #0
 800489c:	d00a      	beq.n	80048b4 <UART_AdvFeatureConfig+0x90>
  {
    assert_param(IS_UART_ADVFEATURE_SWAP(huart->AdvancedInit.Swap));
    MODIFY_REG(huart->Instance->CR2, USART_CR2_SWAP, huart->AdvancedInit.Swap);
 800489e:	687b      	ldr	r3, [r7, #4]
 80048a0:	681b      	ldr	r3, [r3, #0]
 80048a2:	685b      	ldr	r3, [r3, #4]
 80048a4:	f423 4100 	bic.w	r1, r3, #32768	@ 0x8000
 80048a8:	687b      	ldr	r3, [r7, #4]
 80048aa:	6b5a      	ldr	r2, [r3, #52]	@ 0x34
 80048ac:	687b      	ldr	r3, [r7, #4]
 80048ae:	681b      	ldr	r3, [r3, #0]
 80048b0:	430a      	orrs	r2, r1
 80048b2:	605a      	str	r2, [r3, #4]
  }

  /* if required, configure RX overrun detection disabling */
  if (HAL_IS_BIT_SET(huart->AdvancedInit.AdvFeatureInit, UART_ADVFEATURE_RXOVERRUNDISABLE_INIT))
 80048b4:	687b      	ldr	r3, [r7, #4]
 80048b6:	6a5b      	ldr	r3, [r3, #36]	@ 0x24
 80048b8:	f003 0310 	and.w	r3, r3, #16
 80048bc:	2b00      	cmp	r3, #0
 80048be:	d00a      	beq.n	80048d6 <UART_AdvFeatureConfig+0xb2>
  {
    assert_param(IS_UART_OVERRUN(huart->AdvancedInit.OverrunDisable));
    MODIFY_REG(huart->Instance->CR3, USART_CR3_OVRDIS, huart->AdvancedInit.OverrunDisable);
 80048c0:	687b      	ldr	r3, [r7, #4]
 80048c2:	681b      	ldr	r3, [r3, #0]
 80048c4:	689b      	ldr	r3, [r3, #8]
 80048c6:	f423 5180 	bic.w	r1, r3, #4096	@ 0x1000
 80048ca:	687b      	ldr	r3, [r7, #4]
 80048cc:	6b9a      	ldr	r2, [r3, #56]	@ 0x38
 80048ce:	687b      	ldr	r3, [r7, #4]
 80048d0:	681b      	ldr	r3, [r3, #0]
 80048d2:	430a      	orrs	r2, r1
 80048d4:	609a      	str	r2, [r3, #8]
  }

  /* if required, configure DMA disabling on reception error */
  if (HAL_IS_BIT_SET(huart->AdvancedInit.AdvFeatureInit, UART_ADVFEATURE_DMADISABLEONERROR_INIT))
 80048d6:	687b      	ldr	r3, [r7, #4]
 80048d8:	6a5b      	ldr	r3, [r3, #36]	@ 0x24
 80048da:	f003 0320 	and.w	r3, r3, #32
 80048de:	2b00      	cmp	r3, #0
 80048e0:	d00a      	beq.n	80048f8 <UART_AdvFeatureConfig+0xd4>
  {
    assert_param(IS_UART_ADVFEATURE_DMAONRXERROR(huart->AdvancedInit.DMADisableonRxError));
    MODIFY_REG(huart->Instance->CR3, USART_CR3_DDRE, huart->AdvancedInit.DMADisableonRxError);
 80048e2:	687b      	ldr	r3, [r7, #4]
 80048e4:	681b      	ldr	r3, [r3, #0]
 80048e6:	689b      	ldr	r3, [r3, #8]
 80048e8:	f423 5100 	bic.w	r1, r3, #8192	@ 0x2000
 80048ec:	687b      	ldr	r3, [r7, #4]
 80048ee:	6bda      	ldr	r2, [r3, #60]	@ 0x3c
 80048f0:	687b      	ldr	r3, [r7, #4]
 80048f2:	681b      	ldr	r3, [r3, #0]
 80048f4:	430a      	orrs	r2, r1
 80048f6:	609a      	str	r2, [r3, #8]
  }

  /* if required, configure auto Baud rate detection scheme */
  if (HAL_IS_BIT_SET(huart->AdvancedInit.AdvFeatureInit, UART_ADVFEATURE_AUTOBAUDRATE_INIT))
 80048f8:	687b      	ldr	r3, [r7, #4]
 80048fa:	6a5b      	ldr	r3, [r3, #36]	@ 0x24
 80048fc:	f003 0340 	and.w	r3, r3, #64	@ 0x40
 8004900:	2b00      	cmp	r3, #0
 8004902:	d01a      	beq.n	800493a <UART_AdvFeatureConfig+0x116>
  {
    assert_param(IS_USART_AUTOBAUDRATE_DETECTION_INSTANCE(huart->Instance));
    assert_param(IS_UART_ADVFEATURE_AUTOBAUDRATE(huart->AdvancedInit.AutoBaudRateEnable));
    MODIFY_REG(huart->Instance->CR2, USART_CR2_ABREN, huart->AdvancedInit.AutoBaudRateEnable);
 8004904:	687b      	ldr	r3, [r7, #4]
 8004906:	681b      	ldr	r3, [r3, #0]
 8004908:	685b      	ldr	r3, [r3, #4]
 800490a:	f423 1180 	bic.w	r1, r3, #1048576	@ 0x100000
 800490e:	687b      	ldr	r3, [r7, #4]
 8004910:	6c1a      	ldr	r2, [r3, #64]	@ 0x40
 8004912:	687b      	ldr	r3, [r7, #4]
 8004914:	681b      	ldr	r3, [r3, #0]
 8004916:	430a      	orrs	r2, r1
 8004918:	605a      	str	r2, [r3, #4]
    /* set auto Baudrate detection parameters if detection is enabled */
    if (huart->AdvancedInit.AutoBaudRateEnable == UART_ADVFEATURE_AUTOBAUDRATE_ENABLE)
 800491a:	687b      	ldr	r3, [r7, #4]
 800491c:	6c1b      	ldr	r3, [r3, #64]	@ 0x40
 800491e:	f5b3 1f80 	cmp.w	r3, #1048576	@ 0x100000
 8004922:	d10a      	bne.n	800493a <UART_AdvFeatureConfig+0x116>
    {
      assert_param(IS_UART_ADVFEATURE_AUTOBAUDRATEMODE(huart->AdvancedInit.AutoBaudRateMode));
      MODIFY_REG(huart->Instance->CR2, USART_CR2_ABRMODE, huart->AdvancedInit.AutoBaudRateMode);
 8004924:	687b      	ldr	r3, [r7, #4]
 8004926:	681b      	ldr	r3, [r3, #0]
 8004928:	685b      	ldr	r3, [r3, #4]
 800492a:	f423 01c0 	bic.w	r1, r3, #6291456	@ 0x600000
 800492e:	687b      	ldr	r3, [r7, #4]
 8004930:	6c5a      	ldr	r2, [r3, #68]	@ 0x44
 8004932:	687b      	ldr	r3, [r7, #4]
 8004934:	681b      	ldr	r3, [r3, #0]
 8004936:	430a      	orrs	r2, r1
 8004938:	605a      	str	r2, [r3, #4]
    }
  }

  /* if required, configure MSB first on communication line */
  if (HAL_IS_BIT_SET(huart->AdvancedInit.AdvFeatureInit, UART_ADVFEATURE_MSBFIRST_INIT))
 800493a:	687b      	ldr	r3, [r7, #4]
 800493c:	6a5b      	ldr	r3, [r3, #36]	@ 0x24
 800493e:	f003 0380 	and.w	r3, r3, #128	@ 0x80
 8004942:	2b00      	cmp	r3, #0
 8004944:	d00a      	beq.n	800495c <UART_AdvFeatureConfig+0x138>
  {
    assert_param(IS_UART_ADVFEATURE_MSBFIRST(huart->AdvancedInit.MSBFirst));
    MODIFY_REG(huart->Instance->CR2, USART_CR2_MSBFIRST, huart->AdvancedInit.MSBFirst);
 8004946:	687b      	ldr	r3, [r7, #4]
 8004948:	681b      	ldr	r3, [r3, #0]
 800494a:	685b      	ldr	r3, [r3, #4]
 800494c:	f423 2100 	bic.w	r1, r3, #524288	@ 0x80000
 8004950:	687b      	ldr	r3, [r7, #4]
 8004952:	6c9a      	ldr	r2, [r3, #72]	@ 0x48
 8004954:	687b      	ldr	r3, [r7, #4]
 8004956:	681b      	ldr	r3, [r3, #0]
 8004958:	430a      	orrs	r2, r1
 800495a:	605a      	str	r2, [r3, #4]
  }
}
 800495c:	bf00      	nop
 800495e:	370c      	adds	r7, #12
 8004960:	46bd      	mov	sp, r7
 8004962:	f85d 7b04 	ldr.w	r7, [sp], #4
 8004966:	4770      	bx	lr

08004968 <UART_CheckIdleState>:
  * @brief Check the UART Idle State.
  * @param huart UART handle.
  * @retval HAL status
  */
HAL_StatusTypeDef UART_CheckIdleState(UART_HandleTypeDef *huart)
{
 8004968:	b580      	push	{r7, lr}
 800496a:	b086      	sub	sp, #24
 800496c:	af02      	add	r7, sp, #8
 800496e:	6078      	str	r0, [r7, #4]
  uint32_t tickstart;

  /* Initialize the UART ErrorCode */
  huart->ErrorCode = HAL_UART_ERROR_NONE;
 8004970:	687b      	ldr	r3, [r7, #4]
 8004972:	2200      	movs	r2, #0
 8004974:	f8c3 2084 	str.w	r2, [r3, #132]	@ 0x84

  /* Init tickstart for timeout management */
  tickstart = HAL_GetTick();
 8004978:	f7fc fe7c 	bl	8001674 <HAL_GetTick>
 800497c:	60f8      	str	r0, [r7, #12]

  /* Check if the Transmitter is enabled */
  if ((huart->Instance->CR1 & USART_CR1_TE) == USART_CR1_TE)
 800497e:	687b      	ldr	r3, [r7, #4]
 8004980:	681b      	ldr	r3, [r3, #0]
 8004982:	681b      	ldr	r3, [r3, #0]
 8004984:	f003 0308 	and.w	r3, r3, #8
 8004988:	2b08      	cmp	r3, #8
 800498a:	d10e      	bne.n	80049aa <UART_CheckIdleState+0x42>
  {
    /* Wait until TEACK flag is set */
    if (UART_WaitOnFlagUntilTimeout(huart, USART_ISR_TEACK, RESET, tickstart, HAL_UART_TIMEOUT_VALUE) != HAL_OK)
 800498c:	f06f 437e 	mvn.w	r3, #4261412864	@ 0xfe000000
 8004990:	9300      	str	r3, [sp, #0]
 8004992:	68fb      	ldr	r3, [r7, #12]
 8004994:	2200      	movs	r2, #0
 8004996:	f44f 1100 	mov.w	r1, #2097152	@ 0x200000
 800499a:	6878      	ldr	r0, [r7, #4]
 800499c:	f000 f81b 	bl	80049d6 <UART_WaitOnFlagUntilTimeout>
 80049a0:	4603      	mov	r3, r0
 80049a2:	2b00      	cmp	r3, #0
 80049a4:	d001      	beq.n	80049aa <UART_CheckIdleState+0x42>
    {
      /* Timeout occurred */
      return HAL_TIMEOUT;
 80049a6:	2303      	movs	r3, #3
 80049a8:	e011      	b.n	80049ce <UART_CheckIdleState+0x66>
    }
  }
#endif /* USART_ISR_REACK */

  /* Initialize the UART State */
  huart->gState = HAL_UART_STATE_READY;
 80049aa:	687b      	ldr	r3, [r7, #4]
 80049ac:	2220      	movs	r2, #32
 80049ae:	67da      	str	r2, [r3, #124]	@ 0x7c
  huart->RxState = HAL_UART_STATE_READY;
 80049b0:	687b      	ldr	r3, [r7, #4]
 80049b2:	2220      	movs	r2, #32
 80049b4:	f8c3 2080 	str.w	r2, [r3, #128]	@ 0x80
  huart->ReceptionType = HAL_UART_RECEPTION_STANDARD;
 80049b8:	687b      	ldr	r3, [r7, #4]
 80049ba:	2200      	movs	r2, #0
 80049bc:	661a      	str	r2, [r3, #96]	@ 0x60
  huart->RxEventType = HAL_UART_RXEVENT_TC;
 80049be:	687b      	ldr	r3, [r7, #4]
 80049c0:	2200      	movs	r2, #0
 80049c2:	665a      	str	r2, [r3, #100]	@ 0x64

  __HAL_UNLOCK(huart);
 80049c4:	687b      	ldr	r3, [r7, #4]
 80049c6:	2200      	movs	r2, #0
 80049c8:	f883 2078 	strb.w	r2, [r3, #120]	@ 0x78

  return HAL_OK;
 80049cc:	2300      	movs	r3, #0
}
 80049ce:	4618      	mov	r0, r3
 80049d0:	3710      	adds	r7, #16
 80049d2:	46bd      	mov	sp, r7
 80049d4:	bd80      	pop	{r7, pc}

080049d6 <UART_WaitOnFlagUntilTimeout>:
  * @param Timeout   Timeout duration
  * @retval HAL status
  */
HAL_StatusTypeDef UART_WaitOnFlagUntilTimeout(UART_HandleTypeDef *huart, uint32_t Flag, FlagStatus Status,
                                              uint32_t Tickstart, uint32_t Timeout)
{
 80049d6:	b580      	push	{r7, lr}
 80049d8:	b09c      	sub	sp, #112	@ 0x70
 80049da:	af00      	add	r7, sp, #0
 80049dc:	60f8      	str	r0, [r7, #12]
 80049de:	60b9      	str	r1, [r7, #8]
 80049e0:	603b      	str	r3, [r7, #0]
 80049e2:	4613      	mov	r3, r2
 80049e4:	71fb      	strb	r3, [r7, #7]
  /* Wait until flag is set */
  while ((__HAL_UART_GET_FLAG(huart, Flag) ? SET : RESET) == Status)
 80049e6:	e0a7      	b.n	8004b38 <UART_WaitOnFlagUntilTimeout+0x162>
  {
    /* Check for the Timeout */
    if (Timeout != HAL_MAX_DELAY)
 80049e8:	6fbb      	ldr	r3, [r7, #120]	@ 0x78
 80049ea:	f1b3 3fff 	cmp.w	r3, #4294967295
 80049ee:	f000 80a3 	beq.w	8004b38 <UART_WaitOnFlagUntilTimeout+0x162>
    {
      if (((HAL_GetTick() - Tickstart) > Timeout) || (Timeout == 0U))
 80049f2:	f7fc fe3f 	bl	8001674 <HAL_GetTick>
 80049f6:	4602      	mov	r2, r0
 80049f8:	683b      	ldr	r3, [r7, #0]
 80049fa:	1ad3      	subs	r3, r2, r3
 80049fc:	6fba      	ldr	r2, [r7, #120]	@ 0x78
 80049fe:	429a      	cmp	r2, r3
 8004a00:	d302      	bcc.n	8004a08 <UART_WaitOnFlagUntilTimeout+0x32>
 8004a02:	6fbb      	ldr	r3, [r7, #120]	@ 0x78
 8004a04:	2b00      	cmp	r3, #0
 8004a06:	d13f      	bne.n	8004a88 <UART_WaitOnFlagUntilTimeout+0xb2>
      {
        /* Disable TXE, RXNE, PE and ERR (Frame error, noise error, overrun error)
           interrupts for the interrupt process */
        ATOMIC_CLEAR_BIT(huart->Instance->CR1, (USART_CR1_RXNEIE | USART_CR1_PEIE | USART_CR1_TXEIE));
 8004a08:	68fb      	ldr	r3, [r7, #12]
 8004a0a:	681b      	ldr	r3, [r3, #0]
 8004a0c:	653b      	str	r3, [r7, #80]	@ 0x50
   __ASM volatile ("ldrex %0, %1" : "=r" (result) : "Q" (*addr) );
 8004a0e:	6d3b      	ldr	r3, [r7, #80]	@ 0x50
 8004a10:	e853 3f00 	ldrex	r3, [r3]
 8004a14:	64fb      	str	r3, [r7, #76]	@ 0x4c
   return(result);
 8004a16:	6cfb      	ldr	r3, [r7, #76]	@ 0x4c
 8004a18:	f423 73d0 	bic.w	r3, r3, #416	@ 0x1a0
 8004a1c:	667b      	str	r3, [r7, #100]	@ 0x64
 8004a1e:	68fb      	ldr	r3, [r7, #12]
 8004a20:	681b      	ldr	r3, [r3, #0]
 8004a22:	461a      	mov	r2, r3
 8004a24:	6e7b      	ldr	r3, [r7, #100]	@ 0x64
 8004a26:	65fb      	str	r3, [r7, #92]	@ 0x5c
 8004a28:	65ba      	str	r2, [r7, #88]	@ 0x58
   __ASM volatile ("strex %0, %2, %1" : "=&r" (result), "=Q" (*addr) : "r" (value) );
 8004a2a:	6db9      	ldr	r1, [r7, #88]	@ 0x58
 8004a2c:	6dfa      	ldr	r2, [r7, #92]	@ 0x5c
 8004a2e:	e841 2300 	strex	r3, r2, [r1]
 8004a32:	657b      	str	r3, [r7, #84]	@ 0x54
   return(result);
 8004a34:	6d7b      	ldr	r3, [r7, #84]	@ 0x54
 8004a36:	2b00      	cmp	r3, #0
 8004a38:	d1e6      	bne.n	8004a08 <UART_WaitOnFlagUntilTimeout+0x32>
        ATOMIC_CLEAR_BIT(huart->Instance->CR3, USART_CR3_EIE);
 8004a3a:	68fb      	ldr	r3, [r7, #12]
 8004a3c:	681b      	ldr	r3, [r3, #0]
 8004a3e:	3308      	adds	r3, #8
 8004a40:	63fb      	str	r3, [r7, #60]	@ 0x3c
   __ASM volatile ("ldrex %0, %1" : "=r" (result) : "Q" (*addr) );
 8004a42:	6bfb      	ldr	r3, [r7, #60]	@ 0x3c
 8004a44:	e853 3f00 	ldrex	r3, [r3]
 8004a48:	63bb      	str	r3, [r7, #56]	@ 0x38
   return(result);
 8004a4a:	6bbb      	ldr	r3, [r7, #56]	@ 0x38
 8004a4c:	f023 0301 	bic.w	r3, r3, #1
 8004a50:	663b      	str	r3, [r7, #96]	@ 0x60
 8004a52:	68fb      	ldr	r3, [r7, #12]
 8004a54:	681b      	ldr	r3, [r3, #0]
 8004a56:	3308      	adds	r3, #8
 8004a58:	6e3a      	ldr	r2, [r7, #96]	@ 0x60
 8004a5a:	64ba      	str	r2, [r7, #72]	@ 0x48
 8004a5c:	647b      	str	r3, [r7, #68]	@ 0x44
   __ASM volatile ("strex %0, %2, %1" : "=&r" (result), "=Q" (*addr) : "r" (value) );
 8004a5e:	6c79      	ldr	r1, [r7, #68]	@ 0x44
 8004a60:	6cba      	ldr	r2, [r7, #72]	@ 0x48
 8004a62:	e841 2300 	strex	r3, r2, [r1]
 8004a66:	643b      	str	r3, [r7, #64]	@ 0x40
   return(result);
 8004a68:	6c3b      	ldr	r3, [r7, #64]	@ 0x40
 8004a6a:	2b00      	cmp	r3, #0
 8004a6c:	d1e5      	bne.n	8004a3a <UART_WaitOnFlagUntilTimeout+0x64>

        huart->gState = HAL_UART_STATE_READY;
 8004a6e:	68fb      	ldr	r3, [r7, #12]
 8004a70:	2220      	movs	r2, #32
 8004a72:	67da      	str	r2, [r3, #124]	@ 0x7c
        huart->RxState = HAL_UART_STATE_READY;
 8004a74:	68fb      	ldr	r3, [r7, #12]
 8004a76:	2220      	movs	r2, #32
 8004a78:	f8c3 2080 	str.w	r2, [r3, #128]	@ 0x80

        __HAL_UNLOCK(huart);
 8004a7c:	68fb      	ldr	r3, [r7, #12]
 8004a7e:	2200      	movs	r2, #0
 8004a80:	f883 2078 	strb.w	r2, [r3, #120]	@ 0x78

        return HAL_TIMEOUT;
 8004a84:	2303      	movs	r3, #3
 8004a86:	e068      	b.n	8004b5a <UART_WaitOnFlagUntilTimeout+0x184>
      }

      if (READ_BIT(huart->Instance->CR1, USART_CR1_RE) != 0U)
 8004a88:	68fb      	ldr	r3, [r7, #12]
 8004a8a:	681b      	ldr	r3, [r3, #0]
 8004a8c:	681b      	ldr	r3, [r3, #0]
 8004a8e:	f003 0304 	and.w	r3, r3, #4
 8004a92:	2b00      	cmp	r3, #0
 8004a94:	d050      	beq.n	8004b38 <UART_WaitOnFlagUntilTimeout+0x162>
      {
        if (__HAL_UART_GET_FLAG(huart, UART_FLAG_RTOF) == SET)
 8004a96:	68fb      	ldr	r3, [r7, #12]
 8004a98:	681b      	ldr	r3, [r3, #0]
 8004a9a:	69db      	ldr	r3, [r3, #28]
 8004a9c:	f403 6300 	and.w	r3, r3, #2048	@ 0x800
 8004aa0:	f5b3 6f00 	cmp.w	r3, #2048	@ 0x800
 8004aa4:	d148      	bne.n	8004b38 <UART_WaitOnFlagUntilTimeout+0x162>
        {
          /* Clear Receiver Timeout flag*/
          __HAL_UART_CLEAR_FLAG(huart, UART_CLEAR_RTOF);
 8004aa6:	68fb      	ldr	r3, [r7, #12]
 8004aa8:	681b      	ldr	r3, [r3, #0]
 8004aaa:	f44f 6200 	mov.w	r2, #2048	@ 0x800
 8004aae:	621a      	str	r2, [r3, #32]

          /* Disable TXE, RXNE, PE and ERR (Frame error, noise error, overrun error)
             interrupts for the interrupt process */
          ATOMIC_CLEAR_BIT(huart->Instance->CR1, (USART_CR1_RXNEIE | USART_CR1_PEIE | USART_CR1_TXEIE));
 8004ab0:	68fb      	ldr	r3, [r7, #12]
 8004ab2:	681b      	ldr	r3, [r3, #0]
 8004ab4:	62bb      	str	r3, [r7, #40]	@ 0x28
   __ASM volatile ("ldrex %0, %1" : "=r" (result) : "Q" (*addr) );
 8004ab6:	6abb      	ldr	r3, [r7, #40]	@ 0x28
 8004ab8:	e853 3f00 	ldrex	r3, [r3]
 8004abc:	627b      	str	r3, [r7, #36]	@ 0x24
   return(result);
 8004abe:	6a7b      	ldr	r3, [r7, #36]	@ 0x24
 8004ac0:	f423 73d0 	bic.w	r3, r3, #416	@ 0x1a0
 8004ac4:	66fb      	str	r3, [r7, #108]	@ 0x6c
 8004ac6:	68fb      	ldr	r3, [r7, #12]
 8004ac8:	681b      	ldr	r3, [r3, #0]
 8004aca:	461a      	mov	r2, r3
 8004acc:	6efb      	ldr	r3, [r7, #108]	@ 0x6c
 8004ace:	637b      	str	r3, [r7, #52]	@ 0x34
 8004ad0:	633a      	str	r2, [r7, #48]	@ 0x30
   __ASM volatile ("strex %0, %2, %1" : "=&r" (result), "=Q" (*addr) : "r" (value) );
 8004ad2:	6b39      	ldr	r1, [r7, #48]	@ 0x30
 8004ad4:	6b7a      	ldr	r2, [r7, #52]	@ 0x34
 8004ad6:	e841 2300 	strex	r3, r2, [r1]
 8004ada:	62fb      	str	r3, [r7, #44]	@ 0x2c
   return(result);
 8004adc:	6afb      	ldr	r3, [r7, #44]	@ 0x2c
 8004ade:	2b00      	cmp	r3, #0
 8004ae0:	d1e6      	bne.n	8004ab0 <UART_WaitOnFlagUntilTimeout+0xda>
          ATOMIC_CLEAR_BIT(huart->Instance->CR3, USART_CR3_EIE);
 8004ae2:	68fb      	ldr	r3, [r7, #12]
 8004ae4:	681b      	ldr	r3, [r3, #0]
 8004ae6:	3308      	adds	r3, #8
 8004ae8:	617b      	str	r3, [r7, #20]
   __ASM volatile ("ldrex %0, %1" : "=r" (result) : "Q" (*addr) );
 8004aea:	697b      	ldr	r3, [r7, #20]
 8004aec:	e853 3f00 	ldrex	r3, [r3]
 8004af0:	613b      	str	r3, [r7, #16]
   return(result);
 8004af2:	693b      	ldr	r3, [r7, #16]
 8004af4:	f023 0301 	bic.w	r3, r3, #1
 8004af8:	66bb      	str	r3, [r7, #104]	@ 0x68
 8004afa:	68fb      	ldr	r3, [r7, #12]
 8004afc:	681b      	ldr	r3, [r3, #0]
 8004afe:	3308      	adds	r3, #8
 8004b00:	6eba      	ldr	r2, [r7, #104]	@ 0x68
 8004b02:	623a      	str	r2, [r7, #32]
 8004b04:	61fb      	str	r3, [r7, #28]
   __ASM volatile ("strex %0, %2, %1" : "=&r" (result), "=Q" (*addr) : "r" (value) );
 8004b06:	69f9      	ldr	r1, [r7, #28]
 8004b08:	6a3a      	ldr	r2, [r7, #32]
 8004b0a:	e841 2300 	strex	r3, r2, [r1]
 8004b0e:	61bb      	str	r3, [r7, #24]
   return(result);
 8004b10:	69bb      	ldr	r3, [r7, #24]
 8004b12:	2b00      	cmp	r3, #0
 8004b14:	d1e5      	bne.n	8004ae2 <UART_WaitOnFlagUntilTimeout+0x10c>

          huart->gState = HAL_UART_STATE_READY;
 8004b16:	68fb      	ldr	r3, [r7, #12]
 8004b18:	2220      	movs	r2, #32
 8004b1a:	67da      	str	r2, [r3, #124]	@ 0x7c
          huart->RxState = HAL_UART_STATE_READY;
 8004b1c:	68fb      	ldr	r3, [r7, #12]
 8004b1e:	2220      	movs	r2, #32
 8004b20:	f8c3 2080 	str.w	r2, [r3, #128]	@ 0x80
          huart->ErrorCode = HAL_UART_ERROR_RTO;
 8004b24:	68fb      	ldr	r3, [r7, #12]
 8004b26:	2220      	movs	r2, #32
 8004b28:	f8c3 2084 	str.w	r2, [r3, #132]	@ 0x84

          /* Process Unlocked */
          __HAL_UNLOCK(huart);
 8004b2c:	68fb      	ldr	r3, [r7, #12]
 8004b2e:	2200      	movs	r2, #0
 8004b30:	f883 2078 	strb.w	r2, [r3, #120]	@ 0x78

          return HAL_TIMEOUT;
 8004b34:	2303      	movs	r3, #3
 8004b36:	e010      	b.n	8004b5a <UART_WaitOnFlagUntilTimeout+0x184>
  while ((__HAL_UART_GET_FLAG(huart, Flag) ? SET : RESET) == Status)
 8004b38:	68fb      	ldr	r3, [r7, #12]
 8004b3a:	681b      	ldr	r3, [r3, #0]
 8004b3c:	69da      	ldr	r2, [r3, #28]
 8004b3e:	68bb      	ldr	r3, [r7, #8]
 8004b40:	4013      	ands	r3, r2
 8004b42:	68ba      	ldr	r2, [r7, #8]
 8004b44:	429a      	cmp	r2, r3
 8004b46:	bf0c      	ite	eq
 8004b48:	2301      	moveq	r3, #1
 8004b4a:	2300      	movne	r3, #0
 8004b4c:	b2db      	uxtb	r3, r3
 8004b4e:	461a      	mov	r2, r3
 8004b50:	79fb      	ldrb	r3, [r7, #7]
 8004b52:	429a      	cmp	r2, r3
 8004b54:	f43f af48 	beq.w	80049e8 <UART_WaitOnFlagUntilTimeout+0x12>
        }
      }
    }
  }
  return HAL_OK;
 8004b58:	2300      	movs	r3, #0
}
 8004b5a:	4618      	mov	r0, r3
 8004b5c:	3770      	adds	r7, #112	@ 0x70
 8004b5e:	46bd      	mov	sp, r7
 8004b60:	bd80      	pop	{r7, pc}

08004b62 <UART_EndRxTransfer>:
  * @brief  End ongoing Rx transfer on UART peripheral (following error detection or Reception completion).
  * @param  huart UART handle.
  * @retval None
  */
static void UART_EndRxTransfer(UART_HandleTypeDef *huart)
{
 8004b62:	b480      	push	{r7}
 8004b64:	b095      	sub	sp, #84	@ 0x54
 8004b66:	af00      	add	r7, sp, #0
 8004b68:	6078      	str	r0, [r7, #4]
  /* Disable RXNE, PE and ERR (Frame error, noise error, overrun error) interrupts */
  ATOMIC_CLEAR_BIT(huart->Instance->CR1, (USART_CR1_RXNEIE | USART_CR1_PEIE));
 8004b6a:	687b      	ldr	r3, [r7, #4]
 8004b6c:	681b      	ldr	r3, [r3, #0]
 8004b6e:	637b      	str	r3, [r7, #52]	@ 0x34
   __ASM volatile ("ldrex %0, %1" : "=r" (result) : "Q" (*addr) );
 8004b70:	6b7b      	ldr	r3, [r7, #52]	@ 0x34
 8004b72:	e853 3f00 	ldrex	r3, [r3]
 8004b76:	633b      	str	r3, [r7, #48]	@ 0x30
   return(result);
 8004b78:	6b3b      	ldr	r3, [r7, #48]	@ 0x30
 8004b7a:	f423 7390 	bic.w	r3, r3, #288	@ 0x120
 8004b7e:	64fb      	str	r3, [r7, #76]	@ 0x4c
 8004b80:	687b      	ldr	r3, [r7, #4]
 8004b82:	681b      	ldr	r3, [r3, #0]
 8004b84:	461a      	mov	r2, r3
 8004b86:	6cfb      	ldr	r3, [r7, #76]	@ 0x4c
 8004b88:	643b      	str	r3, [r7, #64]	@ 0x40
 8004b8a:	63fa      	str	r2, [r7, #60]	@ 0x3c
   __ASM volatile ("strex %0, %2, %1" : "=&r" (result), "=Q" (*addr) : "r" (value) );
 8004b8c:	6bf9      	ldr	r1, [r7, #60]	@ 0x3c
 8004b8e:	6c3a      	ldr	r2, [r7, #64]	@ 0x40
 8004b90:	e841 2300 	strex	r3, r2, [r1]
 8004b94:	63bb      	str	r3, [r7, #56]	@ 0x38
   return(result);
 8004b96:	6bbb      	ldr	r3, [r7, #56]	@ 0x38
 8004b98:	2b00      	cmp	r3, #0
 8004b9a:	d1e6      	bne.n	8004b6a <UART_EndRxTransfer+0x8>
  ATOMIC_CLEAR_BIT(huart->Instance->CR3, USART_CR3_EIE);
 8004b9c:	687b      	ldr	r3, [r7, #4]
 8004b9e:	681b      	ldr	r3, [r3, #0]
 8004ba0:	3308      	adds	r3, #8
 8004ba2:	623b      	str	r3, [r7, #32]
   __ASM volatile ("ldrex %0, %1" : "=r" (result) : "Q" (*addr) );
 8004ba4:	6a3b      	ldr	r3, [r7, #32]
 8004ba6:	e853 3f00 	ldrex	r3, [r3]
 8004baa:	61fb      	str	r3, [r7, #28]
   return(result);
 8004bac:	69fb      	ldr	r3, [r7, #28]
 8004bae:	f023 0301 	bic.w	r3, r3, #1
 8004bb2:	64bb      	str	r3, [r7, #72]	@ 0x48
 8004bb4:	687b      	ldr	r3, [r7, #4]
 8004bb6:	681b      	ldr	r3, [r3, #0]
 8004bb8:	3308      	adds	r3, #8
 8004bba:	6cba      	ldr	r2, [r7, #72]	@ 0x48
 8004bbc:	62fa      	str	r2, [r7, #44]	@ 0x2c
 8004bbe:	62bb      	str	r3, [r7, #40]	@ 0x28
   __ASM volatile ("strex %0, %2, %1" : "=&r" (result), "=Q" (*addr) : "r" (value) );
 8004bc0:	6ab9      	ldr	r1, [r7, #40]	@ 0x28
 8004bc2:	6afa      	ldr	r2, [r7, #44]	@ 0x2c
 8004bc4:	e841 2300 	strex	r3, r2, [r1]
 8004bc8:	627b      	str	r3, [r7, #36]	@ 0x24
   return(result);
 8004bca:	6a7b      	ldr	r3, [r7, #36]	@ 0x24
 8004bcc:	2b00      	cmp	r3, #0
 8004bce:	d1e5      	bne.n	8004b9c <UART_EndRxTransfer+0x3a>

  /* In case of reception waiting for IDLE event, disable also the IDLE IE interrupt source */
  if (huart->ReceptionType == HAL_UART_RECEPTION_TOIDLE)
 8004bd0:	687b      	ldr	r3, [r7, #4]
 8004bd2:	6e1b      	ldr	r3, [r3, #96]	@ 0x60
 8004bd4:	2b01      	cmp	r3, #1
 8004bd6:	d118      	bne.n	8004c0a <UART_EndRxTransfer+0xa8>
  {
    ATOMIC_CLEAR_BIT(huart->Instance->CR1, USART_CR1_IDLEIE);
 8004bd8:	687b      	ldr	r3, [r7, #4]
 8004bda:	681b      	ldr	r3, [r3, #0]
 8004bdc:	60fb      	str	r3, [r7, #12]
   __ASM volatile ("ldrex %0, %1" : "=r" (result) : "Q" (*addr) );
 8004bde:	68fb      	ldr	r3, [r7, #12]
 8004be0:	e853 3f00 	ldrex	r3, [r3]
 8004be4:	60bb      	str	r3, [r7, #8]
   return(result);
 8004be6:	68bb      	ldr	r3, [r7, #8]
 8004be8:	f023 0310 	bic.w	r3, r3, #16
 8004bec:	647b      	str	r3, [r7, #68]	@ 0x44
 8004bee:	687b      	ldr	r3, [r7, #4]
 8004bf0:	681b      	ldr	r3, [r3, #0]
 8004bf2:	461a      	mov	r2, r3
 8004bf4:	6c7b      	ldr	r3, [r7, #68]	@ 0x44
 8004bf6:	61bb      	str	r3, [r7, #24]
 8004bf8:	617a      	str	r2, [r7, #20]
   __ASM volatile ("strex %0, %2, %1" : "=&r" (result), "=Q" (*addr) : "r" (value) );
 8004bfa:	6979      	ldr	r1, [r7, #20]
 8004bfc:	69ba      	ldr	r2, [r7, #24]
 8004bfe:	e841 2300 	strex	r3, r2, [r1]
 8004c02:	613b      	str	r3, [r7, #16]
   return(result);
 8004c04:	693b      	ldr	r3, [r7, #16]
 8004c06:	2b00      	cmp	r3, #0
 8004c08:	d1e6      	bne.n	8004bd8 <UART_EndRxTransfer+0x76>
  }

  /* At end of Rx process, restore huart->RxState to Ready */
  huart->RxState = HAL_UART_STATE_READY;
 8004c0a:	687b      	ldr	r3, [r7, #4]
 8004c0c:	2220      	movs	r2, #32
 8004c0e:	f8c3 2080 	str.w	r2, [r3, #128]	@ 0x80
  huart->ReceptionType = HAL_UART_RECEPTION_STANDARD;
 8004c12:	687b      	ldr	r3, [r7, #4]
 8004c14:	2200      	movs	r2, #0
 8004c16:	661a      	str	r2, [r3, #96]	@ 0x60

  /* Reset RxIsr function pointer */
  huart->RxISR = NULL;
 8004c18:	687b      	ldr	r3, [r7, #4]
 8004c1a:	2200      	movs	r2, #0
 8004c1c:	669a      	str	r2, [r3, #104]	@ 0x68
}
 8004c1e:	bf00      	nop
 8004c20:	3754      	adds	r7, #84	@ 0x54
 8004c22:	46bd      	mov	sp, r7
 8004c24:	f85d 7b04 	ldr.w	r7, [sp], #4
 8004c28:	4770      	bx	lr

08004c2a <UART_DMAAbortOnError>:
  *         (To be called at end of DMA Abort procedure following error occurrence).
  * @param  hdma DMA handle.
  * @retval None
  */
static void UART_DMAAbortOnError(DMA_HandleTypeDef *hdma)
{
 8004c2a:	b580      	push	{r7, lr}
 8004c2c:	b084      	sub	sp, #16
 8004c2e:	af00      	add	r7, sp, #0
 8004c30:	6078      	str	r0, [r7, #4]
  UART_HandleTypeDef *huart = (UART_HandleTypeDef *)(hdma->Parent);
 8004c32:	687b      	ldr	r3, [r7, #4]
 8004c34:	6b9b      	ldr	r3, [r3, #56]	@ 0x38
 8004c36:	60fb      	str	r3, [r7, #12]
  huart->RxXferCount = 0U;
 8004c38:	68fb      	ldr	r3, [r7, #12]
 8004c3a:	2200      	movs	r2, #0
 8004c3c:	f8a3 205a 	strh.w	r2, [r3, #90]	@ 0x5a
  huart->TxXferCount = 0U;
 8004c40:	68fb      	ldr	r3, [r7, #12]
 8004c42:	2200      	movs	r2, #0
 8004c44:	f8a3 2052 	strh.w	r2, [r3, #82]	@ 0x52
#if (USE_HAL_UART_REGISTER_CALLBACKS == 1)
  /*Call registered error callback*/
  huart->ErrorCallback(huart);
#else
  /*Call legacy weak error callback*/
  HAL_UART_ErrorCallback(huart);
 8004c48:	68f8      	ldr	r0, [r7, #12]
 8004c4a:	f7ff fb71 	bl	8004330 <HAL_UART_ErrorCallback>
#endif /* USE_HAL_UART_REGISTER_CALLBACKS */
}
 8004c4e:	bf00      	nop
 8004c50:	3710      	adds	r7, #16
 8004c52:	46bd      	mov	sp, r7
 8004c54:	bd80      	pop	{r7, pc}

08004c56 <UART_EndTransmit_IT>:
  * @param  huart pointer to a UART_HandleTypeDef structure that contains
  *                the configuration information for the specified UART module.
  * @retval None
  */
static void UART_EndTransmit_IT(UART_HandleTypeDef *huart)
{
 8004c56:	b580      	push	{r7, lr}
 8004c58:	b088      	sub	sp, #32
 8004c5a:	af00      	add	r7, sp, #0
 8004c5c:	6078      	str	r0, [r7, #4]
  /* Disable the UART Transmit Complete Interrupt */
  ATOMIC_CLEAR_BIT(huart->Instance->CR1, USART_CR1_TCIE);
 8004c5e:	687b      	ldr	r3, [r7, #4]
 8004c60:	681b      	ldr	r3, [r3, #0]
 8004c62:	60fb      	str	r3, [r7, #12]
   __ASM volatile ("ldrex %0, %1" : "=r" (result) : "Q" (*addr) );
 8004c64:	68fb      	ldr	r3, [r7, #12]
 8004c66:	e853 3f00 	ldrex	r3, [r3]
 8004c6a:	60bb      	str	r3, [r7, #8]
   return(result);
 8004c6c:	68bb      	ldr	r3, [r7, #8]
 8004c6e:	f023 0340 	bic.w	r3, r3, #64	@ 0x40
 8004c72:	61fb      	str	r3, [r7, #28]
 8004c74:	687b      	ldr	r3, [r7, #4]
 8004c76:	681b      	ldr	r3, [r3, #0]
 8004c78:	461a      	mov	r2, r3
 8004c7a:	69fb      	ldr	r3, [r7, #28]
 8004c7c:	61bb      	str	r3, [r7, #24]
 8004c7e:	617a      	str	r2, [r7, #20]
   __ASM volatile ("strex %0, %2, %1" : "=&r" (result), "=Q" (*addr) : "r" (value) );
 8004c80:	6979      	ldr	r1, [r7, #20]
 8004c82:	69ba      	ldr	r2, [r7, #24]
 8004c84:	e841 2300 	strex	r3, r2, [r1]
 8004c88:	613b      	str	r3, [r7, #16]
   return(result);
 8004c8a:	693b      	ldr	r3, [r7, #16]
 8004c8c:	2b00      	cmp	r3, #0
 8004c8e:	d1e6      	bne.n	8004c5e <UART_EndTransmit_IT+0x8>

  /* Tx process is ended, restore huart->gState to Ready */
  huart->gState = HAL_UART_STATE_READY;
 8004c90:	687b      	ldr	r3, [r7, #4]
 8004c92:	2220      	movs	r2, #32
 8004c94:	67da      	str	r2, [r3, #124]	@ 0x7c

  /* Cleat TxISR function pointer */
  huart->TxISR = NULL;
 8004c96:	687b      	ldr	r3, [r7, #4]
 8004c98:	2200      	movs	r2, #0
 8004c9a:	66da      	str	r2, [r3, #108]	@ 0x6c
#if (USE_HAL_UART_REGISTER_CALLBACKS == 1)
  /*Call registered Tx complete callback*/
  huart->TxCpltCallback(huart);
#else
  /*Call legacy weak Tx complete callback*/
  HAL_UART_TxCpltCallback(huart);
 8004c9c:	6878      	ldr	r0, [r7, #4]
 8004c9e:	f7ff fb3d 	bl	800431c <HAL_UART_TxCpltCallback>
#endif /* USE_HAL_UART_REGISTER_CALLBACKS */
}
 8004ca2:	bf00      	nop
 8004ca4:	3720      	adds	r7, #32
 8004ca6:	46bd      	mov	sp, r7
 8004ca8:	bd80      	pop	{r7, pc}

08004caa <SVC_Setup>:
#endif /* SysTick */

/*
  Setup SVC to reset value.
*/
__STATIC_INLINE void SVC_Setup (void) {
 8004caa:	b480      	push	{r7}
 8004cac:	af00      	add	r7, sp, #0
  * The issue was logged under:https://github.com/ARM-software/CMSIS-FreeRTOS/issues/35
  * until it is correctly fixed, the code below is commented
  */
/*    NVIC_SetPriority (SVCall_IRQn, 0U); */
#endif
}
 8004cae:	bf00      	nop
 8004cb0:	46bd      	mov	sp, r7
 8004cb2:	f85d 7b04 	ldr.w	r7, [sp], #4
 8004cb6:	4770      	bx	lr

08004cb8 <osKernelInitialize>:

/*---------------------------------------------------------------------------*/

osStatus_t osKernelInitialize (void) {
 8004cb8:	b480      	push	{r7}
 8004cba:	b085      	sub	sp, #20
 8004cbc:	af00      	add	r7, sp, #0
  __ASM volatile ("MRS %0, ipsr" : "=r" (result) );
 8004cbe:	f3ef 8305 	mrs	r3, IPSR
 8004cc2:	60bb      	str	r3, [r7, #8]
  return(result);
 8004cc4:	68bb      	ldr	r3, [r7, #8]
  osStatus_t stat;

  if (IS_IRQ()) {
 8004cc6:	2b00      	cmp	r3, #0
 8004cc8:	d10f      	bne.n	8004cea <osKernelInitialize+0x32>
  __ASM volatile ("MRS %0, primask" : "=r" (result) :: "memory");
 8004cca:	f3ef 8310 	mrs	r3, PRIMASK
 8004cce:	607b      	str	r3, [r7, #4]
  return(result);
 8004cd0:	687b      	ldr	r3, [r7, #4]
 8004cd2:	2b00      	cmp	r3, #0
 8004cd4:	d105      	bne.n	8004ce2 <osKernelInitialize+0x2a>
  __ASM volatile ("MRS %0, basepri" : "=r" (result) );
 8004cd6:	f3ef 8311 	mrs	r3, BASEPRI
 8004cda:	603b      	str	r3, [r7, #0]
  return(result);
 8004cdc:	683b      	ldr	r3, [r7, #0]
 8004cde:	2b00      	cmp	r3, #0
 8004ce0:	d007      	beq.n	8004cf2 <osKernelInitialize+0x3a>
 8004ce2:	4b0e      	ldr	r3, [pc, #56]	@ (8004d1c <osKernelInitialize+0x64>)
 8004ce4:	681b      	ldr	r3, [r3, #0]
 8004ce6:	2b02      	cmp	r3, #2
 8004ce8:	d103      	bne.n	8004cf2 <osKernelInitialize+0x3a>
    stat = osErrorISR;
 8004cea:	f06f 0305 	mvn.w	r3, #5
 8004cee:	60fb      	str	r3, [r7, #12]
 8004cf0:	e00c      	b.n	8004d0c <osKernelInitialize+0x54>
  }
  else {
    if (KernelState == osKernelInactive) {
 8004cf2:	4b0a      	ldr	r3, [pc, #40]	@ (8004d1c <osKernelInitialize+0x64>)
 8004cf4:	681b      	ldr	r3, [r3, #0]
 8004cf6:	2b00      	cmp	r3, #0
 8004cf8:	d105      	bne.n	8004d06 <osKernelInitialize+0x4e>
      #if defined(USE_FREERTOS_HEAP_5) && (HEAP_5_REGION_SETUP == 1)
        vPortDefineHeapRegions (configHEAP_5_REGIONS);
      #endif
      KernelState = osKernelReady;
 8004cfa:	4b08      	ldr	r3, [pc, #32]	@ (8004d1c <osKernelInitialize+0x64>)
 8004cfc:	2201      	movs	r2, #1
 8004cfe:	601a      	str	r2, [r3, #0]
      stat = osOK;
 8004d00:	2300      	movs	r3, #0
 8004d02:	60fb      	str	r3, [r7, #12]
 8004d04:	e002      	b.n	8004d0c <osKernelInitialize+0x54>
    } else {
      stat = osError;
 8004d06:	f04f 33ff 	mov.w	r3, #4294967295
 8004d0a:	60fb      	str	r3, [r7, #12]
    }
  }

  return (stat);
 8004d0c:	68fb      	ldr	r3, [r7, #12]
}
 8004d0e:	4618      	mov	r0, r3
 8004d10:	3714      	adds	r7, #20
 8004d12:	46bd      	mov	sp, r7
 8004d14:	f85d 7b04 	ldr.w	r7, [sp], #4
 8004d18:	4770      	bx	lr
 8004d1a:	bf00      	nop
 8004d1c:	200001e4 	.word	0x200001e4

08004d20 <osKernelStart>:
  }

  return (state);
}

osStatus_t osKernelStart (void) {
 8004d20:	b580      	push	{r7, lr}
 8004d22:	b084      	sub	sp, #16
 8004d24:	af00      	add	r7, sp, #0
  __ASM volatile ("MRS %0, ipsr" : "=r" (result) );
 8004d26:	f3ef 8305 	mrs	r3, IPSR
 8004d2a:	60bb      	str	r3, [r7, #8]
  return(result);
 8004d2c:	68bb      	ldr	r3, [r7, #8]
  osStatus_t stat;

  if (IS_IRQ()) {
 8004d2e:	2b00      	cmp	r3, #0
 8004d30:	d10f      	bne.n	8004d52 <osKernelStart+0x32>
  __ASM volatile ("MRS %0, primask" : "=r" (result) :: "memory");
 8004d32:	f3ef 8310 	mrs	r3, PRIMASK
 8004d36:	607b      	str	r3, [r7, #4]
  return(result);
 8004d38:	687b      	ldr	r3, [r7, #4]
 8004d3a:	2b00      	cmp	r3, #0
 8004d3c:	d105      	bne.n	8004d4a <osKernelStart+0x2a>
  __ASM volatile ("MRS %0, basepri" : "=r" (result) );
 8004d3e:	f3ef 8311 	mrs	r3, BASEPRI
 8004d42:	603b      	str	r3, [r7, #0]
  return(result);
 8004d44:	683b      	ldr	r3, [r7, #0]
 8004d46:	2b00      	cmp	r3, #0
 8004d48:	d007      	beq.n	8004d5a <osKernelStart+0x3a>
 8004d4a:	4b0f      	ldr	r3, [pc, #60]	@ (8004d88 <osKernelStart+0x68>)
 8004d4c:	681b      	ldr	r3, [r3, #0]
 8004d4e:	2b02      	cmp	r3, #2
 8004d50:	d103      	bne.n	8004d5a <osKernelStart+0x3a>
    stat = osErrorISR;
 8004d52:	f06f 0305 	mvn.w	r3, #5
 8004d56:	60fb      	str	r3, [r7, #12]
 8004d58:	e010      	b.n	8004d7c <osKernelStart+0x5c>
  }
  else {
    if (KernelState == osKernelReady) {
 8004d5a:	4b0b      	ldr	r3, [pc, #44]	@ (8004d88 <osKernelStart+0x68>)
 8004d5c:	681b      	ldr	r3, [r3, #0]
 8004d5e:	2b01      	cmp	r3, #1
 8004d60:	d109      	bne.n	8004d76 <osKernelStart+0x56>
      /* Ensure SVC priority is at the reset value */
      SVC_Setup();
 8004d62:	f7ff ffa2 	bl	8004caa <SVC_Setup>
      /* Change state to enable IRQ masking check */
      KernelState = osKernelRunning;
 8004d66:	4b08      	ldr	r3, [pc, #32]	@ (8004d88 <osKernelStart+0x68>)
 8004d68:	2202      	movs	r2, #2
 8004d6a:	601a      	str	r2, [r3, #0]
      /* Start the kernel scheduler */
      vTaskStartScheduler();
 8004d6c:	f001 faa6 	bl	80062bc <vTaskStartScheduler>
      stat = osOK;
 8004d70:	2300      	movs	r3, #0
 8004d72:	60fb      	str	r3, [r7, #12]
 8004d74:	e002      	b.n	8004d7c <osKernelStart+0x5c>
    } else {
      stat = osError;
 8004d76:	f04f 33ff 	mov.w	r3, #4294967295
 8004d7a:	60fb      	str	r3, [r7, #12]
    }
  }

  return (stat);
 8004d7c:	68fb      	ldr	r3, [r7, #12]
}
 8004d7e:	4618      	mov	r0, r3
 8004d80:	3710      	adds	r7, #16
 8004d82:	46bd      	mov	sp, r7
 8004d84:	bd80      	pop	{r7, pc}
 8004d86:	bf00      	nop
 8004d88:	200001e4 	.word	0x200001e4

08004d8c <osThreadNew>:
  return (configCPU_CLOCK_HZ);
}

/*---------------------------------------------------------------------------*/

osThreadId_t osThreadNew (osThreadFunc_t func, void *argument, const osThreadAttr_t *attr) {
 8004d8c:	b580      	push	{r7, lr}
 8004d8e:	b090      	sub	sp, #64	@ 0x40
 8004d90:	af04      	add	r7, sp, #16
 8004d92:	60f8      	str	r0, [r7, #12]
 8004d94:	60b9      	str	r1, [r7, #8]
 8004d96:	607a      	str	r2, [r7, #4]
  uint32_t stack;
  TaskHandle_t hTask;
  UBaseType_t prio;
  int32_t mem;

  hTask = NULL;
 8004d98:	2300      	movs	r3, #0
 8004d9a:	613b      	str	r3, [r7, #16]
  __ASM volatile ("MRS %0, ipsr" : "=r" (result) );
 8004d9c:	f3ef 8305 	mrs	r3, IPSR
 8004da0:	61fb      	str	r3, [r7, #28]
  return(result);
 8004da2:	69fb      	ldr	r3, [r7, #28]

  if (!IS_IRQ() && (func != NULL)) {
 8004da4:	2b00      	cmp	r3, #0
 8004da6:	f040 808f 	bne.w	8004ec8 <osThreadNew+0x13c>
  __ASM volatile ("MRS %0, primask" : "=r" (result) :: "memory");
 8004daa:	f3ef 8310 	mrs	r3, PRIMASK
 8004dae:	61bb      	str	r3, [r7, #24]
  return(result);
 8004db0:	69bb      	ldr	r3, [r7, #24]
 8004db2:	2b00      	cmp	r3, #0
 8004db4:	d105      	bne.n	8004dc2 <osThreadNew+0x36>
  __ASM volatile ("MRS %0, basepri" : "=r" (result) );
 8004db6:	f3ef 8311 	mrs	r3, BASEPRI
 8004dba:	617b      	str	r3, [r7, #20]
  return(result);
 8004dbc:	697b      	ldr	r3, [r7, #20]
 8004dbe:	2b00      	cmp	r3, #0
 8004dc0:	d003      	beq.n	8004dca <osThreadNew+0x3e>
 8004dc2:	4b44      	ldr	r3, [pc, #272]	@ (8004ed4 <osThreadNew+0x148>)
 8004dc4:	681b      	ldr	r3, [r3, #0]
 8004dc6:	2b02      	cmp	r3, #2
 8004dc8:	d07e      	beq.n	8004ec8 <osThreadNew+0x13c>
 8004dca:	68fb      	ldr	r3, [r7, #12]
 8004dcc:	2b00      	cmp	r3, #0
 8004dce:	d07b      	beq.n	8004ec8 <osThreadNew+0x13c>
    stack = configMINIMAL_STACK_SIZE;
 8004dd0:	2380      	movs	r3, #128	@ 0x80
 8004dd2:	62bb      	str	r3, [r7, #40]	@ 0x28
    prio  = (UBaseType_t)osPriorityNormal;
 8004dd4:	2318      	movs	r3, #24
 8004dd6:	627b      	str	r3, [r7, #36]	@ 0x24

    name = NULL;
 8004dd8:	2300      	movs	r3, #0
 8004dda:	62fb      	str	r3, [r7, #44]	@ 0x2c
    mem  = -1;
 8004ddc:	f04f 33ff 	mov.w	r3, #4294967295
 8004de0:	623b      	str	r3, [r7, #32]

    if (attr != NULL) {
 8004de2:	687b      	ldr	r3, [r7, #4]
 8004de4:	2b00      	cmp	r3, #0
 8004de6:	d045      	beq.n	8004e74 <osThreadNew+0xe8>
      if (attr->name != NULL) {
 8004de8:	687b      	ldr	r3, [r7, #4]
 8004dea:	681b      	ldr	r3, [r3, #0]
 8004dec:	2b00      	cmp	r3, #0
 8004dee:	d002      	beq.n	8004df6 <osThreadNew+0x6a>
        name = attr->name;
 8004df0:	687b      	ldr	r3, [r7, #4]
 8004df2:	681b      	ldr	r3, [r3, #0]
 8004df4:	62fb      	str	r3, [r7, #44]	@ 0x2c
      }
      if (attr->priority != osPriorityNone) {
 8004df6:	687b      	ldr	r3, [r7, #4]
 8004df8:	699b      	ldr	r3, [r3, #24]
 8004dfa:	2b00      	cmp	r3, #0
 8004dfc:	d002      	beq.n	8004e04 <osThreadNew+0x78>
        prio = (UBaseType_t)attr->priority;
 8004dfe:	687b      	ldr	r3, [r7, #4]
 8004e00:	699b      	ldr	r3, [r3, #24]
 8004e02:	627b      	str	r3, [r7, #36]	@ 0x24
      }

      if ((prio < osPriorityIdle) || (prio > osPriorityISR) || ((attr->attr_bits & osThreadJoinable) == osThreadJoinable)) {
 8004e04:	6a7b      	ldr	r3, [r7, #36]	@ 0x24
 8004e06:	2b00      	cmp	r3, #0
 8004e08:	d008      	beq.n	8004e1c <osThreadNew+0x90>
 8004e0a:	6a7b      	ldr	r3, [r7, #36]	@ 0x24
 8004e0c:	2b38      	cmp	r3, #56	@ 0x38
 8004e0e:	d805      	bhi.n	8004e1c <osThreadNew+0x90>
 8004e10:	687b      	ldr	r3, [r7, #4]
 8004e12:	685b      	ldr	r3, [r3, #4]
 8004e14:	f003 0301 	and.w	r3, r3, #1
 8004e18:	2b00      	cmp	r3, #0
 8004e1a:	d001      	beq.n	8004e20 <osThreadNew+0x94>
        return (NULL);
 8004e1c:	2300      	movs	r3, #0
 8004e1e:	e054      	b.n	8004eca <osThreadNew+0x13e>
      }

      if (attr->stack_size > 0U) {
 8004e20:	687b      	ldr	r3, [r7, #4]
 8004e22:	695b      	ldr	r3, [r3, #20]
 8004e24:	2b00      	cmp	r3, #0
 8004e26:	d003      	beq.n	8004e30 <osThreadNew+0xa4>
        /* In FreeRTOS stack is not in bytes, but in sizeof(StackType_t) which is 4 on ARM ports.       */
        /* Stack size should be therefore 4 byte aligned in order to avoid division caused side effects */
        stack = attr->stack_size / sizeof(StackType_t);
 8004e28:	687b      	ldr	r3, [r7, #4]
 8004e2a:	695b      	ldr	r3, [r3, #20]
 8004e2c:	089b      	lsrs	r3, r3, #2
 8004e2e:	62bb      	str	r3, [r7, #40]	@ 0x28
      }

      if ((attr->cb_mem    != NULL) && (attr->cb_size    >= sizeof(StaticTask_t)) &&
 8004e30:	687b      	ldr	r3, [r7, #4]
 8004e32:	689b      	ldr	r3, [r3, #8]
 8004e34:	2b00      	cmp	r3, #0
 8004e36:	d00e      	beq.n	8004e56 <osThreadNew+0xca>
 8004e38:	687b      	ldr	r3, [r7, #4]
 8004e3a:	68db      	ldr	r3, [r3, #12]
 8004e3c:	2ba7      	cmp	r3, #167	@ 0xa7
 8004e3e:	d90a      	bls.n	8004e56 <osThreadNew+0xca>
          (attr->stack_mem != NULL) && (attr->stack_size >  0U)) {
 8004e40:	687b      	ldr	r3, [r7, #4]
 8004e42:	691b      	ldr	r3, [r3, #16]
      if ((attr->cb_mem    != NULL) && (attr->cb_size    >= sizeof(StaticTask_t)) &&
 8004e44:	2b00      	cmp	r3, #0
 8004e46:	d006      	beq.n	8004e56 <osThreadNew+0xca>
          (attr->stack_mem != NULL) && (attr->stack_size >  0U)) {
 8004e48:	687b      	ldr	r3, [r7, #4]
 8004e4a:	695b      	ldr	r3, [r3, #20]
 8004e4c:	2b00      	cmp	r3, #0
 8004e4e:	d002      	beq.n	8004e56 <osThreadNew+0xca>
        mem = 1;
 8004e50:	2301      	movs	r3, #1
 8004e52:	623b      	str	r3, [r7, #32]
 8004e54:	e010      	b.n	8004e78 <osThreadNew+0xec>
      }
      else {
        if ((attr->cb_mem == NULL) && (attr->cb_size == 0U) && (attr->stack_mem == NULL)) {
 8004e56:	687b      	ldr	r3, [r7, #4]
 8004e58:	689b      	ldr	r3, [r3, #8]
 8004e5a:	2b00      	cmp	r3, #0
 8004e5c:	d10c      	bne.n	8004e78 <osThreadNew+0xec>
 8004e5e:	687b      	ldr	r3, [r7, #4]
 8004e60:	68db      	ldr	r3, [r3, #12]
 8004e62:	2b00      	cmp	r3, #0
 8004e64:	d108      	bne.n	8004e78 <osThreadNew+0xec>
 8004e66:	687b      	ldr	r3, [r7, #4]
 8004e68:	691b      	ldr	r3, [r3, #16]
 8004e6a:	2b00      	cmp	r3, #0
 8004e6c:	d104      	bne.n	8004e78 <osThreadNew+0xec>
          mem = 0;
 8004e6e:	2300      	movs	r3, #0
 8004e70:	623b      	str	r3, [r7, #32]
 8004e72:	e001      	b.n	8004e78 <osThreadNew+0xec>
        }
      }
    }
    else {
      mem = 0;
 8004e74:	2300      	movs	r3, #0
 8004e76:	623b      	str	r3, [r7, #32]
    }

    if (mem == 1) {
 8004e78:	6a3b      	ldr	r3, [r7, #32]
 8004e7a:	2b01      	cmp	r3, #1
 8004e7c:	d110      	bne.n	8004ea0 <osThreadNew+0x114>
      hTask = xTaskCreateStatic ((TaskFunction_t)func, name, stack, argument, prio, (StackType_t  *)attr->stack_mem,
 8004e7e:	687b      	ldr	r3, [r7, #4]
 8004e80:	691b      	ldr	r3, [r3, #16]
                                                                                    (StaticTask_t *)attr->cb_mem);
 8004e82:	687a      	ldr	r2, [r7, #4]
 8004e84:	6892      	ldr	r2, [r2, #8]
      hTask = xTaskCreateStatic ((TaskFunction_t)func, name, stack, argument, prio, (StackType_t  *)attr->stack_mem,
 8004e86:	9202      	str	r2, [sp, #8]
 8004e88:	9301      	str	r3, [sp, #4]
 8004e8a:	6a7b      	ldr	r3, [r7, #36]	@ 0x24
 8004e8c:	9300      	str	r3, [sp, #0]
 8004e8e:	68bb      	ldr	r3, [r7, #8]
 8004e90:	6aba      	ldr	r2, [r7, #40]	@ 0x28
 8004e92:	6af9      	ldr	r1, [r7, #44]	@ 0x2c
 8004e94:	68f8      	ldr	r0, [r7, #12]
 8004e96:	f001 f813 	bl	8005ec0 <xTaskCreateStatic>
 8004e9a:	4603      	mov	r3, r0
 8004e9c:	613b      	str	r3, [r7, #16]
 8004e9e:	e013      	b.n	8004ec8 <osThreadNew+0x13c>
    }
    else {
      if (mem == 0) {
 8004ea0:	6a3b      	ldr	r3, [r7, #32]
 8004ea2:	2b00      	cmp	r3, #0
 8004ea4:	d110      	bne.n	8004ec8 <osThreadNew+0x13c>
        if (xTaskCreate ((TaskFunction_t)func, name, (uint16_t)stack, argument, prio, &hTask) != pdPASS) {
 8004ea6:	6abb      	ldr	r3, [r7, #40]	@ 0x28
 8004ea8:	b29a      	uxth	r2, r3
 8004eaa:	f107 0310 	add.w	r3, r7, #16
 8004eae:	9301      	str	r3, [sp, #4]
 8004eb0:	6a7b      	ldr	r3, [r7, #36]	@ 0x24
 8004eb2:	9300      	str	r3, [sp, #0]
 8004eb4:	68bb      	ldr	r3, [r7, #8]
 8004eb6:	6af9      	ldr	r1, [r7, #44]	@ 0x2c
 8004eb8:	68f8      	ldr	r0, [r7, #12]
 8004eba:	f001 f867 	bl	8005f8c <xTaskCreate>
 8004ebe:	4603      	mov	r3, r0
 8004ec0:	2b01      	cmp	r3, #1
 8004ec2:	d001      	beq.n	8004ec8 <osThreadNew+0x13c>
          hTask = NULL;
 8004ec4:	2300      	movs	r3, #0
 8004ec6:	613b      	str	r3, [r7, #16]
        }
      }
    }
  }

  return ((osThreadId_t)hTask);
 8004ec8:	693b      	ldr	r3, [r7, #16]
}
 8004eca:	4618      	mov	r0, r3
 8004ecc:	3730      	adds	r7, #48	@ 0x30
 8004ece:	46bd      	mov	sp, r7
 8004ed0:	bd80      	pop	{r7, pc}
 8004ed2:	bf00      	nop
 8004ed4:	200001e4 	.word	0x200001e4

08004ed8 <osDelay>:

  /* Return flags before clearing */
  return (rflags);
}

osStatus_t osDelay (uint32_t ticks) {
 8004ed8:	b580      	push	{r7, lr}
 8004eda:	b086      	sub	sp, #24
 8004edc:	af00      	add	r7, sp, #0
 8004ede:	6078      	str	r0, [r7, #4]
  __ASM volatile ("MRS %0, ipsr" : "=r" (result) );
 8004ee0:	f3ef 8305 	mrs	r3, IPSR
 8004ee4:	613b      	str	r3, [r7, #16]
  return(result);
 8004ee6:	693b      	ldr	r3, [r7, #16]
  osStatus_t stat;

  if (IS_IRQ()) {
 8004ee8:	2b00      	cmp	r3, #0
 8004eea:	d10f      	bne.n	8004f0c <osDelay+0x34>
  __ASM volatile ("MRS %0, primask" : "=r" (result) :: "memory");
 8004eec:	f3ef 8310 	mrs	r3, PRIMASK
 8004ef0:	60fb      	str	r3, [r7, #12]
  return(result);
 8004ef2:	68fb      	ldr	r3, [r7, #12]
 8004ef4:	2b00      	cmp	r3, #0
 8004ef6:	d105      	bne.n	8004f04 <osDelay+0x2c>
  __ASM volatile ("MRS %0, basepri" : "=r" (result) );
 8004ef8:	f3ef 8311 	mrs	r3, BASEPRI
 8004efc:	60bb      	str	r3, [r7, #8]
  return(result);
 8004efe:	68bb      	ldr	r3, [r7, #8]
 8004f00:	2b00      	cmp	r3, #0
 8004f02:	d007      	beq.n	8004f14 <osDelay+0x3c>
 8004f04:	4b0a      	ldr	r3, [pc, #40]	@ (8004f30 <osDelay+0x58>)
 8004f06:	681b      	ldr	r3, [r3, #0]
 8004f08:	2b02      	cmp	r3, #2
 8004f0a:	d103      	bne.n	8004f14 <osDelay+0x3c>
    stat = osErrorISR;
 8004f0c:	f06f 0305 	mvn.w	r3, #5
 8004f10:	617b      	str	r3, [r7, #20]
 8004f12:	e007      	b.n	8004f24 <osDelay+0x4c>
  }
  else {
    stat = osOK;
 8004f14:	2300      	movs	r3, #0
 8004f16:	617b      	str	r3, [r7, #20]

    if (ticks != 0U) {
 8004f18:	687b      	ldr	r3, [r7, #4]
 8004f1a:	2b00      	cmp	r3, #0
 8004f1c:	d002      	beq.n	8004f24 <osDelay+0x4c>
      vTaskDelay(ticks);
 8004f1e:	6878      	ldr	r0, [r7, #4]
 8004f20:	f001 f994 	bl	800624c <vTaskDelay>
    }
  }

  return (stat);
 8004f24:	697b      	ldr	r3, [r7, #20]
}
 8004f26:	4618      	mov	r0, r3
 8004f28:	3718      	adds	r7, #24
 8004f2a:	46bd      	mov	sp, r7
 8004f2c:	bd80      	pop	{r7, pc}
 8004f2e:	bf00      	nop
 8004f30:	200001e4 	.word	0x200001e4

08004f34 <TimerCallback>:
  return (stat);
}

/*---------------------------------------------------------------------------*/

static void TimerCallback (TimerHandle_t hTimer) {
 8004f34:	b580      	push	{r7, lr}
 8004f36:	b084      	sub	sp, #16
 8004f38:	af00      	add	r7, sp, #0
 8004f3a:	6078      	str	r0, [r7, #4]
  TimerCallback_t *callb;

  callb = (TimerCallback_t *)pvTimerGetTimerID (hTimer);
 8004f3c:	6878      	ldr	r0, [r7, #4]
 8004f3e:	f002 fb29 	bl	8007594 <pvTimerGetTimerID>
 8004f42:	60f8      	str	r0, [r7, #12]

  if (callb != NULL) {
 8004f44:	68fb      	ldr	r3, [r7, #12]
 8004f46:	2b00      	cmp	r3, #0
 8004f48:	d005      	beq.n	8004f56 <TimerCallback+0x22>
    callb->func (callb->arg);
 8004f4a:	68fb      	ldr	r3, [r7, #12]
 8004f4c:	681b      	ldr	r3, [r3, #0]
 8004f4e:	68fa      	ldr	r2, [r7, #12]
 8004f50:	6852      	ldr	r2, [r2, #4]
 8004f52:	4610      	mov	r0, r2
 8004f54:	4798      	blx	r3
  }
}
 8004f56:	bf00      	nop
 8004f58:	3710      	adds	r7, #16
 8004f5a:	46bd      	mov	sp, r7
 8004f5c:	bd80      	pop	{r7, pc}
	...

08004f60 <osTimerNew>:

osTimerId_t osTimerNew (osTimerFunc_t func, osTimerType_t type, void *argument, const osTimerAttr_t *attr) {
 8004f60:	b580      	push	{r7, lr}
 8004f62:	b08e      	sub	sp, #56	@ 0x38
 8004f64:	af02      	add	r7, sp, #8
 8004f66:	60f8      	str	r0, [r7, #12]
 8004f68:	607a      	str	r2, [r7, #4]
 8004f6a:	603b      	str	r3, [r7, #0]
 8004f6c:	460b      	mov	r3, r1
 8004f6e:	72fb      	strb	r3, [r7, #11]
  TimerHandle_t hTimer;
  TimerCallback_t *callb;
  UBaseType_t reload;
  int32_t mem;

  hTimer = NULL;
 8004f70:	2300      	movs	r3, #0
 8004f72:	62bb      	str	r3, [r7, #40]	@ 0x28
  __ASM volatile ("MRS %0, ipsr" : "=r" (result) );
 8004f74:	f3ef 8305 	mrs	r3, IPSR
 8004f78:	61bb      	str	r3, [r7, #24]
  return(result);
 8004f7a:	69bb      	ldr	r3, [r7, #24]

  if (!IS_IRQ() && (func != NULL)) {
 8004f7c:	2b00      	cmp	r3, #0
 8004f7e:	d16a      	bne.n	8005056 <osTimerNew+0xf6>
  __ASM volatile ("MRS %0, primask" : "=r" (result) :: "memory");
 8004f80:	f3ef 8310 	mrs	r3, PRIMASK
 8004f84:	617b      	str	r3, [r7, #20]
  return(result);
 8004f86:	697b      	ldr	r3, [r7, #20]
 8004f88:	2b00      	cmp	r3, #0
 8004f8a:	d105      	bne.n	8004f98 <osTimerNew+0x38>
  __ASM volatile ("MRS %0, basepri" : "=r" (result) );
 8004f8c:	f3ef 8311 	mrs	r3, BASEPRI
 8004f90:	613b      	str	r3, [r7, #16]
  return(result);
 8004f92:	693b      	ldr	r3, [r7, #16]
 8004f94:	2b00      	cmp	r3, #0
 8004f96:	d003      	beq.n	8004fa0 <osTimerNew+0x40>
 8004f98:	4b31      	ldr	r3, [pc, #196]	@ (8005060 <osTimerNew+0x100>)
 8004f9a:	681b      	ldr	r3, [r3, #0]
 8004f9c:	2b02      	cmp	r3, #2
 8004f9e:	d05a      	beq.n	8005056 <osTimerNew+0xf6>
 8004fa0:	68fb      	ldr	r3, [r7, #12]
 8004fa2:	2b00      	cmp	r3, #0
 8004fa4:	d057      	beq.n	8005056 <osTimerNew+0xf6>
    /* Allocate memory to store callback function and argument */
    callb = pvPortMalloc (sizeof(TimerCallback_t));
 8004fa6:	2008      	movs	r0, #8
 8004fa8:	f002 fd56 	bl	8007a58 <pvPortMalloc>
 8004fac:	61f8      	str	r0, [r7, #28]

    if (callb != NULL) {
 8004fae:	69fb      	ldr	r3, [r7, #28]
 8004fb0:	2b00      	cmp	r3, #0
 8004fb2:	d050      	beq.n	8005056 <osTimerNew+0xf6>
      callb->func = func;
 8004fb4:	69fb      	ldr	r3, [r7, #28]
 8004fb6:	68fa      	ldr	r2, [r7, #12]
 8004fb8:	601a      	str	r2, [r3, #0]
      callb->arg  = argument;
 8004fba:	69fb      	ldr	r3, [r7, #28]
 8004fbc:	687a      	ldr	r2, [r7, #4]
 8004fbe:	605a      	str	r2, [r3, #4]

      if (type == osTimerOnce) {
 8004fc0:	7afb      	ldrb	r3, [r7, #11]
 8004fc2:	2b00      	cmp	r3, #0
 8004fc4:	d102      	bne.n	8004fcc <osTimerNew+0x6c>
        reload = pdFALSE;
 8004fc6:	2300      	movs	r3, #0
 8004fc8:	627b      	str	r3, [r7, #36]	@ 0x24
 8004fca:	e001      	b.n	8004fd0 <osTimerNew+0x70>
      } else {
        reload = pdTRUE;
 8004fcc:	2301      	movs	r3, #1
 8004fce:	627b      	str	r3, [r7, #36]	@ 0x24
      }

      mem  = -1;
 8004fd0:	f04f 33ff 	mov.w	r3, #4294967295
 8004fd4:	623b      	str	r3, [r7, #32]
      name = NULL;
 8004fd6:	2300      	movs	r3, #0
 8004fd8:	62fb      	str	r3, [r7, #44]	@ 0x2c

      if (attr != NULL) {
 8004fda:	683b      	ldr	r3, [r7, #0]
 8004fdc:	2b00      	cmp	r3, #0
 8004fde:	d01c      	beq.n	800501a <osTimerNew+0xba>
        if (attr->name != NULL) {
 8004fe0:	683b      	ldr	r3, [r7, #0]
 8004fe2:	681b      	ldr	r3, [r3, #0]
 8004fe4:	2b00      	cmp	r3, #0
 8004fe6:	d002      	beq.n	8004fee <osTimerNew+0x8e>
          name = attr->name;
 8004fe8:	683b      	ldr	r3, [r7, #0]
 8004fea:	681b      	ldr	r3, [r3, #0]
 8004fec:	62fb      	str	r3, [r7, #44]	@ 0x2c
        }

        if ((attr->cb_mem != NULL) && (attr->cb_size >= sizeof(StaticTimer_t))) {
 8004fee:	683b      	ldr	r3, [r7, #0]
 8004ff0:	689b      	ldr	r3, [r3, #8]
 8004ff2:	2b00      	cmp	r3, #0
 8004ff4:	d006      	beq.n	8005004 <osTimerNew+0xa4>
 8004ff6:	683b      	ldr	r3, [r7, #0]
 8004ff8:	68db      	ldr	r3, [r3, #12]
 8004ffa:	2b2b      	cmp	r3, #43	@ 0x2b
 8004ffc:	d902      	bls.n	8005004 <osTimerNew+0xa4>
          mem = 1;
 8004ffe:	2301      	movs	r3, #1
 8005000:	623b      	str	r3, [r7, #32]
 8005002:	e00c      	b.n	800501e <osTimerNew+0xbe>
        }
        else {
          if ((attr->cb_mem == NULL) && (attr->cb_size == 0U)) {
 8005004:	683b      	ldr	r3, [r7, #0]
 8005006:	689b      	ldr	r3, [r3, #8]
 8005008:	2b00      	cmp	r3, #0
 800500a:	d108      	bne.n	800501e <osTimerNew+0xbe>
 800500c:	683b      	ldr	r3, [r7, #0]
 800500e:	68db      	ldr	r3, [r3, #12]
 8005010:	2b00      	cmp	r3, #0
 8005012:	d104      	bne.n	800501e <osTimerNew+0xbe>
            mem = 0;
 8005014:	2300      	movs	r3, #0
 8005016:	623b      	str	r3, [r7, #32]
 8005018:	e001      	b.n	800501e <osTimerNew+0xbe>
          }
        }
      }
      else {
        mem = 0;
 800501a:	2300      	movs	r3, #0
 800501c:	623b      	str	r3, [r7, #32]
      }

      if (mem == 1) {
 800501e:	6a3b      	ldr	r3, [r7, #32]
 8005020:	2b01      	cmp	r3, #1
 8005022:	d10c      	bne.n	800503e <osTimerNew+0xde>
        hTimer = xTimerCreateStatic (name, 1, reload, callb, TimerCallback, (StaticTimer_t *)attr->cb_mem);
 8005024:	683b      	ldr	r3, [r7, #0]
 8005026:	689b      	ldr	r3, [r3, #8]
 8005028:	9301      	str	r3, [sp, #4]
 800502a:	4b0e      	ldr	r3, [pc, #56]	@ (8005064 <osTimerNew+0x104>)
 800502c:	9300      	str	r3, [sp, #0]
 800502e:	69fb      	ldr	r3, [r7, #28]
 8005030:	6a7a      	ldr	r2, [r7, #36]	@ 0x24
 8005032:	2101      	movs	r1, #1
 8005034:	6af8      	ldr	r0, [r7, #44]	@ 0x2c
 8005036:	f001 ff0e 	bl	8006e56 <xTimerCreateStatic>
 800503a:	62b8      	str	r0, [r7, #40]	@ 0x28
 800503c:	e00b      	b.n	8005056 <osTimerNew+0xf6>
      }
      else {
        if (mem == 0) {
 800503e:	6a3b      	ldr	r3, [r7, #32]
 8005040:	2b00      	cmp	r3, #0
 8005042:	d108      	bne.n	8005056 <osTimerNew+0xf6>
          hTimer = xTimerCreate (name, 1, reload, callb, TimerCallback);
 8005044:	4b07      	ldr	r3, [pc, #28]	@ (8005064 <osTimerNew+0x104>)
 8005046:	9300      	str	r3, [sp, #0]
 8005048:	69fb      	ldr	r3, [r7, #28]
 800504a:	6a7a      	ldr	r2, [r7, #36]	@ 0x24
 800504c:	2101      	movs	r1, #1
 800504e:	6af8      	ldr	r0, [r7, #44]	@ 0x2c
 8005050:	f001 fee0 	bl	8006e14 <xTimerCreate>
 8005054:	62b8      	str	r0, [r7, #40]	@ 0x28
        }
      }
    }
  }

  return ((osTimerId_t)hTimer);
 8005056:	6abb      	ldr	r3, [r7, #40]	@ 0x28
}
 8005058:	4618      	mov	r0, r3
 800505a:	3730      	adds	r7, #48	@ 0x30
 800505c:	46bd      	mov	sp, r7
 800505e:	bd80      	pop	{r7, pc}
 8005060:	200001e4 	.word	0x200001e4
 8005064:	08004f35 	.word	0x08004f35

08005068 <osMutexNew>:
  return (stat);
}

/*---------------------------------------------------------------------------*/

osMutexId_t osMutexNew (const osMutexAttr_t *attr) {
 8005068:	b580      	push	{r7, lr}
 800506a:	b08a      	sub	sp, #40	@ 0x28
 800506c:	af00      	add	r7, sp, #0
 800506e:	6078      	str	r0, [r7, #4]
  int32_t  mem;
  #if (configQUEUE_REGISTRY_SIZE > 0)
  const char *name;
  #endif

  hMutex = NULL;
 8005070:	2300      	movs	r3, #0
 8005072:	627b      	str	r3, [r7, #36]	@ 0x24
  __ASM volatile ("MRS %0, ipsr" : "=r" (result) );
 8005074:	f3ef 8305 	mrs	r3, IPSR
 8005078:	613b      	str	r3, [r7, #16]
  return(result);
 800507a:	693b      	ldr	r3, [r7, #16]

  if (!IS_IRQ()) {
 800507c:	2b00      	cmp	r3, #0
 800507e:	f040 8085 	bne.w	800518c <osMutexNew+0x124>
  __ASM volatile ("MRS %0, primask" : "=r" (result) :: "memory");
 8005082:	f3ef 8310 	mrs	r3, PRIMASK
 8005086:	60fb      	str	r3, [r7, #12]
  return(result);
 8005088:	68fb      	ldr	r3, [r7, #12]
 800508a:	2b00      	cmp	r3, #0
 800508c:	d105      	bne.n	800509a <osMutexNew+0x32>
  __ASM volatile ("MRS %0, basepri" : "=r" (result) );
 800508e:	f3ef 8311 	mrs	r3, BASEPRI
 8005092:	60bb      	str	r3, [r7, #8]
  return(result);
 8005094:	68bb      	ldr	r3, [r7, #8]
 8005096:	2b00      	cmp	r3, #0
 8005098:	d003      	beq.n	80050a2 <osMutexNew+0x3a>
 800509a:	4b3f      	ldr	r3, [pc, #252]	@ (8005198 <osMutexNew+0x130>)
 800509c:	681b      	ldr	r3, [r3, #0]
 800509e:	2b02      	cmp	r3, #2
 80050a0:	d074      	beq.n	800518c <osMutexNew+0x124>
    if (attr != NULL) {
 80050a2:	687b      	ldr	r3, [r7, #4]
 80050a4:	2b00      	cmp	r3, #0
 80050a6:	d003      	beq.n	80050b0 <osMutexNew+0x48>
      type = attr->attr_bits;
 80050a8:	687b      	ldr	r3, [r7, #4]
 80050aa:	685b      	ldr	r3, [r3, #4]
 80050ac:	623b      	str	r3, [r7, #32]
 80050ae:	e001      	b.n	80050b4 <osMutexNew+0x4c>
    } else {
      type = 0U;
 80050b0:	2300      	movs	r3, #0
 80050b2:	623b      	str	r3, [r7, #32]
    }

    if ((type & osMutexRecursive) == osMutexRecursive) {
 80050b4:	6a3b      	ldr	r3, [r7, #32]
 80050b6:	f003 0301 	and.w	r3, r3, #1
 80050ba:	2b00      	cmp	r3, #0
 80050bc:	d002      	beq.n	80050c4 <osMutexNew+0x5c>
      rmtx = 1U;
 80050be:	2301      	movs	r3, #1
 80050c0:	61fb      	str	r3, [r7, #28]
 80050c2:	e001      	b.n	80050c8 <osMutexNew+0x60>
    } else {
      rmtx = 0U;
 80050c4:	2300      	movs	r3, #0
 80050c6:	61fb      	str	r3, [r7, #28]
    }

    if ((type & osMutexRobust) != osMutexRobust) {
 80050c8:	6a3b      	ldr	r3, [r7, #32]
 80050ca:	f003 0308 	and.w	r3, r3, #8
 80050ce:	2b00      	cmp	r3, #0
 80050d0:	d15c      	bne.n	800518c <osMutexNew+0x124>
      mem = -1;
 80050d2:	f04f 33ff 	mov.w	r3, #4294967295
 80050d6:	61bb      	str	r3, [r7, #24]

      if (attr != NULL) {
 80050d8:	687b      	ldr	r3, [r7, #4]
 80050da:	2b00      	cmp	r3, #0
 80050dc:	d015      	beq.n	800510a <osMutexNew+0xa2>
        if ((attr->cb_mem != NULL) && (attr->cb_size >= sizeof(StaticSemaphore_t))) {
 80050de:	687b      	ldr	r3, [r7, #4]
 80050e0:	689b      	ldr	r3, [r3, #8]
 80050e2:	2b00      	cmp	r3, #0
 80050e4:	d006      	beq.n	80050f4 <osMutexNew+0x8c>
 80050e6:	687b      	ldr	r3, [r7, #4]
 80050e8:	68db      	ldr	r3, [r3, #12]
 80050ea:	2b4f      	cmp	r3, #79	@ 0x4f
 80050ec:	d902      	bls.n	80050f4 <osMutexNew+0x8c>
          mem = 1;
 80050ee:	2301      	movs	r3, #1
 80050f0:	61bb      	str	r3, [r7, #24]
 80050f2:	e00c      	b.n	800510e <osMutexNew+0xa6>
        }
        else {
          if ((attr->cb_mem == NULL) && (attr->cb_size == 0U)) {
 80050f4:	687b      	ldr	r3, [r7, #4]
 80050f6:	689b      	ldr	r3, [r3, #8]
 80050f8:	2b00      	cmp	r3, #0
 80050fa:	d108      	bne.n	800510e <osMutexNew+0xa6>
 80050fc:	687b      	ldr	r3, [r7, #4]
 80050fe:	68db      	ldr	r3, [r3, #12]
 8005100:	2b00      	cmp	r3, #0
 8005102:	d104      	bne.n	800510e <osMutexNew+0xa6>
            mem = 0;
 8005104:	2300      	movs	r3, #0
 8005106:	61bb      	str	r3, [r7, #24]
 8005108:	e001      	b.n	800510e <osMutexNew+0xa6>
          }
        }
      }
      else {
        mem = 0;
 800510a:	2300      	movs	r3, #0
 800510c:	61bb      	str	r3, [r7, #24]
      }

      if (mem == 1) {
 800510e:	69bb      	ldr	r3, [r7, #24]
 8005110:	2b01      	cmp	r3, #1
 8005112:	d112      	bne.n	800513a <osMutexNew+0xd2>
        if (rmtx != 0U) {
 8005114:	69fb      	ldr	r3, [r7, #28]
 8005116:	2b00      	cmp	r3, #0
 8005118:	d007      	beq.n	800512a <osMutexNew+0xc2>
          hMutex = xSemaphoreCreateRecursiveMutexStatic (attr->cb_mem);
 800511a:	687b      	ldr	r3, [r7, #4]
 800511c:	689b      	ldr	r3, [r3, #8]
 800511e:	4619      	mov	r1, r3
 8005120:	2004      	movs	r0, #4
 8005122:	f000 faae 	bl	8005682 <xQueueCreateMutexStatic>
 8005126:	6278      	str	r0, [r7, #36]	@ 0x24
 8005128:	e016      	b.n	8005158 <osMutexNew+0xf0>
        }
        else {
          hMutex = xSemaphoreCreateMutexStatic (attr->cb_mem);
 800512a:	687b      	ldr	r3, [r7, #4]
 800512c:	689b      	ldr	r3, [r3, #8]
 800512e:	4619      	mov	r1, r3
 8005130:	2001      	movs	r0, #1
 8005132:	f000 faa6 	bl	8005682 <xQueueCreateMutexStatic>
 8005136:	6278      	str	r0, [r7, #36]	@ 0x24
 8005138:	e00e      	b.n	8005158 <osMutexNew+0xf0>
        }
      }
      else {
        if (mem == 0) {
 800513a:	69bb      	ldr	r3, [r7, #24]
 800513c:	2b00      	cmp	r3, #0
 800513e:	d10b      	bne.n	8005158 <osMutexNew+0xf0>
          if (rmtx != 0U) {
 8005140:	69fb      	ldr	r3, [r7, #28]
 8005142:	2b00      	cmp	r3, #0
 8005144:	d004      	beq.n	8005150 <osMutexNew+0xe8>
            hMutex = xSemaphoreCreateRecursiveMutex ();
 8005146:	2004      	movs	r0, #4
 8005148:	f000 fa83 	bl	8005652 <xQueueCreateMutex>
 800514c:	6278      	str	r0, [r7, #36]	@ 0x24
 800514e:	e003      	b.n	8005158 <osMutexNew+0xf0>
          } else {
            hMutex = xSemaphoreCreateMutex ();
 8005150:	2001      	movs	r0, #1
 8005152:	f000 fa7e 	bl	8005652 <xQueueCreateMutex>
 8005156:	6278      	str	r0, [r7, #36]	@ 0x24
          }
        }
      }

      #if (configQUEUE_REGISTRY_SIZE > 0)
      if (hMutex != NULL) {
 8005158:	6a7b      	ldr	r3, [r7, #36]	@ 0x24
 800515a:	2b00      	cmp	r3, #0
 800515c:	d00c      	beq.n	8005178 <osMutexNew+0x110>
        if (attr != NULL) {
 800515e:	687b      	ldr	r3, [r7, #4]
 8005160:	2b00      	cmp	r3, #0
 8005162:	d003      	beq.n	800516c <osMutexNew+0x104>
          name = attr->name;
 8005164:	687b      	ldr	r3, [r7, #4]
 8005166:	681b      	ldr	r3, [r3, #0]
 8005168:	617b      	str	r3, [r7, #20]
 800516a:	e001      	b.n	8005170 <osMutexNew+0x108>
        } else {
          name = NULL;
 800516c:	2300      	movs	r3, #0
 800516e:	617b      	str	r3, [r7, #20]
        }
        vQueueAddToRegistry (hMutex, name);
 8005170:	6979      	ldr	r1, [r7, #20]
 8005172:	6a78      	ldr	r0, [r7, #36]	@ 0x24
 8005174:	f000 fe46 	bl	8005e04 <vQueueAddToRegistry>
      }
      #endif

      if ((hMutex != NULL) && (rmtx != 0U)) {
 8005178:	6a7b      	ldr	r3, [r7, #36]	@ 0x24
 800517a:	2b00      	cmp	r3, #0
 800517c:	d006      	beq.n	800518c <osMutexNew+0x124>
 800517e:	69fb      	ldr	r3, [r7, #28]
 8005180:	2b00      	cmp	r3, #0
 8005182:	d003      	beq.n	800518c <osMutexNew+0x124>
        hMutex = (SemaphoreHandle_t)((uint32_t)hMutex | 1U);
 8005184:	6a7b      	ldr	r3, [r7, #36]	@ 0x24
 8005186:	f043 0301 	orr.w	r3, r3, #1
 800518a:	627b      	str	r3, [r7, #36]	@ 0x24
      }
    }
  }

  return ((osMutexId_t)hMutex);
 800518c:	6a7b      	ldr	r3, [r7, #36]	@ 0x24
}
 800518e:	4618      	mov	r0, r3
 8005190:	3728      	adds	r7, #40	@ 0x28
 8005192:	46bd      	mov	sp, r7
 8005194:	bd80      	pop	{r7, pc}
 8005196:	bf00      	nop
 8005198:	200001e4 	.word	0x200001e4

0800519c <vApplicationGetIdleTaskMemory>:

/*
  vApplicationGetIdleTaskMemory gets called when configSUPPORT_STATIC_ALLOCATION
  equals to 1 and is required for static memory allocation support.
*/
void vApplicationGetIdleTaskMemory (StaticTask_t **ppxIdleTaskTCBBuffer, StackType_t **ppxIdleTaskStackBuffer, uint32_t *pulIdleTaskStackSize) {
 800519c:	b480      	push	{r7}
 800519e:	b085      	sub	sp, #20
 80051a0:	af00      	add	r7, sp, #0
 80051a2:	60f8      	str	r0, [r7, #12]
 80051a4:	60b9      	str	r1, [r7, #8]
 80051a6:	607a      	str	r2, [r7, #4]
  *ppxIdleTaskTCBBuffer   = &Idle_TCB;
 80051a8:	68fb      	ldr	r3, [r7, #12]
 80051aa:	4a07      	ldr	r2, [pc, #28]	@ (80051c8 <vApplicationGetIdleTaskMemory+0x2c>)
 80051ac:	601a      	str	r2, [r3, #0]
  *ppxIdleTaskStackBuffer = &Idle_Stack[0];
 80051ae:	68bb      	ldr	r3, [r7, #8]
 80051b0:	4a06      	ldr	r2, [pc, #24]	@ (80051cc <vApplicationGetIdleTaskMemory+0x30>)
 80051b2:	601a      	str	r2, [r3, #0]
  *pulIdleTaskStackSize   = (uint32_t)configMINIMAL_STACK_SIZE;
 80051b4:	687b      	ldr	r3, [r7, #4]
 80051b6:	2280      	movs	r2, #128	@ 0x80
 80051b8:	601a      	str	r2, [r3, #0]
}
 80051ba:	bf00      	nop
 80051bc:	3714      	adds	r7, #20
 80051be:	46bd      	mov	sp, r7
 80051c0:	f85d 7b04 	ldr.w	r7, [sp], #4
 80051c4:	4770      	bx	lr
 80051c6:	bf00      	nop
 80051c8:	200001e8 	.word	0x200001e8
 80051cc:	20000290 	.word	0x20000290

080051d0 <vApplicationGetTimerTaskMemory>:

/*
  vApplicationGetTimerTaskMemory gets called when configSUPPORT_STATIC_ALLOCATION
  equals to 1 and is required for static memory allocation support.
*/
void vApplicationGetTimerTaskMemory (StaticTask_t **ppxTimerTaskTCBBuffer, StackType_t **ppxTimerTaskStackBuffer, uint32_t *pulTimerTaskStackSize) {
 80051d0:	b480      	push	{r7}
 80051d2:	b085      	sub	sp, #20
 80051d4:	af00      	add	r7, sp, #0
 80051d6:	60f8      	str	r0, [r7, #12]
 80051d8:	60b9      	str	r1, [r7, #8]
 80051da:	607a      	str	r2, [r7, #4]
  *ppxTimerTaskTCBBuffer   = &Timer_TCB;
 80051dc:	68fb      	ldr	r3, [r7, #12]
 80051de:	4a07      	ldr	r2, [pc, #28]	@ (80051fc <vApplicationGetTimerTaskMemory+0x2c>)
 80051e0:	601a      	str	r2, [r3, #0]
  *ppxTimerTaskStackBuffer = &Timer_Stack[0];
 80051e2:	68bb      	ldr	r3, [r7, #8]
 80051e4:	4a06      	ldr	r2, [pc, #24]	@ (8005200 <vApplicationGetTimerTaskMemory+0x30>)
 80051e6:	601a      	str	r2, [r3, #0]
  *pulTimerTaskStackSize   = (uint32_t)configTIMER_TASK_STACK_DEPTH;
 80051e8:	687b      	ldr	r3, [r7, #4]
 80051ea:	f44f 7280 	mov.w	r2, #256	@ 0x100
 80051ee:	601a      	str	r2, [r3, #0]
}
 80051f0:	bf00      	nop
 80051f2:	3714      	adds	r7, #20
 80051f4:	46bd      	mov	sp, r7
 80051f6:	f85d 7b04 	ldr.w	r7, [sp], #4
 80051fa:	4770      	bx	lr
 80051fc:	20000490 	.word	0x20000490
 8005200:	20000538 	.word	0x20000538

08005204 <vListInitialise>:
/*-----------------------------------------------------------
 * PUBLIC LIST API documented in list.h
 *----------------------------------------------------------*/

void vListInitialise( List_t * const pxList )
{
 8005204:	b480      	push	{r7}
 8005206:	b083      	sub	sp, #12
 8005208:	af00      	add	r7, sp, #0
 800520a:	6078      	str	r0, [r7, #4]
	/* The list structure contains a list item which is used to mark the
	end of the list.  To initialise the list the list end is inserted
	as the only list entry. */
	pxList->pxIndex = ( ListItem_t * ) &( pxList->xListEnd );			/*lint !e826 !e740 !e9087 The mini list structure is used as the list end to save RAM.  This is checked and valid. */
 800520c:	687b      	ldr	r3, [r7, #4]
 800520e:	f103 0208 	add.w	r2, r3, #8
 8005212:	687b      	ldr	r3, [r7, #4]
 8005214:	605a      	str	r2, [r3, #4]

	/* The list end value is the highest possible value in the list to
	ensure it remains at the end of the list. */
	pxList->xListEnd.xItemValue = portMAX_DELAY;
 8005216:	687b      	ldr	r3, [r7, #4]
 8005218:	f04f 32ff 	mov.w	r2, #4294967295
 800521c:	609a      	str	r2, [r3, #8]

	/* The list end next and previous pointers point to itself so we know
	when the list is empty. */
	pxList->xListEnd.pxNext = ( ListItem_t * ) &( pxList->xListEnd );	/*lint !e826 !e740 !e9087 The mini list structure is used as the list end to save RAM.  This is checked and valid. */
 800521e:	687b      	ldr	r3, [r7, #4]
 8005220:	f103 0208 	add.w	r2, r3, #8
 8005224:	687b      	ldr	r3, [r7, #4]
 8005226:	60da      	str	r2, [r3, #12]
	pxList->xListEnd.pxPrevious = ( ListItem_t * ) &( pxList->xListEnd );/*lint !e826 !e740 !e9087 The mini list structure is used as the list end to save RAM.  This is checked and valid. */
 8005228:	687b      	ldr	r3, [r7, #4]
 800522a:	f103 0208 	add.w	r2, r3, #8
 800522e:	687b      	ldr	r3, [r7, #4]
 8005230:	611a      	str	r2, [r3, #16]

	pxList->uxNumberOfItems = ( UBaseType_t ) 0U;
 8005232:	687b      	ldr	r3, [r7, #4]
 8005234:	2200      	movs	r2, #0
 8005236:	601a      	str	r2, [r3, #0]

	/* Write known values into the list if
	configUSE_LIST_DATA_INTEGRITY_CHECK_BYTES is set to 1. */
	listSET_LIST_INTEGRITY_CHECK_1_VALUE( pxList );
	listSET_LIST_INTEGRITY_CHECK_2_VALUE( pxList );
}
 8005238:	bf00      	nop
 800523a:	370c      	adds	r7, #12
 800523c:	46bd      	mov	sp, r7
 800523e:	f85d 7b04 	ldr.w	r7, [sp], #4
 8005242:	4770      	bx	lr

08005244 <vListInitialiseItem>:
/*-----------------------------------------------------------*/

void vListInitialiseItem( ListItem_t * const pxItem )
{
 8005244:	b480      	push	{r7}
 8005246:	b083      	sub	sp, #12
 8005248:	af00      	add	r7, sp, #0
 800524a:	6078      	str	r0, [r7, #4]
	/* Make sure the list item is not recorded as being on a list. */
	pxItem->pxContainer = NULL;
 800524c:	687b      	ldr	r3, [r7, #4]
 800524e:	2200      	movs	r2, #0
 8005250:	611a      	str	r2, [r3, #16]

	/* Write known values into the list item if
	configUSE_LIST_DATA_INTEGRITY_CHECK_BYTES is set to 1. */
	listSET_FIRST_LIST_ITEM_INTEGRITY_CHECK_VALUE( pxItem );
	listSET_SECOND_LIST_ITEM_INTEGRITY_CHECK_VALUE( pxItem );
}
 8005252:	bf00      	nop
 8005254:	370c      	adds	r7, #12
 8005256:	46bd      	mov	sp, r7
 8005258:	f85d 7b04 	ldr.w	r7, [sp], #4
 800525c:	4770      	bx	lr

0800525e <vListInsertEnd>:
/*-----------------------------------------------------------*/

void vListInsertEnd( List_t * const pxList, ListItem_t * const pxNewListItem )
{
 800525e:	b480      	push	{r7}
 8005260:	b085      	sub	sp, #20
 8005262:	af00      	add	r7, sp, #0
 8005264:	6078      	str	r0, [r7, #4]
 8005266:	6039      	str	r1, [r7, #0]
ListItem_t * const pxIndex = pxList->pxIndex;
 8005268:	687b      	ldr	r3, [r7, #4]
 800526a:	685b      	ldr	r3, [r3, #4]
 800526c:	60fb      	str	r3, [r7, #12]
	listTEST_LIST_ITEM_INTEGRITY( pxNewListItem );

	/* Insert a new list item into pxList, but rather than sort the list,
	makes the new list item the last item to be removed by a call to
	listGET_OWNER_OF_NEXT_ENTRY(). */
	pxNewListItem->pxNext = pxIndex;
 800526e:	683b      	ldr	r3, [r7, #0]
 8005270:	68fa      	ldr	r2, [r7, #12]
 8005272:	605a      	str	r2, [r3, #4]
	pxNewListItem->pxPrevious = pxIndex->pxPrevious;
 8005274:	68fb      	ldr	r3, [r7, #12]
 8005276:	689a      	ldr	r2, [r3, #8]
 8005278:	683b      	ldr	r3, [r7, #0]
 800527a:	609a      	str	r2, [r3, #8]

	/* Only used during decision coverage testing. */
	mtCOVERAGE_TEST_DELAY();

	pxIndex->pxPrevious->pxNext = pxNewListItem;
 800527c:	68fb      	ldr	r3, [r7, #12]
 800527e:	689b      	ldr	r3, [r3, #8]
 8005280:	683a      	ldr	r2, [r7, #0]
 8005282:	605a      	str	r2, [r3, #4]
	pxIndex->pxPrevious = pxNewListItem;
 8005284:	68fb      	ldr	r3, [r7, #12]
 8005286:	683a      	ldr	r2, [r7, #0]
 8005288:	609a      	str	r2, [r3, #8]

	/* Remember which list the item is in. */
	pxNewListItem->pxContainer = pxList;
 800528a:	683b      	ldr	r3, [r7, #0]
 800528c:	687a      	ldr	r2, [r7, #4]
 800528e:	611a      	str	r2, [r3, #16]

	( pxList->uxNumberOfItems )++;
 8005290:	687b      	ldr	r3, [r7, #4]
 8005292:	681b      	ldr	r3, [r3, #0]
 8005294:	1c5a      	adds	r2, r3, #1
 8005296:	687b      	ldr	r3, [r7, #4]
 8005298:	601a      	str	r2, [r3, #0]
}
 800529a:	bf00      	nop
 800529c:	3714      	adds	r7, #20
 800529e:	46bd      	mov	sp, r7
 80052a0:	f85d 7b04 	ldr.w	r7, [sp], #4
 80052a4:	4770      	bx	lr

080052a6 <vListInsert>:
/*-----------------------------------------------------------*/

void vListInsert( List_t * const pxList, ListItem_t * const pxNewListItem )
{
 80052a6:	b480      	push	{r7}
 80052a8:	b085      	sub	sp, #20
 80052aa:	af00      	add	r7, sp, #0
 80052ac:	6078      	str	r0, [r7, #4]
 80052ae:	6039      	str	r1, [r7, #0]
ListItem_t *pxIterator;
const TickType_t xValueOfInsertion = pxNewListItem->xItemValue;
 80052b0:	683b      	ldr	r3, [r7, #0]
 80052b2:	681b      	ldr	r3, [r3, #0]
 80052b4:	60bb      	str	r3, [r7, #8]
	new list item should be placed after it.  This ensures that TCBs which are
	stored in ready lists (all of which have the same xItemValue value) get a
	share of the CPU.  However, if the xItemValue is the same as the back marker
	the iteration loop below will not end.  Therefore the value is checked
	first, and the algorithm slightly modified if necessary. */
	if( xValueOfInsertion == portMAX_DELAY )
 80052b6:	68bb      	ldr	r3, [r7, #8]
 80052b8:	f1b3 3fff 	cmp.w	r3, #4294967295
 80052bc:	d103      	bne.n	80052c6 <vListInsert+0x20>
	{
		pxIterator = pxList->xListEnd.pxPrevious;
 80052be:	687b      	ldr	r3, [r7, #4]
 80052c0:	691b      	ldr	r3, [r3, #16]
 80052c2:	60fb      	str	r3, [r7, #12]
 80052c4:	e00c      	b.n	80052e0 <vListInsert+0x3a>
			4) Using a queue or semaphore before it has been initialised or
			   before the scheduler has been started (are interrupts firing
			   before vTaskStartScheduler() has been called?).
		**********************************************************************/

		for( pxIterator = ( ListItem_t * ) &( pxList->xListEnd ); pxIterator->pxNext->xItemValue <= xValueOfInsertion; pxIterator = pxIterator->pxNext ) /*lint !e826 !e740 !e9087 The mini list structure is used as the list end to save RAM.  This is checked and valid. *//*lint !e440 The iterator moves to a different value, not xValueOfInsertion. */
 80052c6:	687b      	ldr	r3, [r7, #4]
 80052c8:	3308      	adds	r3, #8
 80052ca:	60fb      	str	r3, [r7, #12]
 80052cc:	e002      	b.n	80052d4 <vListInsert+0x2e>
 80052ce:	68fb      	ldr	r3, [r7, #12]
 80052d0:	685b      	ldr	r3, [r3, #4]
 80052d2:	60fb      	str	r3, [r7, #12]
 80052d4:	68fb      	ldr	r3, [r7, #12]
 80052d6:	685b      	ldr	r3, [r3, #4]
 80052d8:	681b      	ldr	r3, [r3, #0]
 80052da:	68ba      	ldr	r2, [r7, #8]
 80052dc:	429a      	cmp	r2, r3
 80052de:	d2f6      	bcs.n	80052ce <vListInsert+0x28>
			/* There is nothing to do here, just iterating to the wanted
			insertion position. */
		}
	}

	pxNewListItem->pxNext = pxIterator->pxNext;
 80052e0:	68fb      	ldr	r3, [r7, #12]
 80052e2:	685a      	ldr	r2, [r3, #4]
 80052e4:	683b      	ldr	r3, [r7, #0]
 80052e6:	605a      	str	r2, [r3, #4]
	pxNewListItem->pxNext->pxPrevious = pxNewListItem;
 80052e8:	683b      	ldr	r3, [r7, #0]
 80052ea:	685b      	ldr	r3, [r3, #4]
 80052ec:	683a      	ldr	r2, [r7, #0]
 80052ee:	609a      	str	r2, [r3, #8]
	pxNewListItem->pxPrevious = pxIterator;
 80052f0:	683b      	ldr	r3, [r7, #0]
 80052f2:	68fa      	ldr	r2, [r7, #12]
 80052f4:	609a      	str	r2, [r3, #8]
	pxIterator->pxNext = pxNewListItem;
 80052f6:	68fb      	ldr	r3, [r7, #12]
 80052f8:	683a      	ldr	r2, [r7, #0]
 80052fa:	605a      	str	r2, [r3, #4]

	/* Remember which list the item is in.  This allows fast removal of the
	item later. */
	pxNewListItem->pxContainer = pxList;
 80052fc:	683b      	ldr	r3, [r7, #0]
 80052fe:	687a      	ldr	r2, [r7, #4]
 8005300:	611a      	str	r2, [r3, #16]

	( pxList->uxNumberOfItems )++;
 8005302:	687b      	ldr	r3, [r7, #4]
 8005304:	681b      	ldr	r3, [r3, #0]
 8005306:	1c5a      	adds	r2, r3, #1
 8005308:	687b      	ldr	r3, [r7, #4]
 800530a:	601a      	str	r2, [r3, #0]
}
 800530c:	bf00      	nop
 800530e:	3714      	adds	r7, #20
 8005310:	46bd      	mov	sp, r7
 8005312:	f85d 7b04 	ldr.w	r7, [sp], #4
 8005316:	4770      	bx	lr

08005318 <uxListRemove>:
/*-----------------------------------------------------------*/

UBaseType_t uxListRemove( ListItem_t * const pxItemToRemove )
{
 8005318:	b480      	push	{r7}
 800531a:	b085      	sub	sp, #20
 800531c:	af00      	add	r7, sp, #0
 800531e:	6078      	str	r0, [r7, #4]
/* The list item knows which list it is in.  Obtain the list from the list
item. */
List_t * const pxList = pxItemToRemove->pxContainer;
 8005320:	687b      	ldr	r3, [r7, #4]
 8005322:	691b      	ldr	r3, [r3, #16]
 8005324:	60fb      	str	r3, [r7, #12]

	pxItemToRemove->pxNext->pxPrevious = pxItemToRemove->pxPrevious;
 8005326:	687b      	ldr	r3, [r7, #4]
 8005328:	685b      	ldr	r3, [r3, #4]
 800532a:	687a      	ldr	r2, [r7, #4]
 800532c:	6892      	ldr	r2, [r2, #8]
 800532e:	609a      	str	r2, [r3, #8]
	pxItemToRemove->pxPrevious->pxNext = pxItemToRemove->pxNext;
 8005330:	687b      	ldr	r3, [r7, #4]
 8005332:	689b      	ldr	r3, [r3, #8]
 8005334:	687a      	ldr	r2, [r7, #4]
 8005336:	6852      	ldr	r2, [r2, #4]
 8005338:	605a      	str	r2, [r3, #4]

	/* Only used during decision coverage testing. */
	mtCOVERAGE_TEST_DELAY();

	/* Make sure the index is left pointing to a valid item. */
	if( pxList->pxIndex == pxItemToRemove )
 800533a:	68fb      	ldr	r3, [r7, #12]
 800533c:	685b      	ldr	r3, [r3, #4]
 800533e:	687a      	ldr	r2, [r7, #4]
 8005340:	429a      	cmp	r2, r3
 8005342:	d103      	bne.n	800534c <uxListRemove+0x34>
	{
		pxList->pxIndex = pxItemToRemove->pxPrevious;
 8005344:	687b      	ldr	r3, [r7, #4]
 8005346:	689a      	ldr	r2, [r3, #8]
 8005348:	68fb      	ldr	r3, [r7, #12]
 800534a:	605a      	str	r2, [r3, #4]
	else
	{
		mtCOVERAGE_TEST_MARKER();
	}

	pxItemToRemove->pxContainer = NULL;
 800534c:	687b      	ldr	r3, [r7, #4]
 800534e:	2200      	movs	r2, #0
 8005350:	611a      	str	r2, [r3, #16]
	( pxList->uxNumberOfItems )--;
 8005352:	68fb      	ldr	r3, [r7, #12]
 8005354:	681b      	ldr	r3, [r3, #0]
 8005356:	1e5a      	subs	r2, r3, #1
 8005358:	68fb      	ldr	r3, [r7, #12]
 800535a:	601a      	str	r2, [r3, #0]

	return pxList->uxNumberOfItems;
 800535c:	68fb      	ldr	r3, [r7, #12]
 800535e:	681b      	ldr	r3, [r3, #0]
}
 8005360:	4618      	mov	r0, r3
 8005362:	3714      	adds	r7, #20
 8005364:	46bd      	mov	sp, r7
 8005366:	f85d 7b04 	ldr.w	r7, [sp], #4
 800536a:	4770      	bx	lr

0800536c <xQueueGenericReset>:
	}														\
	taskEXIT_CRITICAL()
/*-----------------------------------------------------------*/

BaseType_t xQueueGenericReset( QueueHandle_t xQueue, BaseType_t xNewQueue )
{
 800536c:	b580      	push	{r7, lr}
 800536e:	b084      	sub	sp, #16
 8005370:	af00      	add	r7, sp, #0
 8005372:	6078      	str	r0, [r7, #4]
 8005374:	6039      	str	r1, [r7, #0]
Queue_t * const pxQueue = xQueue;
 8005376:	687b      	ldr	r3, [r7, #4]
 8005378:	60fb      	str	r3, [r7, #12]

	configASSERT( pxQueue );
 800537a:	68fb      	ldr	r3, [r7, #12]
 800537c:	2b00      	cmp	r3, #0
 800537e:	d10d      	bne.n	800539c <xQueueGenericReset+0x30>

portFORCE_INLINE static void vPortRaiseBASEPRI( void )
{
uint32_t ulNewBASEPRI;

	__asm volatile
 8005380:	f04f 0350 	mov.w	r3, #80	@ 0x50
 8005384:	b672      	cpsid	i
 8005386:	f383 8811 	msr	BASEPRI, r3
 800538a:	f3bf 8f6f 	isb	sy
 800538e:	f3bf 8f4f 	dsb	sy
 8005392:	b662      	cpsie	i
 8005394:	60bb      	str	r3, [r7, #8]
		"	isb														\n" \
		"	dsb														\n" \
		"	cpsie i													\n" \
		:"=r" (ulNewBASEPRI) : "i" ( configMAX_SYSCALL_INTERRUPT_PRIORITY ) : "memory"
	);
}
 8005396:	bf00      	nop
 8005398:	bf00      	nop
 800539a:	e7fd      	b.n	8005398 <xQueueGenericReset+0x2c>

	taskENTER_CRITICAL();
 800539c:	f002 fa2e 	bl	80077fc <vPortEnterCritical>
	{
		pxQueue->u.xQueue.pcTail = pxQueue->pcHead + ( pxQueue->uxLength * pxQueue->uxItemSize ); /*lint !e9016 Pointer arithmetic allowed on char types, especially when it assists conveying intent. */
 80053a0:	68fb      	ldr	r3, [r7, #12]
 80053a2:	681a      	ldr	r2, [r3, #0]
 80053a4:	68fb      	ldr	r3, [r7, #12]
 80053a6:	6bdb      	ldr	r3, [r3, #60]	@ 0x3c
 80053a8:	68f9      	ldr	r1, [r7, #12]
 80053aa:	6c09      	ldr	r1, [r1, #64]	@ 0x40
 80053ac:	fb01 f303 	mul.w	r3, r1, r3
 80053b0:	441a      	add	r2, r3
 80053b2:	68fb      	ldr	r3, [r7, #12]
 80053b4:	609a      	str	r2, [r3, #8]
		pxQueue->uxMessagesWaiting = ( UBaseType_t ) 0U;
 80053b6:	68fb      	ldr	r3, [r7, #12]
 80053b8:	2200      	movs	r2, #0
 80053ba:	639a      	str	r2, [r3, #56]	@ 0x38
		pxQueue->pcWriteTo = pxQueue->pcHead;
 80053bc:	68fb      	ldr	r3, [r7, #12]
 80053be:	681a      	ldr	r2, [r3, #0]
 80053c0:	68fb      	ldr	r3, [r7, #12]
 80053c2:	605a      	str	r2, [r3, #4]
		pxQueue->u.xQueue.pcReadFrom = pxQueue->pcHead + ( ( pxQueue->uxLength - 1U ) * pxQueue->uxItemSize ); /*lint !e9016 Pointer arithmetic allowed on char types, especially when it assists conveying intent. */
 80053c4:	68fb      	ldr	r3, [r7, #12]
 80053c6:	681a      	ldr	r2, [r3, #0]
 80053c8:	68fb      	ldr	r3, [r7, #12]
 80053ca:	6bdb      	ldr	r3, [r3, #60]	@ 0x3c
 80053cc:	3b01      	subs	r3, #1
 80053ce:	68f9      	ldr	r1, [r7, #12]
 80053d0:	6c09      	ldr	r1, [r1, #64]	@ 0x40
 80053d2:	fb01 f303 	mul.w	r3, r1, r3
 80053d6:	441a      	add	r2, r3
 80053d8:	68fb      	ldr	r3, [r7, #12]
 80053da:	60da      	str	r2, [r3, #12]
		pxQueue->cRxLock = queueUNLOCKED;
 80053dc:	68fb      	ldr	r3, [r7, #12]
 80053de:	22ff      	movs	r2, #255	@ 0xff
 80053e0:	f883 2044 	strb.w	r2, [r3, #68]	@ 0x44
		pxQueue->cTxLock = queueUNLOCKED;
 80053e4:	68fb      	ldr	r3, [r7, #12]
 80053e6:	22ff      	movs	r2, #255	@ 0xff
 80053e8:	f883 2045 	strb.w	r2, [r3, #69]	@ 0x45

		if( xNewQueue == pdFALSE )
 80053ec:	683b      	ldr	r3, [r7, #0]
 80053ee:	2b00      	cmp	r3, #0
 80053f0:	d114      	bne.n	800541c <xQueueGenericReset+0xb0>
			/* If there are tasks blocked waiting to read from the queue, then
			the tasks will remain blocked as after this function exits the queue
			will still be empty.  If there are tasks blocked waiting to write to
			the queue, then one should be unblocked as after this function exits
			it will be possible to write to it. */
			if( listLIST_IS_EMPTY( &( pxQueue->xTasksWaitingToSend ) ) == pdFALSE )
 80053f2:	68fb      	ldr	r3, [r7, #12]
 80053f4:	691b      	ldr	r3, [r3, #16]
 80053f6:	2b00      	cmp	r3, #0
 80053f8:	d01a      	beq.n	8005430 <xQueueGenericReset+0xc4>
			{
				if( xTaskRemoveFromEventList( &( pxQueue->xTasksWaitingToSend ) ) != pdFALSE )
 80053fa:	68fb      	ldr	r3, [r7, #12]
 80053fc:	3310      	adds	r3, #16
 80053fe:	4618      	mov	r0, r3
 8005400:	f001 fa08 	bl	8006814 <xTaskRemoveFromEventList>
 8005404:	4603      	mov	r3, r0
 8005406:	2b00      	cmp	r3, #0
 8005408:	d012      	beq.n	8005430 <xQueueGenericReset+0xc4>
				{
					queueYIELD_IF_USING_PREEMPTION();
 800540a:	4b0d      	ldr	r3, [pc, #52]	@ (8005440 <xQueueGenericReset+0xd4>)
 800540c:	f04f 5280 	mov.w	r2, #268435456	@ 0x10000000
 8005410:	601a      	str	r2, [r3, #0]
 8005412:	f3bf 8f4f 	dsb	sy
 8005416:	f3bf 8f6f 	isb	sy
 800541a:	e009      	b.n	8005430 <xQueueGenericReset+0xc4>
			}
		}
		else
		{
			/* Ensure the event queues start in the correct state. */
			vListInitialise( &( pxQueue->xTasksWaitingToSend ) );
 800541c:	68fb      	ldr	r3, [r7, #12]
 800541e:	3310      	adds	r3, #16
 8005420:	4618      	mov	r0, r3
 8005422:	f7ff feef 	bl	8005204 <vListInitialise>
			vListInitialise( &( pxQueue->xTasksWaitingToReceive ) );
 8005426:	68fb      	ldr	r3, [r7, #12]
 8005428:	3324      	adds	r3, #36	@ 0x24
 800542a:	4618      	mov	r0, r3
 800542c:	f7ff feea 	bl	8005204 <vListInitialise>
		}
	}
	taskEXIT_CRITICAL();
 8005430:	f002 fa1a 	bl	8007868 <vPortExitCritical>

	/* A value is returned for calling semantic consistency with previous
	versions. */
	return pdPASS;
 8005434:	2301      	movs	r3, #1
}
 8005436:	4618      	mov	r0, r3
 8005438:	3710      	adds	r7, #16
 800543a:	46bd      	mov	sp, r7
 800543c:	bd80      	pop	{r7, pc}
 800543e:	bf00      	nop
 8005440:	e000ed04 	.word	0xe000ed04

08005444 <xQueueGenericCreateStatic>:
/*-----------------------------------------------------------*/

#if( configSUPPORT_STATIC_ALLOCATION == 1 )

	QueueHandle_t xQueueGenericCreateStatic( const UBaseType_t uxQueueLength, const UBaseType_t uxItemSize, uint8_t *pucQueueStorage, StaticQueue_t *pxStaticQueue, const uint8_t ucQueueType )
	{
 8005444:	b580      	push	{r7, lr}
 8005446:	b08e      	sub	sp, #56	@ 0x38
 8005448:	af02      	add	r7, sp, #8
 800544a:	60f8      	str	r0, [r7, #12]
 800544c:	60b9      	str	r1, [r7, #8]
 800544e:	607a      	str	r2, [r7, #4]
 8005450:	603b      	str	r3, [r7, #0]
	Queue_t *pxNewQueue;

		configASSERT( uxQueueLength > ( UBaseType_t ) 0 );
 8005452:	68fb      	ldr	r3, [r7, #12]
 8005454:	2b00      	cmp	r3, #0
 8005456:	d10d      	bne.n	8005474 <xQueueGenericCreateStatic+0x30>
	__asm volatile
 8005458:	f04f 0350 	mov.w	r3, #80	@ 0x50
 800545c:	b672      	cpsid	i
 800545e:	f383 8811 	msr	BASEPRI, r3
 8005462:	f3bf 8f6f 	isb	sy
 8005466:	f3bf 8f4f 	dsb	sy
 800546a:	b662      	cpsie	i
 800546c:	62bb      	str	r3, [r7, #40]	@ 0x28
}
 800546e:	bf00      	nop
 8005470:	bf00      	nop
 8005472:	e7fd      	b.n	8005470 <xQueueGenericCreateStatic+0x2c>

		/* The StaticQueue_t structure and the queue storage area must be
		supplied. */
		configASSERT( pxStaticQueue != NULL );
 8005474:	683b      	ldr	r3, [r7, #0]
 8005476:	2b00      	cmp	r3, #0
 8005478:	d10d      	bne.n	8005496 <xQueueGenericCreateStatic+0x52>
	__asm volatile
 800547a:	f04f 0350 	mov.w	r3, #80	@ 0x50
 800547e:	b672      	cpsid	i
 8005480:	f383 8811 	msr	BASEPRI, r3
 8005484:	f3bf 8f6f 	isb	sy
 8005488:	f3bf 8f4f 	dsb	sy
 800548c:	b662      	cpsie	i
 800548e:	627b      	str	r3, [r7, #36]	@ 0x24
}
 8005490:	bf00      	nop
 8005492:	bf00      	nop
 8005494:	e7fd      	b.n	8005492 <xQueueGenericCreateStatic+0x4e>

		/* A queue storage area should be provided if the item size is not 0, and
		should not be provided if the item size is 0. */
		configASSERT( !( ( pucQueueStorage != NULL ) && ( uxItemSize == 0 ) ) );
 8005496:	687b      	ldr	r3, [r7, #4]
 8005498:	2b00      	cmp	r3, #0
 800549a:	d002      	beq.n	80054a2 <xQueueGenericCreateStatic+0x5e>
 800549c:	68bb      	ldr	r3, [r7, #8]
 800549e:	2b00      	cmp	r3, #0
 80054a0:	d001      	beq.n	80054a6 <xQueueGenericCreateStatic+0x62>
 80054a2:	2301      	movs	r3, #1
 80054a4:	e000      	b.n	80054a8 <xQueueGenericCreateStatic+0x64>
 80054a6:	2300      	movs	r3, #0
 80054a8:	2b00      	cmp	r3, #0
 80054aa:	d10d      	bne.n	80054c8 <xQueueGenericCreateStatic+0x84>
	__asm volatile
 80054ac:	f04f 0350 	mov.w	r3, #80	@ 0x50
 80054b0:	b672      	cpsid	i
 80054b2:	f383 8811 	msr	BASEPRI, r3
 80054b6:	f3bf 8f6f 	isb	sy
 80054ba:	f3bf 8f4f 	dsb	sy
 80054be:	b662      	cpsie	i
 80054c0:	623b      	str	r3, [r7, #32]
}
 80054c2:	bf00      	nop
 80054c4:	bf00      	nop
 80054c6:	e7fd      	b.n	80054c4 <xQueueGenericCreateStatic+0x80>
		configASSERT( !( ( pucQueueStorage == NULL ) && ( uxItemSize != 0 ) ) );
 80054c8:	687b      	ldr	r3, [r7, #4]
 80054ca:	2b00      	cmp	r3, #0
 80054cc:	d102      	bne.n	80054d4 <xQueueGenericCreateStatic+0x90>
 80054ce:	68bb      	ldr	r3, [r7, #8]
 80054d0:	2b00      	cmp	r3, #0
 80054d2:	d101      	bne.n	80054d8 <xQueueGenericCreateStatic+0x94>
 80054d4:	2301      	movs	r3, #1
 80054d6:	e000      	b.n	80054da <xQueueGenericCreateStatic+0x96>
 80054d8:	2300      	movs	r3, #0
 80054da:	2b00      	cmp	r3, #0
 80054dc:	d10d      	bne.n	80054fa <xQueueGenericCreateStatic+0xb6>
	__asm volatile
 80054de:	f04f 0350 	mov.w	r3, #80	@ 0x50
 80054e2:	b672      	cpsid	i
 80054e4:	f383 8811 	msr	BASEPRI, r3
 80054e8:	f3bf 8f6f 	isb	sy
 80054ec:	f3bf 8f4f 	dsb	sy
 80054f0:	b662      	cpsie	i
 80054f2:	61fb      	str	r3, [r7, #28]
}
 80054f4:	bf00      	nop
 80054f6:	bf00      	nop
 80054f8:	e7fd      	b.n	80054f6 <xQueueGenericCreateStatic+0xb2>
		#if( configASSERT_DEFINED == 1 )
		{
			/* Sanity check that the size of the structure used to declare a
			variable of type StaticQueue_t or StaticSemaphore_t equals the size of
			the real queue and semaphore structures. */
			volatile size_t xSize = sizeof( StaticQueue_t );
 80054fa:	2350      	movs	r3, #80	@ 0x50
 80054fc:	617b      	str	r3, [r7, #20]
			configASSERT( xSize == sizeof( Queue_t ) );
 80054fe:	697b      	ldr	r3, [r7, #20]
 8005500:	2b50      	cmp	r3, #80	@ 0x50
 8005502:	d00d      	beq.n	8005520 <xQueueGenericCreateStatic+0xdc>
	__asm volatile
 8005504:	f04f 0350 	mov.w	r3, #80	@ 0x50
 8005508:	b672      	cpsid	i
 800550a:	f383 8811 	msr	BASEPRI, r3
 800550e:	f3bf 8f6f 	isb	sy
 8005512:	f3bf 8f4f 	dsb	sy
 8005516:	b662      	cpsie	i
 8005518:	61bb      	str	r3, [r7, #24]
}
 800551a:	bf00      	nop
 800551c:	bf00      	nop
 800551e:	e7fd      	b.n	800551c <xQueueGenericCreateStatic+0xd8>
			( void ) xSize; /* Keeps lint quiet when configASSERT() is not defined. */
 8005520:	697b      	ldr	r3, [r7, #20]
		#endif /* configASSERT_DEFINED */

		/* The address of a statically allocated queue was passed in, use it.
		The address of a statically allocated storage area was also passed in
		but is already set. */
		pxNewQueue = ( Queue_t * ) pxStaticQueue; /*lint !e740 !e9087 Unusual cast is ok as the structures are designed to have the same alignment, and the size is checked by an assert. */
 8005522:	683b      	ldr	r3, [r7, #0]
 8005524:	62fb      	str	r3, [r7, #44]	@ 0x2c

		if( pxNewQueue != NULL )
 8005526:	6afb      	ldr	r3, [r7, #44]	@ 0x2c
 8005528:	2b00      	cmp	r3, #0
 800552a:	d00d      	beq.n	8005548 <xQueueGenericCreateStatic+0x104>
			#if( configSUPPORT_DYNAMIC_ALLOCATION == 1 )
			{
				/* Queues can be allocated wither statically or dynamically, so
				note this queue was allocated statically in case the queue is
				later deleted. */
				pxNewQueue->ucStaticallyAllocated = pdTRUE;
 800552c:	6afb      	ldr	r3, [r7, #44]	@ 0x2c
 800552e:	2201      	movs	r2, #1
 8005530:	f883 2046 	strb.w	r2, [r3, #70]	@ 0x46
			}
			#endif /* configSUPPORT_DYNAMIC_ALLOCATION */

			prvInitialiseNewQueue( uxQueueLength, uxItemSize, pucQueueStorage, ucQueueType, pxNewQueue );
 8005534:	f897 2038 	ldrb.w	r2, [r7, #56]	@ 0x38
 8005538:	6afb      	ldr	r3, [r7, #44]	@ 0x2c
 800553a:	9300      	str	r3, [sp, #0]
 800553c:	4613      	mov	r3, r2
 800553e:	687a      	ldr	r2, [r7, #4]
 8005540:	68b9      	ldr	r1, [r7, #8]
 8005542:	68f8      	ldr	r0, [r7, #12]
 8005544:	f000 f848 	bl	80055d8 <prvInitialiseNewQueue>
		{
			traceQUEUE_CREATE_FAILED( ucQueueType );
			mtCOVERAGE_TEST_MARKER();
		}

		return pxNewQueue;
 8005548:	6afb      	ldr	r3, [r7, #44]	@ 0x2c
	}
 800554a:	4618      	mov	r0, r3
 800554c:	3730      	adds	r7, #48	@ 0x30
 800554e:	46bd      	mov	sp, r7
 8005550:	bd80      	pop	{r7, pc}

08005552 <xQueueGenericCreate>:
/*-----------------------------------------------------------*/

#if( configSUPPORT_DYNAMIC_ALLOCATION == 1 )

	QueueHandle_t xQueueGenericCreate( const UBaseType_t uxQueueLength, const UBaseType_t uxItemSize, const uint8_t ucQueueType )
	{
 8005552:	b580      	push	{r7, lr}
 8005554:	b08a      	sub	sp, #40	@ 0x28
 8005556:	af02      	add	r7, sp, #8
 8005558:	60f8      	str	r0, [r7, #12]
 800555a:	60b9      	str	r1, [r7, #8]
 800555c:	4613      	mov	r3, r2
 800555e:	71fb      	strb	r3, [r7, #7]
	Queue_t *pxNewQueue;
	size_t xQueueSizeInBytes;
	uint8_t *pucQueueStorage;

		configASSERT( uxQueueLength > ( UBaseType_t ) 0 );
 8005560:	68fb      	ldr	r3, [r7, #12]
 8005562:	2b00      	cmp	r3, #0
 8005564:	d10d      	bne.n	8005582 <xQueueGenericCreate+0x30>
	__asm volatile
 8005566:	f04f 0350 	mov.w	r3, #80	@ 0x50
 800556a:	b672      	cpsid	i
 800556c:	f383 8811 	msr	BASEPRI, r3
 8005570:	f3bf 8f6f 	isb	sy
 8005574:	f3bf 8f4f 	dsb	sy
 8005578:	b662      	cpsie	i
 800557a:	613b      	str	r3, [r7, #16]
}
 800557c:	bf00      	nop
 800557e:	bf00      	nop
 8005580:	e7fd      	b.n	800557e <xQueueGenericCreate+0x2c>

		if( uxItemSize == ( UBaseType_t ) 0 )
 8005582:	68bb      	ldr	r3, [r7, #8]
 8005584:	2b00      	cmp	r3, #0
 8005586:	d102      	bne.n	800558e <xQueueGenericCreate+0x3c>
		{
			/* There is not going to be a queue storage area. */
			xQueueSizeInBytes = ( size_t ) 0;
 8005588:	2300      	movs	r3, #0
 800558a:	61fb      	str	r3, [r7, #28]
 800558c:	e004      	b.n	8005598 <xQueueGenericCreate+0x46>
		}
		else
		{
			/* Allocate enough space to hold the maximum number of items that
			can be in the queue at any time. */
			xQueueSizeInBytes = ( size_t ) ( uxQueueLength * uxItemSize ); /*lint !e961 MISRA exception as the casts are only redundant for some ports. */
 800558e:	68fb      	ldr	r3, [r7, #12]
 8005590:	68ba      	ldr	r2, [r7, #8]
 8005592:	fb02 f303 	mul.w	r3, r2, r3
 8005596:	61fb      	str	r3, [r7, #28]
		alignment requirements of the Queue_t structure - which in this case
		is an int8_t *.  Therefore, whenever the stack alignment requirements
		are greater than or equal to the pointer to char requirements the cast
		is safe.  In other cases alignment requirements are not strict (one or
		two bytes). */
		pxNewQueue = ( Queue_t * ) pvPortMalloc( sizeof( Queue_t ) + xQueueSizeInBytes ); /*lint !e9087 !e9079 see comment above. */
 8005598:	69fb      	ldr	r3, [r7, #28]
 800559a:	3350      	adds	r3, #80	@ 0x50
 800559c:	4618      	mov	r0, r3
 800559e:	f002 fa5b 	bl	8007a58 <pvPortMalloc>
 80055a2:	61b8      	str	r0, [r7, #24]

		if( pxNewQueue != NULL )
 80055a4:	69bb      	ldr	r3, [r7, #24]
 80055a6:	2b00      	cmp	r3, #0
 80055a8:	d011      	beq.n	80055ce <xQueueGenericCreate+0x7c>
		{
			/* Jump past the queue structure to find the location of the queue
			storage area. */
			pucQueueStorage = ( uint8_t * ) pxNewQueue;
 80055aa:	69bb      	ldr	r3, [r7, #24]
 80055ac:	617b      	str	r3, [r7, #20]
			pucQueueStorage += sizeof( Queue_t ); /*lint !e9016 Pointer arithmetic allowed on char types, especially when it assists conveying intent. */
 80055ae:	697b      	ldr	r3, [r7, #20]
 80055b0:	3350      	adds	r3, #80	@ 0x50
 80055b2:	617b      	str	r3, [r7, #20]
			#if( configSUPPORT_STATIC_ALLOCATION == 1 )
			{
				/* Queues can be created either statically or dynamically, so
				note this task was created dynamically in case it is later
				deleted. */
				pxNewQueue->ucStaticallyAllocated = pdFALSE;
 80055b4:	69bb      	ldr	r3, [r7, #24]
 80055b6:	2200      	movs	r2, #0
 80055b8:	f883 2046 	strb.w	r2, [r3, #70]	@ 0x46
			}
			#endif /* configSUPPORT_STATIC_ALLOCATION */

			prvInitialiseNewQueue( uxQueueLength, uxItemSize, pucQueueStorage, ucQueueType, pxNewQueue );
 80055bc:	79fa      	ldrb	r2, [r7, #7]
 80055be:	69bb      	ldr	r3, [r7, #24]
 80055c0:	9300      	str	r3, [sp, #0]
 80055c2:	4613      	mov	r3, r2
 80055c4:	697a      	ldr	r2, [r7, #20]
 80055c6:	68b9      	ldr	r1, [r7, #8]
 80055c8:	68f8      	ldr	r0, [r7, #12]
 80055ca:	f000 f805 	bl	80055d8 <prvInitialiseNewQueue>
		{
			traceQUEUE_CREATE_FAILED( ucQueueType );
			mtCOVERAGE_TEST_MARKER();
		}

		return pxNewQueue;
 80055ce:	69bb      	ldr	r3, [r7, #24]
	}
 80055d0:	4618      	mov	r0, r3
 80055d2:	3720      	adds	r7, #32
 80055d4:	46bd      	mov	sp, r7
 80055d6:	bd80      	pop	{r7, pc}

080055d8 <prvInitialiseNewQueue>:

#endif /* configSUPPORT_STATIC_ALLOCATION */
/*-----------------------------------------------------------*/

static void prvInitialiseNewQueue( const UBaseType_t uxQueueLength, const UBaseType_t uxItemSize, uint8_t *pucQueueStorage, const uint8_t ucQueueType, Queue_t *pxNewQueue )
{
 80055d8:	b580      	push	{r7, lr}
 80055da:	b084      	sub	sp, #16
 80055dc:	af00      	add	r7, sp, #0
 80055de:	60f8      	str	r0, [r7, #12]
 80055e0:	60b9      	str	r1, [r7, #8]
 80055e2:	607a      	str	r2, [r7, #4]
 80055e4:	70fb      	strb	r3, [r7, #3]
	/* Remove compiler warnings about unused parameters should
	configUSE_TRACE_FACILITY not be set to 1. */
	( void ) ucQueueType;

	if( uxItemSize == ( UBaseType_t ) 0 )
 80055e6:	68bb      	ldr	r3, [r7, #8]
 80055e8:	2b00      	cmp	r3, #0
 80055ea:	d103      	bne.n	80055f4 <prvInitialiseNewQueue+0x1c>
	{
		/* No RAM was allocated for the queue storage area, but PC head cannot
		be set to NULL because NULL is used as a key to say the queue is used as
		a mutex.  Therefore just set pcHead to point to the queue as a benign
		value that is known to be within the memory map. */
		pxNewQueue->pcHead = ( int8_t * ) pxNewQueue;
 80055ec:	69bb      	ldr	r3, [r7, #24]
 80055ee:	69ba      	ldr	r2, [r7, #24]
 80055f0:	601a      	str	r2, [r3, #0]
 80055f2:	e002      	b.n	80055fa <prvInitialiseNewQueue+0x22>
	}
	else
	{
		/* Set the head to the start of the queue storage area. */
		pxNewQueue->pcHead = ( int8_t * ) pucQueueStorage;
 80055f4:	69bb      	ldr	r3, [r7, #24]
 80055f6:	687a      	ldr	r2, [r7, #4]
 80055f8:	601a      	str	r2, [r3, #0]
	}

	/* Initialise the queue members as described where the queue type is
	defined. */
	pxNewQueue->uxLength = uxQueueLength;
 80055fa:	69bb      	ldr	r3, [r7, #24]
 80055fc:	68fa      	ldr	r2, [r7, #12]
 80055fe:	63da      	str	r2, [r3, #60]	@ 0x3c
	pxNewQueue->uxItemSize = uxItemSize;
 8005600:	69bb      	ldr	r3, [r7, #24]
 8005602:	68ba      	ldr	r2, [r7, #8]
 8005604:	641a      	str	r2, [r3, #64]	@ 0x40
	( void ) xQueueGenericReset( pxNewQueue, pdTRUE );
 8005606:	2101      	movs	r1, #1
 8005608:	69b8      	ldr	r0, [r7, #24]
 800560a:	f7ff feaf 	bl	800536c <xQueueGenericReset>

	#if ( configUSE_TRACE_FACILITY == 1 )
	{
		pxNewQueue->ucQueueType = ucQueueType;
 800560e:	69bb      	ldr	r3, [r7, #24]
 8005610:	78fa      	ldrb	r2, [r7, #3]
 8005612:	f883 204c 	strb.w	r2, [r3, #76]	@ 0x4c
		pxNewQueue->pxQueueSetContainer = NULL;
	}
	#endif /* configUSE_QUEUE_SETS */

	traceQUEUE_CREATE( pxNewQueue );
}
 8005616:	bf00      	nop
 8005618:	3710      	adds	r7, #16
 800561a:	46bd      	mov	sp, r7
 800561c:	bd80      	pop	{r7, pc}

0800561e <prvInitialiseMutex>:
/*-----------------------------------------------------------*/

#if( configUSE_MUTEXES == 1 )

	static void prvInitialiseMutex( Queue_t *pxNewQueue )
	{
 800561e:	b580      	push	{r7, lr}
 8005620:	b082      	sub	sp, #8
 8005622:	af00      	add	r7, sp, #0
 8005624:	6078      	str	r0, [r7, #4]
		if( pxNewQueue != NULL )
 8005626:	687b      	ldr	r3, [r7, #4]
 8005628:	2b00      	cmp	r3, #0
 800562a:	d00e      	beq.n	800564a <prvInitialiseMutex+0x2c>
		{
			/* The queue create function will set all the queue structure members
			correctly for a generic queue, but this function is creating a
			mutex.  Overwrite those members that need to be set differently -
			in particular the information required for priority inheritance. */
			pxNewQueue->u.xSemaphore.xMutexHolder = NULL;
 800562c:	687b      	ldr	r3, [r7, #4]
 800562e:	2200      	movs	r2, #0
 8005630:	609a      	str	r2, [r3, #8]
			pxNewQueue->uxQueueType = queueQUEUE_IS_MUTEX;
 8005632:	687b      	ldr	r3, [r7, #4]
 8005634:	2200      	movs	r2, #0
 8005636:	601a      	str	r2, [r3, #0]

			/* In case this is a recursive mutex. */
			pxNewQueue->u.xSemaphore.uxRecursiveCallCount = 0;
 8005638:	687b      	ldr	r3, [r7, #4]
 800563a:	2200      	movs	r2, #0
 800563c:	60da      	str	r2, [r3, #12]

			traceCREATE_MUTEX( pxNewQueue );

			/* Start with the semaphore in the expected state. */
			( void ) xQueueGenericSend( pxNewQueue, NULL, ( TickType_t ) 0U, queueSEND_TO_BACK );
 800563e:	2300      	movs	r3, #0
 8005640:	2200      	movs	r2, #0
 8005642:	2100      	movs	r1, #0
 8005644:	6878      	ldr	r0, [r7, #4]
 8005646:	f000 f837 	bl	80056b8 <xQueueGenericSend>
		}
		else
		{
			traceCREATE_MUTEX_FAILED();
		}
	}
 800564a:	bf00      	nop
 800564c:	3708      	adds	r7, #8
 800564e:	46bd      	mov	sp, r7
 8005650:	bd80      	pop	{r7, pc}

08005652 <xQueueCreateMutex>:
/*-----------------------------------------------------------*/

#if( ( configUSE_MUTEXES == 1 ) && ( configSUPPORT_DYNAMIC_ALLOCATION == 1 ) )

	QueueHandle_t xQueueCreateMutex( const uint8_t ucQueueType )
	{
 8005652:	b580      	push	{r7, lr}
 8005654:	b086      	sub	sp, #24
 8005656:	af00      	add	r7, sp, #0
 8005658:	4603      	mov	r3, r0
 800565a:	71fb      	strb	r3, [r7, #7]
	QueueHandle_t xNewQueue;
	const UBaseType_t uxMutexLength = ( UBaseType_t ) 1, uxMutexSize = ( UBaseType_t ) 0;
 800565c:	2301      	movs	r3, #1
 800565e:	617b      	str	r3, [r7, #20]
 8005660:	2300      	movs	r3, #0
 8005662:	613b      	str	r3, [r7, #16]

		xNewQueue = xQueueGenericCreate( uxMutexLength, uxMutexSize, ucQueueType );
 8005664:	79fb      	ldrb	r3, [r7, #7]
 8005666:	461a      	mov	r2, r3
 8005668:	6939      	ldr	r1, [r7, #16]
 800566a:	6978      	ldr	r0, [r7, #20]
 800566c:	f7ff ff71 	bl	8005552 <xQueueGenericCreate>
 8005670:	60f8      	str	r0, [r7, #12]
		prvInitialiseMutex( ( Queue_t * ) xNewQueue );
 8005672:	68f8      	ldr	r0, [r7, #12]
 8005674:	f7ff ffd3 	bl	800561e <prvInitialiseMutex>

		return xNewQueue;
 8005678:	68fb      	ldr	r3, [r7, #12]
	}
 800567a:	4618      	mov	r0, r3
 800567c:	3718      	adds	r7, #24
 800567e:	46bd      	mov	sp, r7
 8005680:	bd80      	pop	{r7, pc}

08005682 <xQueueCreateMutexStatic>:
/*-----------------------------------------------------------*/

#if( ( configUSE_MUTEXES == 1 ) && ( configSUPPORT_STATIC_ALLOCATION == 1 ) )

	QueueHandle_t xQueueCreateMutexStatic( const uint8_t ucQueueType, StaticQueue_t *pxStaticQueue )
	{
 8005682:	b580      	push	{r7, lr}
 8005684:	b088      	sub	sp, #32
 8005686:	af02      	add	r7, sp, #8
 8005688:	4603      	mov	r3, r0
 800568a:	6039      	str	r1, [r7, #0]
 800568c:	71fb      	strb	r3, [r7, #7]
	QueueHandle_t xNewQueue;
	const UBaseType_t uxMutexLength = ( UBaseType_t ) 1, uxMutexSize = ( UBaseType_t ) 0;
 800568e:	2301      	movs	r3, #1
 8005690:	617b      	str	r3, [r7, #20]
 8005692:	2300      	movs	r3, #0
 8005694:	613b      	str	r3, [r7, #16]

		/* Prevent compiler warnings about unused parameters if
		configUSE_TRACE_FACILITY does not equal 1. */
		( void ) ucQueueType;

		xNewQueue = xQueueGenericCreateStatic( uxMutexLength, uxMutexSize, NULL, pxStaticQueue, ucQueueType );
 8005696:	79fb      	ldrb	r3, [r7, #7]
 8005698:	9300      	str	r3, [sp, #0]
 800569a:	683b      	ldr	r3, [r7, #0]
 800569c:	2200      	movs	r2, #0
 800569e:	6939      	ldr	r1, [r7, #16]
 80056a0:	6978      	ldr	r0, [r7, #20]
 80056a2:	f7ff fecf 	bl	8005444 <xQueueGenericCreateStatic>
 80056a6:	60f8      	str	r0, [r7, #12]
		prvInitialiseMutex( ( Queue_t * ) xNewQueue );
 80056a8:	68f8      	ldr	r0, [r7, #12]
 80056aa:	f7ff ffb8 	bl	800561e <prvInitialiseMutex>

		return xNewQueue;
 80056ae:	68fb      	ldr	r3, [r7, #12]
	}
 80056b0:	4618      	mov	r0, r3
 80056b2:	3718      	adds	r7, #24
 80056b4:	46bd      	mov	sp, r7
 80056b6:	bd80      	pop	{r7, pc}

080056b8 <xQueueGenericSend>:

#endif /* ( ( configUSE_COUNTING_SEMAPHORES == 1 ) && ( configSUPPORT_DYNAMIC_ALLOCATION == 1 ) ) */
/*-----------------------------------------------------------*/

BaseType_t xQueueGenericSend( QueueHandle_t xQueue, const void * const pvItemToQueue, TickType_t xTicksToWait, const BaseType_t xCopyPosition )
{
 80056b8:	b580      	push	{r7, lr}
 80056ba:	b08e      	sub	sp, #56	@ 0x38
 80056bc:	af00      	add	r7, sp, #0
 80056be:	60f8      	str	r0, [r7, #12]
 80056c0:	60b9      	str	r1, [r7, #8]
 80056c2:	607a      	str	r2, [r7, #4]
 80056c4:	603b      	str	r3, [r7, #0]
BaseType_t xEntryTimeSet = pdFALSE, xYieldRequired;
 80056c6:	2300      	movs	r3, #0
 80056c8:	637b      	str	r3, [r7, #52]	@ 0x34
TimeOut_t xTimeOut;
Queue_t * const pxQueue = xQueue;
 80056ca:	68fb      	ldr	r3, [r7, #12]
 80056cc:	633b      	str	r3, [r7, #48]	@ 0x30

	configASSERT( pxQueue );
 80056ce:	6b3b      	ldr	r3, [r7, #48]	@ 0x30
 80056d0:	2b00      	cmp	r3, #0
 80056d2:	d10d      	bne.n	80056f0 <xQueueGenericSend+0x38>
	__asm volatile
 80056d4:	f04f 0350 	mov.w	r3, #80	@ 0x50
 80056d8:	b672      	cpsid	i
 80056da:	f383 8811 	msr	BASEPRI, r3
 80056de:	f3bf 8f6f 	isb	sy
 80056e2:	f3bf 8f4f 	dsb	sy
 80056e6:	b662      	cpsie	i
 80056e8:	62bb      	str	r3, [r7, #40]	@ 0x28
}
 80056ea:	bf00      	nop
 80056ec:	bf00      	nop
 80056ee:	e7fd      	b.n	80056ec <xQueueGenericSend+0x34>
	configASSERT( !( ( pvItemToQueue == NULL ) && ( pxQueue->uxItemSize != ( UBaseType_t ) 0U ) ) );
 80056f0:	68bb      	ldr	r3, [r7, #8]
 80056f2:	2b00      	cmp	r3, #0
 80056f4:	d103      	bne.n	80056fe <xQueueGenericSend+0x46>
 80056f6:	6b3b      	ldr	r3, [r7, #48]	@ 0x30
 80056f8:	6c1b      	ldr	r3, [r3, #64]	@ 0x40
 80056fa:	2b00      	cmp	r3, #0
 80056fc:	d101      	bne.n	8005702 <xQueueGenericSend+0x4a>
 80056fe:	2301      	movs	r3, #1
 8005700:	e000      	b.n	8005704 <xQueueGenericSend+0x4c>
 8005702:	2300      	movs	r3, #0
 8005704:	2b00      	cmp	r3, #0
 8005706:	d10d      	bne.n	8005724 <xQueueGenericSend+0x6c>
	__asm volatile
 8005708:	f04f 0350 	mov.w	r3, #80	@ 0x50
 800570c:	b672      	cpsid	i
 800570e:	f383 8811 	msr	BASEPRI, r3
 8005712:	f3bf 8f6f 	isb	sy
 8005716:	f3bf 8f4f 	dsb	sy
 800571a:	b662      	cpsie	i
 800571c:	627b      	str	r3, [r7, #36]	@ 0x24
}
 800571e:	bf00      	nop
 8005720:	bf00      	nop
 8005722:	e7fd      	b.n	8005720 <xQueueGenericSend+0x68>
	configASSERT( !( ( xCopyPosition == queueOVERWRITE ) && ( pxQueue->uxLength != 1 ) ) );
 8005724:	683b      	ldr	r3, [r7, #0]
 8005726:	2b02      	cmp	r3, #2
 8005728:	d103      	bne.n	8005732 <xQueueGenericSend+0x7a>
 800572a:	6b3b      	ldr	r3, [r7, #48]	@ 0x30
 800572c:	6bdb      	ldr	r3, [r3, #60]	@ 0x3c
 800572e:	2b01      	cmp	r3, #1
 8005730:	d101      	bne.n	8005736 <xQueueGenericSend+0x7e>
 8005732:	2301      	movs	r3, #1
 8005734:	e000      	b.n	8005738 <xQueueGenericSend+0x80>
 8005736:	2300      	movs	r3, #0
 8005738:	2b00      	cmp	r3, #0
 800573a:	d10d      	bne.n	8005758 <xQueueGenericSend+0xa0>
	__asm volatile
 800573c:	f04f 0350 	mov.w	r3, #80	@ 0x50
 8005740:	b672      	cpsid	i
 8005742:	f383 8811 	msr	BASEPRI, r3
 8005746:	f3bf 8f6f 	isb	sy
 800574a:	f3bf 8f4f 	dsb	sy
 800574e:	b662      	cpsie	i
 8005750:	623b      	str	r3, [r7, #32]
}
 8005752:	bf00      	nop
 8005754:	bf00      	nop
 8005756:	e7fd      	b.n	8005754 <xQueueGenericSend+0x9c>
	#if ( ( INCLUDE_xTaskGetSchedulerState == 1 ) || ( configUSE_TIMERS == 1 ) )
	{
		configASSERT( !( ( xTaskGetSchedulerState() == taskSCHEDULER_SUSPENDED ) && ( xTicksToWait != 0 ) ) );
 8005758:	f001 fa2a 	bl	8006bb0 <xTaskGetSchedulerState>
 800575c:	4603      	mov	r3, r0
 800575e:	2b00      	cmp	r3, #0
 8005760:	d102      	bne.n	8005768 <xQueueGenericSend+0xb0>
 8005762:	687b      	ldr	r3, [r7, #4]
 8005764:	2b00      	cmp	r3, #0
 8005766:	d101      	bne.n	800576c <xQueueGenericSend+0xb4>
 8005768:	2301      	movs	r3, #1
 800576a:	e000      	b.n	800576e <xQueueGenericSend+0xb6>
 800576c:	2300      	movs	r3, #0
 800576e:	2b00      	cmp	r3, #0
 8005770:	d10d      	bne.n	800578e <xQueueGenericSend+0xd6>
	__asm volatile
 8005772:	f04f 0350 	mov.w	r3, #80	@ 0x50
 8005776:	b672      	cpsid	i
 8005778:	f383 8811 	msr	BASEPRI, r3
 800577c:	f3bf 8f6f 	isb	sy
 8005780:	f3bf 8f4f 	dsb	sy
 8005784:	b662      	cpsie	i
 8005786:	61fb      	str	r3, [r7, #28]
}
 8005788:	bf00      	nop
 800578a:	bf00      	nop
 800578c:	e7fd      	b.n	800578a <xQueueGenericSend+0xd2>
	/*lint -save -e904 This function relaxes the coding standard somewhat to
	allow return statements within the function itself.  This is done in the
	interest of execution time efficiency. */
	for( ;; )
	{
		taskENTER_CRITICAL();
 800578e:	f002 f835 	bl	80077fc <vPortEnterCritical>
		{
			/* Is there room on the queue now?  The running task must be the
			highest priority task wanting to access the queue.  If the head item
			in the queue is to be overwritten then it does not matter if the
			queue is full. */
			if( ( pxQueue->uxMessagesWaiting < pxQueue->uxLength ) || ( xCopyPosition == queueOVERWRITE ) )
 8005792:	6b3b      	ldr	r3, [r7, #48]	@ 0x30
 8005794:	6b9a      	ldr	r2, [r3, #56]	@ 0x38
 8005796:	6b3b      	ldr	r3, [r7, #48]	@ 0x30
 8005798:	6bdb      	ldr	r3, [r3, #60]	@ 0x3c
 800579a:	429a      	cmp	r2, r3
 800579c:	d302      	bcc.n	80057a4 <xQueueGenericSend+0xec>
 800579e:	683b      	ldr	r3, [r7, #0]
 80057a0:	2b02      	cmp	r3, #2
 80057a2:	d129      	bne.n	80057f8 <xQueueGenericSend+0x140>
						}
					}
				}
				#else /* configUSE_QUEUE_SETS */
				{
					xYieldRequired = prvCopyDataToQueue( pxQueue, pvItemToQueue, xCopyPosition );
 80057a4:	683a      	ldr	r2, [r7, #0]
 80057a6:	68b9      	ldr	r1, [r7, #8]
 80057a8:	6b38      	ldr	r0, [r7, #48]	@ 0x30
 80057aa:	f000 fa1b 	bl	8005be4 <prvCopyDataToQueue>
 80057ae:	62f8      	str	r0, [r7, #44]	@ 0x2c

					/* If there was a task waiting for data to arrive on the
					queue then unblock it now. */
					if( listLIST_IS_EMPTY( &( pxQueue->xTasksWaitingToReceive ) ) == pdFALSE )
 80057b0:	6b3b      	ldr	r3, [r7, #48]	@ 0x30
 80057b2:	6a5b      	ldr	r3, [r3, #36]	@ 0x24
 80057b4:	2b00      	cmp	r3, #0
 80057b6:	d010      	beq.n	80057da <xQueueGenericSend+0x122>
					{
						if( xTaskRemoveFromEventList( &( pxQueue->xTasksWaitingToReceive ) ) != pdFALSE )
 80057b8:	6b3b      	ldr	r3, [r7, #48]	@ 0x30
 80057ba:	3324      	adds	r3, #36	@ 0x24
 80057bc:	4618      	mov	r0, r3
 80057be:	f001 f829 	bl	8006814 <xTaskRemoveFromEventList>
 80057c2:	4603      	mov	r3, r0
 80057c4:	2b00      	cmp	r3, #0
 80057c6:	d013      	beq.n	80057f0 <xQueueGenericSend+0x138>
						{
							/* The unblocked task has a priority higher than
							our own so yield immediately.  Yes it is ok to do
							this from within the critical section - the kernel
							takes care of that. */
							queueYIELD_IF_USING_PREEMPTION();
 80057c8:	4b3f      	ldr	r3, [pc, #252]	@ (80058c8 <xQueueGenericSend+0x210>)
 80057ca:	f04f 5280 	mov.w	r2, #268435456	@ 0x10000000
 80057ce:	601a      	str	r2, [r3, #0]
 80057d0:	f3bf 8f4f 	dsb	sy
 80057d4:	f3bf 8f6f 	isb	sy
 80057d8:	e00a      	b.n	80057f0 <xQueueGenericSend+0x138>
						else
						{
							mtCOVERAGE_TEST_MARKER();
						}
					}
					else if( xYieldRequired != pdFALSE )
 80057da:	6afb      	ldr	r3, [r7, #44]	@ 0x2c
 80057dc:	2b00      	cmp	r3, #0
 80057de:	d007      	beq.n	80057f0 <xQueueGenericSend+0x138>
					{
						/* This path is a special case that will only get
						executed if the task was holding multiple mutexes and
						the mutexes were given back in an order that is
						different to that in which they were taken. */
						queueYIELD_IF_USING_PREEMPTION();
 80057e0:	4b39      	ldr	r3, [pc, #228]	@ (80058c8 <xQueueGenericSend+0x210>)
 80057e2:	f04f 5280 	mov.w	r2, #268435456	@ 0x10000000
 80057e6:	601a      	str	r2, [r3, #0]
 80057e8:	f3bf 8f4f 	dsb	sy
 80057ec:	f3bf 8f6f 	isb	sy
						mtCOVERAGE_TEST_MARKER();
					}
				}
				#endif /* configUSE_QUEUE_SETS */

				taskEXIT_CRITICAL();
 80057f0:	f002 f83a 	bl	8007868 <vPortExitCritical>
				return pdPASS;
 80057f4:	2301      	movs	r3, #1
 80057f6:	e063      	b.n	80058c0 <xQueueGenericSend+0x208>
			}
			else
			{
				if( xTicksToWait == ( TickType_t ) 0 )
 80057f8:	687b      	ldr	r3, [r7, #4]
 80057fa:	2b00      	cmp	r3, #0
 80057fc:	d103      	bne.n	8005806 <xQueueGenericSend+0x14e>
				{
					/* The queue was full and no block time is specified (or
					the block time has expired) so leave now. */
					taskEXIT_CRITICAL();
 80057fe:	f002 f833 	bl	8007868 <vPortExitCritical>

					/* Return to the original privilege level before exiting
					the function. */
					traceQUEUE_SEND_FAILED( pxQueue );
					return errQUEUE_FULL;
 8005802:	2300      	movs	r3, #0
 8005804:	e05c      	b.n	80058c0 <xQueueGenericSend+0x208>
				}
				else if( xEntryTimeSet == pdFALSE )
 8005806:	6b7b      	ldr	r3, [r7, #52]	@ 0x34
 8005808:	2b00      	cmp	r3, #0
 800580a:	d106      	bne.n	800581a <xQueueGenericSend+0x162>
				{
					/* The queue was full and a block time was specified so
					configure the timeout structure. */
					vTaskInternalSetTimeOutState( &xTimeOut );
 800580c:	f107 0314 	add.w	r3, r7, #20
 8005810:	4618      	mov	r0, r3
 8005812:	f001 f865 	bl	80068e0 <vTaskInternalSetTimeOutState>
					xEntryTimeSet = pdTRUE;
 8005816:	2301      	movs	r3, #1
 8005818:	637b      	str	r3, [r7, #52]	@ 0x34
					/* Entry time was already set. */
					mtCOVERAGE_TEST_MARKER();
				}
			}
		}
		taskEXIT_CRITICAL();
 800581a:	f002 f825 	bl	8007868 <vPortExitCritical>

		/* Interrupts and other tasks can send to and receive from the queue
		now the critical section has been exited. */

		vTaskSuspendAll();
 800581e:	f000 fdc1 	bl	80063a4 <vTaskSuspendAll>
		prvLockQueue( pxQueue );
 8005822:	f001 ffeb 	bl	80077fc <vPortEnterCritical>
 8005826:	6b3b      	ldr	r3, [r7, #48]	@ 0x30
 8005828:	f893 3044 	ldrb.w	r3, [r3, #68]	@ 0x44
 800582c:	b25b      	sxtb	r3, r3
 800582e:	f1b3 3fff 	cmp.w	r3, #4294967295
 8005832:	d103      	bne.n	800583c <xQueueGenericSend+0x184>
 8005834:	6b3b      	ldr	r3, [r7, #48]	@ 0x30
 8005836:	2200      	movs	r2, #0
 8005838:	f883 2044 	strb.w	r2, [r3, #68]	@ 0x44
 800583c:	6b3b      	ldr	r3, [r7, #48]	@ 0x30
 800583e:	f893 3045 	ldrb.w	r3, [r3, #69]	@ 0x45
 8005842:	b25b      	sxtb	r3, r3
 8005844:	f1b3 3fff 	cmp.w	r3, #4294967295
 8005848:	d103      	bne.n	8005852 <xQueueGenericSend+0x19a>
 800584a:	6b3b      	ldr	r3, [r7, #48]	@ 0x30
 800584c:	2200      	movs	r2, #0
 800584e:	f883 2045 	strb.w	r2, [r3, #69]	@ 0x45
 8005852:	f002 f809 	bl	8007868 <vPortExitCritical>

		/* Update the timeout state to see if it has expired yet. */
		if( xTaskCheckForTimeOut( &xTimeOut, &xTicksToWait ) == pdFALSE )
 8005856:	1d3a      	adds	r2, r7, #4
 8005858:	f107 0314 	add.w	r3, r7, #20
 800585c:	4611      	mov	r1, r2
 800585e:	4618      	mov	r0, r3
 8005860:	f001 f854 	bl	800690c <xTaskCheckForTimeOut>
 8005864:	4603      	mov	r3, r0
 8005866:	2b00      	cmp	r3, #0
 8005868:	d124      	bne.n	80058b4 <xQueueGenericSend+0x1fc>
		{
			if( prvIsQueueFull( pxQueue ) != pdFALSE )
 800586a:	6b38      	ldr	r0, [r7, #48]	@ 0x30
 800586c:	f000 fab2 	bl	8005dd4 <prvIsQueueFull>
 8005870:	4603      	mov	r3, r0
 8005872:	2b00      	cmp	r3, #0
 8005874:	d018      	beq.n	80058a8 <xQueueGenericSend+0x1f0>
			{
				traceBLOCKING_ON_QUEUE_SEND( pxQueue );
				vTaskPlaceOnEventList( &( pxQueue->xTasksWaitingToSend ), xTicksToWait );
 8005876:	6b3b      	ldr	r3, [r7, #48]	@ 0x30
 8005878:	3310      	adds	r3, #16
 800587a:	687a      	ldr	r2, [r7, #4]
 800587c:	4611      	mov	r1, r2
 800587e:	4618      	mov	r0, r3
 8005880:	f000 ff72 	bl	8006768 <vTaskPlaceOnEventList>
				/* Unlocking the queue means queue events can effect the
				event list.  It is possible that interrupts occurring now
				remove this task from the event list again - but as the
				scheduler is suspended the task will go onto the pending
				ready last instead of the actual ready list. */
				prvUnlockQueue( pxQueue );
 8005884:	6b38      	ldr	r0, [r7, #48]	@ 0x30
 8005886:	f000 fa3d 	bl	8005d04 <prvUnlockQueue>
				/* Resuming the scheduler will move tasks from the pending
				ready list into the ready list - so it is feasible that this
				task is already in a ready list before it yields - in which
				case the yield will not cause a context switch unless there
				is also a higher priority task in the pending ready list. */
				if( xTaskResumeAll() == pdFALSE )
 800588a:	f000 fd99 	bl	80063c0 <xTaskResumeAll>
 800588e:	4603      	mov	r3, r0
 8005890:	2b00      	cmp	r3, #0
 8005892:	f47f af7c 	bne.w	800578e <xQueueGenericSend+0xd6>
				{
					portYIELD_WITHIN_API();
 8005896:	4b0c      	ldr	r3, [pc, #48]	@ (80058c8 <xQueueGenericSend+0x210>)
 8005898:	f04f 5280 	mov.w	r2, #268435456	@ 0x10000000
 800589c:	601a      	str	r2, [r3, #0]
 800589e:	f3bf 8f4f 	dsb	sy
 80058a2:	f3bf 8f6f 	isb	sy
 80058a6:	e772      	b.n	800578e <xQueueGenericSend+0xd6>
				}
			}
			else
			{
				/* Try again. */
				prvUnlockQueue( pxQueue );
 80058a8:	6b38      	ldr	r0, [r7, #48]	@ 0x30
 80058aa:	f000 fa2b 	bl	8005d04 <prvUnlockQueue>
				( void ) xTaskResumeAll();
 80058ae:	f000 fd87 	bl	80063c0 <xTaskResumeAll>
 80058b2:	e76c      	b.n	800578e <xQueueGenericSend+0xd6>
			}
		}
		else
		{
			/* The timeout has expired. */
			prvUnlockQueue( pxQueue );
 80058b4:	6b38      	ldr	r0, [r7, #48]	@ 0x30
 80058b6:	f000 fa25 	bl	8005d04 <prvUnlockQueue>
			( void ) xTaskResumeAll();
 80058ba:	f000 fd81 	bl	80063c0 <xTaskResumeAll>

			traceQUEUE_SEND_FAILED( pxQueue );
			return errQUEUE_FULL;
 80058be:	2300      	movs	r3, #0
		}
	} /*lint -restore */
}
 80058c0:	4618      	mov	r0, r3
 80058c2:	3738      	adds	r7, #56	@ 0x38
 80058c4:	46bd      	mov	sp, r7
 80058c6:	bd80      	pop	{r7, pc}
 80058c8:	e000ed04 	.word	0xe000ed04

080058cc <xQueueGenericSendFromISR>:
/*-----------------------------------------------------------*/

BaseType_t xQueueGenericSendFromISR( QueueHandle_t xQueue, const void * const pvItemToQueue, BaseType_t * const pxHigherPriorityTaskWoken, const BaseType_t xCopyPosition )
{
 80058cc:	b580      	push	{r7, lr}
 80058ce:	b08e      	sub	sp, #56	@ 0x38
 80058d0:	af00      	add	r7, sp, #0
 80058d2:	60f8      	str	r0, [r7, #12]
 80058d4:	60b9      	str	r1, [r7, #8]
 80058d6:	607a      	str	r2, [r7, #4]
 80058d8:	603b      	str	r3, [r7, #0]
BaseType_t xReturn;
UBaseType_t uxSavedInterruptStatus;
Queue_t * const pxQueue = xQueue;
 80058da:	68fb      	ldr	r3, [r7, #12]
 80058dc:	633b      	str	r3, [r7, #48]	@ 0x30

	configASSERT( pxQueue );
 80058de:	6b3b      	ldr	r3, [r7, #48]	@ 0x30
 80058e0:	2b00      	cmp	r3, #0
 80058e2:	d10d      	bne.n	8005900 <xQueueGenericSendFromISR+0x34>
	__asm volatile
 80058e4:	f04f 0350 	mov.w	r3, #80	@ 0x50
 80058e8:	b672      	cpsid	i
 80058ea:	f383 8811 	msr	BASEPRI, r3
 80058ee:	f3bf 8f6f 	isb	sy
 80058f2:	f3bf 8f4f 	dsb	sy
 80058f6:	b662      	cpsie	i
 80058f8:	627b      	str	r3, [r7, #36]	@ 0x24
}
 80058fa:	bf00      	nop
 80058fc:	bf00      	nop
 80058fe:	e7fd      	b.n	80058fc <xQueueGenericSendFromISR+0x30>
	configASSERT( !( ( pvItemToQueue == NULL ) && ( pxQueue->uxItemSize != ( UBaseType_t ) 0U ) ) );
 8005900:	68bb      	ldr	r3, [r7, #8]
 8005902:	2b00      	cmp	r3, #0
 8005904:	d103      	bne.n	800590e <xQueueGenericSendFromISR+0x42>
 8005906:	6b3b      	ldr	r3, [r7, #48]	@ 0x30
 8005908:	6c1b      	ldr	r3, [r3, #64]	@ 0x40
 800590a:	2b00      	cmp	r3, #0
 800590c:	d101      	bne.n	8005912 <xQueueGenericSendFromISR+0x46>
 800590e:	2301      	movs	r3, #1
 8005910:	e000      	b.n	8005914 <xQueueGenericSendFromISR+0x48>
 8005912:	2300      	movs	r3, #0
 8005914:	2b00      	cmp	r3, #0
 8005916:	d10d      	bne.n	8005934 <xQueueGenericSendFromISR+0x68>
	__asm volatile
 8005918:	f04f 0350 	mov.w	r3, #80	@ 0x50
 800591c:	b672      	cpsid	i
 800591e:	f383 8811 	msr	BASEPRI, r3
 8005922:	f3bf 8f6f 	isb	sy
 8005926:	f3bf 8f4f 	dsb	sy
 800592a:	b662      	cpsie	i
 800592c:	623b      	str	r3, [r7, #32]
}
 800592e:	bf00      	nop
 8005930:	bf00      	nop
 8005932:	e7fd      	b.n	8005930 <xQueueGenericSendFromISR+0x64>
	configASSERT( !( ( xCopyPosition == queueOVERWRITE ) && ( pxQueue->uxLength != 1 ) ) );
 8005934:	683b      	ldr	r3, [r7, #0]
 8005936:	2b02      	cmp	r3, #2
 8005938:	d103      	bne.n	8005942 <xQueueGenericSendFromISR+0x76>
 800593a:	6b3b      	ldr	r3, [r7, #48]	@ 0x30
 800593c:	6bdb      	ldr	r3, [r3, #60]	@ 0x3c
 800593e:	2b01      	cmp	r3, #1
 8005940:	d101      	bne.n	8005946 <xQueueGenericSendFromISR+0x7a>
 8005942:	2301      	movs	r3, #1
 8005944:	e000      	b.n	8005948 <xQueueGenericSendFromISR+0x7c>
 8005946:	2300      	movs	r3, #0
 8005948:	2b00      	cmp	r3, #0
 800594a:	d10d      	bne.n	8005968 <xQueueGenericSendFromISR+0x9c>
	__asm volatile
 800594c:	f04f 0350 	mov.w	r3, #80	@ 0x50
 8005950:	b672      	cpsid	i
 8005952:	f383 8811 	msr	BASEPRI, r3
 8005956:	f3bf 8f6f 	isb	sy
 800595a:	f3bf 8f4f 	dsb	sy
 800595e:	b662      	cpsie	i
 8005960:	61fb      	str	r3, [r7, #28]
}
 8005962:	bf00      	nop
 8005964:	bf00      	nop
 8005966:	e7fd      	b.n	8005964 <xQueueGenericSendFromISR+0x98>
	that have been assigned a priority at or (logically) below the maximum
	system call	interrupt priority.  FreeRTOS maintains a separate interrupt
	safe API to ensure interrupt entry is as fast and as simple as possible.
	More information (albeit Cortex-M specific) is provided on the following
	link: http://www.freertos.org/RTOS-Cortex-M3-M4.html */
	portASSERT_IF_INTERRUPT_PRIORITY_INVALID();
 8005968:	f002 f830 	bl	80079cc <vPortValidateInterruptPriority>

portFORCE_INLINE static uint32_t ulPortRaiseBASEPRI( void )
{
uint32_t ulOriginalBASEPRI, ulNewBASEPRI;

	__asm volatile
 800596c:	f3ef 8211 	mrs	r2, BASEPRI
 8005970:	f04f 0350 	mov.w	r3, #80	@ 0x50
 8005974:	b672      	cpsid	i
 8005976:	f383 8811 	msr	BASEPRI, r3
 800597a:	f3bf 8f6f 	isb	sy
 800597e:	f3bf 8f4f 	dsb	sy
 8005982:	b662      	cpsie	i
 8005984:	61ba      	str	r2, [r7, #24]
 8005986:	617b      	str	r3, [r7, #20]
		:"=r" (ulOriginalBASEPRI), "=r" (ulNewBASEPRI) : "i" ( configMAX_SYSCALL_INTERRUPT_PRIORITY ) : "memory"
	);

	/* This return will not be reached but is necessary to prevent compiler
	warnings. */
	return ulOriginalBASEPRI;
 8005988:	69bb      	ldr	r3, [r7, #24]
	/* Similar to xQueueGenericSend, except without blocking if there is no room
	in the queue.  Also don't directly wake a task that was blocked on a queue
	read, instead return a flag to say whether a context switch is required or
	not (i.e. has a task with a higher priority than us been woken by this
	post). */
	uxSavedInterruptStatus = portSET_INTERRUPT_MASK_FROM_ISR();
 800598a:	62fb      	str	r3, [r7, #44]	@ 0x2c
	{
		if( ( pxQueue->uxMessagesWaiting < pxQueue->uxLength ) || ( xCopyPosition == queueOVERWRITE ) )
 800598c:	6b3b      	ldr	r3, [r7, #48]	@ 0x30
 800598e:	6b9a      	ldr	r2, [r3, #56]	@ 0x38
 8005990:	6b3b      	ldr	r3, [r7, #48]	@ 0x30
 8005992:	6bdb      	ldr	r3, [r3, #60]	@ 0x3c
 8005994:	429a      	cmp	r2, r3
 8005996:	d302      	bcc.n	800599e <xQueueGenericSendFromISR+0xd2>
 8005998:	683b      	ldr	r3, [r7, #0]
 800599a:	2b02      	cmp	r3, #2
 800599c:	d12c      	bne.n	80059f8 <xQueueGenericSendFromISR+0x12c>
		{
			const int8_t cTxLock = pxQueue->cTxLock;
 800599e:	6b3b      	ldr	r3, [r7, #48]	@ 0x30
 80059a0:	f893 3045 	ldrb.w	r3, [r3, #69]	@ 0x45
 80059a4:	f887 302b 	strb.w	r3, [r7, #43]	@ 0x2b
			/* Semaphores use xQueueGiveFromISR(), so pxQueue will not be a
			semaphore or mutex.  That means prvCopyDataToQueue() cannot result
			in a task disinheriting a priority and prvCopyDataToQueue() can be
			called here even though the disinherit function does not check if
			the scheduler is suspended before accessing the ready lists. */
			( void ) prvCopyDataToQueue( pxQueue, pvItemToQueue, xCopyPosition );
 80059a8:	683a      	ldr	r2, [r7, #0]
 80059aa:	68b9      	ldr	r1, [r7, #8]
 80059ac:	6b38      	ldr	r0, [r7, #48]	@ 0x30
 80059ae:	f000 f919 	bl	8005be4 <prvCopyDataToQueue>

			/* The event list is not altered if the queue is locked.  This will
			be done when the queue is unlocked later. */
			if( cTxLock == queueUNLOCKED )
 80059b2:	f997 302b 	ldrsb.w	r3, [r7, #43]	@ 0x2b
 80059b6:	f1b3 3fff 	cmp.w	r3, #4294967295
 80059ba:	d112      	bne.n	80059e2 <xQueueGenericSendFromISR+0x116>
						}
					}
				}
				#else /* configUSE_QUEUE_SETS */
				{
					if( listLIST_IS_EMPTY( &( pxQueue->xTasksWaitingToReceive ) ) == pdFALSE )
 80059bc:	6b3b      	ldr	r3, [r7, #48]	@ 0x30
 80059be:	6a5b      	ldr	r3, [r3, #36]	@ 0x24
 80059c0:	2b00      	cmp	r3, #0
 80059c2:	d016      	beq.n	80059f2 <xQueueGenericSendFromISR+0x126>
					{
						if( xTaskRemoveFromEventList( &( pxQueue->xTasksWaitingToReceive ) ) != pdFALSE )
 80059c4:	6b3b      	ldr	r3, [r7, #48]	@ 0x30
 80059c6:	3324      	adds	r3, #36	@ 0x24
 80059c8:	4618      	mov	r0, r3
 80059ca:	f000 ff23 	bl	8006814 <xTaskRemoveFromEventList>
 80059ce:	4603      	mov	r3, r0
 80059d0:	2b00      	cmp	r3, #0
 80059d2:	d00e      	beq.n	80059f2 <xQueueGenericSendFromISR+0x126>
						{
							/* The task waiting has a higher priority so record that a
							context	switch is required. */
							if( pxHigherPriorityTaskWoken != NULL )
 80059d4:	687b      	ldr	r3, [r7, #4]
 80059d6:	2b00      	cmp	r3, #0
 80059d8:	d00b      	beq.n	80059f2 <xQueueGenericSendFromISR+0x126>
							{
								*pxHigherPriorityTaskWoken = pdTRUE;
 80059da:	687b      	ldr	r3, [r7, #4]
 80059dc:	2201      	movs	r2, #1
 80059de:	601a      	str	r2, [r3, #0]
 80059e0:	e007      	b.n	80059f2 <xQueueGenericSendFromISR+0x126>
			}
			else
			{
				/* Increment the lock count so the task that unlocks the queue
				knows that data was posted while it was locked. */
				pxQueue->cTxLock = ( int8_t ) ( cTxLock + 1 );
 80059e2:	f897 302b 	ldrb.w	r3, [r7, #43]	@ 0x2b
 80059e6:	3301      	adds	r3, #1
 80059e8:	b2db      	uxtb	r3, r3
 80059ea:	b25a      	sxtb	r2, r3
 80059ec:	6b3b      	ldr	r3, [r7, #48]	@ 0x30
 80059ee:	f883 2045 	strb.w	r2, [r3, #69]	@ 0x45
			}

			xReturn = pdPASS;
 80059f2:	2301      	movs	r3, #1
 80059f4:	637b      	str	r3, [r7, #52]	@ 0x34
		{
 80059f6:	e001      	b.n	80059fc <xQueueGenericSendFromISR+0x130>
		}
		else
		{
			traceQUEUE_SEND_FROM_ISR_FAILED( pxQueue );
			xReturn = errQUEUE_FULL;
 80059f8:	2300      	movs	r3, #0
 80059fa:	637b      	str	r3, [r7, #52]	@ 0x34
 80059fc:	6afb      	ldr	r3, [r7, #44]	@ 0x2c
 80059fe:	613b      	str	r3, [r7, #16]
}
/*-----------------------------------------------------------*/

portFORCE_INLINE static void vPortSetBASEPRI( uint32_t ulNewMaskValue )
{
	__asm volatile
 8005a00:	693b      	ldr	r3, [r7, #16]
 8005a02:	f383 8811 	msr	BASEPRI, r3
	(
		"	msr basepri, %0	" :: "r" ( ulNewMaskValue ) : "memory"
	);
}
 8005a06:	bf00      	nop
		}
	}
	portCLEAR_INTERRUPT_MASK_FROM_ISR( uxSavedInterruptStatus );

	return xReturn;
 8005a08:	6b7b      	ldr	r3, [r7, #52]	@ 0x34
}
 8005a0a:	4618      	mov	r0, r3
 8005a0c:	3738      	adds	r7, #56	@ 0x38
 8005a0e:	46bd      	mov	sp, r7
 8005a10:	bd80      	pop	{r7, pc}
	...

08005a14 <xQueueReceive>:
	return xReturn;
}
/*-----------------------------------------------------------*/

BaseType_t xQueueReceive( QueueHandle_t xQueue, void * const pvBuffer, TickType_t xTicksToWait )
{
 8005a14:	b580      	push	{r7, lr}
 8005a16:	b08c      	sub	sp, #48	@ 0x30
 8005a18:	af00      	add	r7, sp, #0
 8005a1a:	60f8      	str	r0, [r7, #12]
 8005a1c:	60b9      	str	r1, [r7, #8]
 8005a1e:	607a      	str	r2, [r7, #4]
BaseType_t xEntryTimeSet = pdFALSE;
 8005a20:	2300      	movs	r3, #0
 8005a22:	62fb      	str	r3, [r7, #44]	@ 0x2c
TimeOut_t xTimeOut;
Queue_t * const pxQueue = xQueue;
 8005a24:	68fb      	ldr	r3, [r7, #12]
 8005a26:	62bb      	str	r3, [r7, #40]	@ 0x28

	/* Check the pointer is not NULL. */
	configASSERT( ( pxQueue ) );
 8005a28:	6abb      	ldr	r3, [r7, #40]	@ 0x28
 8005a2a:	2b00      	cmp	r3, #0
 8005a2c:	d10d      	bne.n	8005a4a <xQueueReceive+0x36>
	__asm volatile
 8005a2e:	f04f 0350 	mov.w	r3, #80	@ 0x50
 8005a32:	b672      	cpsid	i
 8005a34:	f383 8811 	msr	BASEPRI, r3
 8005a38:	f3bf 8f6f 	isb	sy
 8005a3c:	f3bf 8f4f 	dsb	sy
 8005a40:	b662      	cpsie	i
 8005a42:	623b      	str	r3, [r7, #32]
}
 8005a44:	bf00      	nop
 8005a46:	bf00      	nop
 8005a48:	e7fd      	b.n	8005a46 <xQueueReceive+0x32>

	/* The buffer into which data is received can only be NULL if the data size
	is zero (so no data is copied into the buffer. */
	configASSERT( !( ( ( pvBuffer ) == NULL ) && ( ( pxQueue )->uxItemSize != ( UBaseType_t ) 0U ) ) );
 8005a4a:	68bb      	ldr	r3, [r7, #8]
 8005a4c:	2b00      	cmp	r3, #0
 8005a4e:	d103      	bne.n	8005a58 <xQueueReceive+0x44>
 8005a50:	6abb      	ldr	r3, [r7, #40]	@ 0x28
 8005a52:	6c1b      	ldr	r3, [r3, #64]	@ 0x40
 8005a54:	2b00      	cmp	r3, #0
 8005a56:	d101      	bne.n	8005a5c <xQueueReceive+0x48>
 8005a58:	2301      	movs	r3, #1
 8005a5a:	e000      	b.n	8005a5e <xQueueReceive+0x4a>
 8005a5c:	2300      	movs	r3, #0
 8005a5e:	2b00      	cmp	r3, #0
 8005a60:	d10d      	bne.n	8005a7e <xQueueReceive+0x6a>
	__asm volatile
 8005a62:	f04f 0350 	mov.w	r3, #80	@ 0x50
 8005a66:	b672      	cpsid	i
 8005a68:	f383 8811 	msr	BASEPRI, r3
 8005a6c:	f3bf 8f6f 	isb	sy
 8005a70:	f3bf 8f4f 	dsb	sy
 8005a74:	b662      	cpsie	i
 8005a76:	61fb      	str	r3, [r7, #28]
}
 8005a78:	bf00      	nop
 8005a7a:	bf00      	nop
 8005a7c:	e7fd      	b.n	8005a7a <xQueueReceive+0x66>

	/* Cannot block if the scheduler is suspended. */
	#if ( ( INCLUDE_xTaskGetSchedulerState == 1 ) || ( configUSE_TIMERS == 1 ) )
	{
		configASSERT( !( ( xTaskGetSchedulerState() == taskSCHEDULER_SUSPENDED ) && ( xTicksToWait != 0 ) ) );
 8005a7e:	f001 f897 	bl	8006bb0 <xTaskGetSchedulerState>
 8005a82:	4603      	mov	r3, r0
 8005a84:	2b00      	cmp	r3, #0
 8005a86:	d102      	bne.n	8005a8e <xQueueReceive+0x7a>
 8005a88:	687b      	ldr	r3, [r7, #4]
 8005a8a:	2b00      	cmp	r3, #0
 8005a8c:	d101      	bne.n	8005a92 <xQueueReceive+0x7e>
 8005a8e:	2301      	movs	r3, #1
 8005a90:	e000      	b.n	8005a94 <xQueueReceive+0x80>
 8005a92:	2300      	movs	r3, #0
 8005a94:	2b00      	cmp	r3, #0
 8005a96:	d10d      	bne.n	8005ab4 <xQueueReceive+0xa0>
	__asm volatile
 8005a98:	f04f 0350 	mov.w	r3, #80	@ 0x50
 8005a9c:	b672      	cpsid	i
 8005a9e:	f383 8811 	msr	BASEPRI, r3
 8005aa2:	f3bf 8f6f 	isb	sy
 8005aa6:	f3bf 8f4f 	dsb	sy
 8005aaa:	b662      	cpsie	i
 8005aac:	61bb      	str	r3, [r7, #24]
}
 8005aae:	bf00      	nop
 8005ab0:	bf00      	nop
 8005ab2:	e7fd      	b.n	8005ab0 <xQueueReceive+0x9c>
	/*lint -save -e904  This function relaxes the coding standard somewhat to
	allow return statements within the function itself.  This is done in the
	interest of execution time efficiency. */
	for( ;; )
	{
		taskENTER_CRITICAL();
 8005ab4:	f001 fea2 	bl	80077fc <vPortEnterCritical>
		{
			const UBaseType_t uxMessagesWaiting = pxQueue->uxMessagesWaiting;
 8005ab8:	6abb      	ldr	r3, [r7, #40]	@ 0x28
 8005aba:	6b9b      	ldr	r3, [r3, #56]	@ 0x38
 8005abc:	627b      	str	r3, [r7, #36]	@ 0x24

			/* Is there data in the queue now?  To be running the calling task
			must be the highest priority task wanting to access the queue. */
			if( uxMessagesWaiting > ( UBaseType_t ) 0 )
 8005abe:	6a7b      	ldr	r3, [r7, #36]	@ 0x24
 8005ac0:	2b00      	cmp	r3, #0
 8005ac2:	d01f      	beq.n	8005b04 <xQueueReceive+0xf0>
			{
				/* Data available, remove one item. */
				prvCopyDataFromQueue( pxQueue, pvBuffer );
 8005ac4:	68b9      	ldr	r1, [r7, #8]
 8005ac6:	6ab8      	ldr	r0, [r7, #40]	@ 0x28
 8005ac8:	f000 f8f6 	bl	8005cb8 <prvCopyDataFromQueue>
				traceQUEUE_RECEIVE( pxQueue );
				pxQueue->uxMessagesWaiting = uxMessagesWaiting - ( UBaseType_t ) 1;
 8005acc:	6a7b      	ldr	r3, [r7, #36]	@ 0x24
 8005ace:	1e5a      	subs	r2, r3, #1
 8005ad0:	6abb      	ldr	r3, [r7, #40]	@ 0x28
 8005ad2:	639a      	str	r2, [r3, #56]	@ 0x38

				/* There is now space in the queue, were any tasks waiting to
				post to the queue?  If so, unblock the highest priority waiting
				task. */
				if( listLIST_IS_EMPTY( &( pxQueue->xTasksWaitingToSend ) ) == pdFALSE )
 8005ad4:	6abb      	ldr	r3, [r7, #40]	@ 0x28
 8005ad6:	691b      	ldr	r3, [r3, #16]
 8005ad8:	2b00      	cmp	r3, #0
 8005ada:	d00f      	beq.n	8005afc <xQueueReceive+0xe8>
				{
					if( xTaskRemoveFromEventList( &( pxQueue->xTasksWaitingToSend ) ) != pdFALSE )
 8005adc:	6abb      	ldr	r3, [r7, #40]	@ 0x28
 8005ade:	3310      	adds	r3, #16
 8005ae0:	4618      	mov	r0, r3
 8005ae2:	f000 fe97 	bl	8006814 <xTaskRemoveFromEventList>
 8005ae6:	4603      	mov	r3, r0
 8005ae8:	2b00      	cmp	r3, #0
 8005aea:	d007      	beq.n	8005afc <xQueueReceive+0xe8>
					{
						queueYIELD_IF_USING_PREEMPTION();
 8005aec:	4b3c      	ldr	r3, [pc, #240]	@ (8005be0 <xQueueReceive+0x1cc>)
 8005aee:	f04f 5280 	mov.w	r2, #268435456	@ 0x10000000
 8005af2:	601a      	str	r2, [r3, #0]
 8005af4:	f3bf 8f4f 	dsb	sy
 8005af8:	f3bf 8f6f 	isb	sy
				else
				{
					mtCOVERAGE_TEST_MARKER();
				}

				taskEXIT_CRITICAL();
 8005afc:	f001 feb4 	bl	8007868 <vPortExitCritical>
				return pdPASS;
 8005b00:	2301      	movs	r3, #1
 8005b02:	e069      	b.n	8005bd8 <xQueueReceive+0x1c4>
			}
			else
			{
				if( xTicksToWait == ( TickType_t ) 0 )
 8005b04:	687b      	ldr	r3, [r7, #4]
 8005b06:	2b00      	cmp	r3, #0
 8005b08:	d103      	bne.n	8005b12 <xQueueReceive+0xfe>
				{
					/* The queue was empty and no block time is specified (or
					the block time has expired) so leave now. */
					taskEXIT_CRITICAL();
 8005b0a:	f001 fead 	bl	8007868 <vPortExitCritical>
					traceQUEUE_RECEIVE_FAILED( pxQueue );
					return errQUEUE_EMPTY;
 8005b0e:	2300      	movs	r3, #0
 8005b10:	e062      	b.n	8005bd8 <xQueueReceive+0x1c4>
				}
				else if( xEntryTimeSet == pdFALSE )
 8005b12:	6afb      	ldr	r3, [r7, #44]	@ 0x2c
 8005b14:	2b00      	cmp	r3, #0
 8005b16:	d106      	bne.n	8005b26 <xQueueReceive+0x112>
				{
					/* The queue was empty and a block time was specified so
					configure the timeout structure. */
					vTaskInternalSetTimeOutState( &xTimeOut );
 8005b18:	f107 0310 	add.w	r3, r7, #16
 8005b1c:	4618      	mov	r0, r3
 8005b1e:	f000 fedf 	bl	80068e0 <vTaskInternalSetTimeOutState>
					xEntryTimeSet = pdTRUE;
 8005b22:	2301      	movs	r3, #1
 8005b24:	62fb      	str	r3, [r7, #44]	@ 0x2c
					/* Entry time was already set. */
					mtCOVERAGE_TEST_MARKER();
				}
			}
		}
		taskEXIT_CRITICAL();
 8005b26:	f001 fe9f 	bl	8007868 <vPortExitCritical>

		/* Interrupts and other tasks can send to and receive from the queue
		now the critical section has been exited. */

		vTaskSuspendAll();
 8005b2a:	f000 fc3b 	bl	80063a4 <vTaskSuspendAll>
		prvLockQueue( pxQueue );
 8005b2e:	f001 fe65 	bl	80077fc <vPortEnterCritical>
 8005b32:	6abb      	ldr	r3, [r7, #40]	@ 0x28
 8005b34:	f893 3044 	ldrb.w	r3, [r3, #68]	@ 0x44
 8005b38:	b25b      	sxtb	r3, r3
 8005b3a:	f1b3 3fff 	cmp.w	r3, #4294967295
 8005b3e:	d103      	bne.n	8005b48 <xQueueReceive+0x134>
 8005b40:	6abb      	ldr	r3, [r7, #40]	@ 0x28
 8005b42:	2200      	movs	r2, #0
 8005b44:	f883 2044 	strb.w	r2, [r3, #68]	@ 0x44
 8005b48:	6abb      	ldr	r3, [r7, #40]	@ 0x28
 8005b4a:	f893 3045 	ldrb.w	r3, [r3, #69]	@ 0x45
 8005b4e:	b25b      	sxtb	r3, r3
 8005b50:	f1b3 3fff 	cmp.w	r3, #4294967295
 8005b54:	d103      	bne.n	8005b5e <xQueueReceive+0x14a>
 8005b56:	6abb      	ldr	r3, [r7, #40]	@ 0x28
 8005b58:	2200      	movs	r2, #0
 8005b5a:	f883 2045 	strb.w	r2, [r3, #69]	@ 0x45
 8005b5e:	f001 fe83 	bl	8007868 <vPortExitCritical>

		/* Update the timeout state to see if it has expired yet. */
		if( xTaskCheckForTimeOut( &xTimeOut, &xTicksToWait ) == pdFALSE )
 8005b62:	1d3a      	adds	r2, r7, #4
 8005b64:	f107 0310 	add.w	r3, r7, #16
 8005b68:	4611      	mov	r1, r2
 8005b6a:	4618      	mov	r0, r3
 8005b6c:	f000 fece 	bl	800690c <xTaskCheckForTimeOut>
 8005b70:	4603      	mov	r3, r0
 8005b72:	2b00      	cmp	r3, #0
 8005b74:	d123      	bne.n	8005bbe <xQueueReceive+0x1aa>
		{
			/* The timeout has not expired.  If the queue is still empty place
			the task on the list of tasks waiting to receive from the queue. */
			if( prvIsQueueEmpty( pxQueue ) != pdFALSE )
 8005b76:	6ab8      	ldr	r0, [r7, #40]	@ 0x28
 8005b78:	f000 f916 	bl	8005da8 <prvIsQueueEmpty>
 8005b7c:	4603      	mov	r3, r0
 8005b7e:	2b00      	cmp	r3, #0
 8005b80:	d017      	beq.n	8005bb2 <xQueueReceive+0x19e>
			{
				traceBLOCKING_ON_QUEUE_RECEIVE( pxQueue );
				vTaskPlaceOnEventList( &( pxQueue->xTasksWaitingToReceive ), xTicksToWait );
 8005b82:	6abb      	ldr	r3, [r7, #40]	@ 0x28
 8005b84:	3324      	adds	r3, #36	@ 0x24
 8005b86:	687a      	ldr	r2, [r7, #4]
 8005b88:	4611      	mov	r1, r2
 8005b8a:	4618      	mov	r0, r3
 8005b8c:	f000 fdec 	bl	8006768 <vTaskPlaceOnEventList>
				prvUnlockQueue( pxQueue );
 8005b90:	6ab8      	ldr	r0, [r7, #40]	@ 0x28
 8005b92:	f000 f8b7 	bl	8005d04 <prvUnlockQueue>
				if( xTaskResumeAll() == pdFALSE )
 8005b96:	f000 fc13 	bl	80063c0 <xTaskResumeAll>
 8005b9a:	4603      	mov	r3, r0
 8005b9c:	2b00      	cmp	r3, #0
 8005b9e:	d189      	bne.n	8005ab4 <xQueueReceive+0xa0>
				{
					portYIELD_WITHIN_API();
 8005ba0:	4b0f      	ldr	r3, [pc, #60]	@ (8005be0 <xQueueReceive+0x1cc>)
 8005ba2:	f04f 5280 	mov.w	r2, #268435456	@ 0x10000000
 8005ba6:	601a      	str	r2, [r3, #0]
 8005ba8:	f3bf 8f4f 	dsb	sy
 8005bac:	f3bf 8f6f 	isb	sy
 8005bb0:	e780      	b.n	8005ab4 <xQueueReceive+0xa0>
			}
			else
			{
				/* The queue contains data again.  Loop back to try and read the
				data. */
				prvUnlockQueue( pxQueue );
 8005bb2:	6ab8      	ldr	r0, [r7, #40]	@ 0x28
 8005bb4:	f000 f8a6 	bl	8005d04 <prvUnlockQueue>
				( void ) xTaskResumeAll();
 8005bb8:	f000 fc02 	bl	80063c0 <xTaskResumeAll>
 8005bbc:	e77a      	b.n	8005ab4 <xQueueReceive+0xa0>
		}
		else
		{
			/* Timed out.  If there is no data in the queue exit, otherwise loop
			back and attempt to read the data. */
			prvUnlockQueue( pxQueue );
 8005bbe:	6ab8      	ldr	r0, [r7, #40]	@ 0x28
 8005bc0:	f000 f8a0 	bl	8005d04 <prvUnlockQueue>
			( void ) xTaskResumeAll();
 8005bc4:	f000 fbfc 	bl	80063c0 <xTaskResumeAll>

			if( prvIsQueueEmpty( pxQueue ) != pdFALSE )
 8005bc8:	6ab8      	ldr	r0, [r7, #40]	@ 0x28
 8005bca:	f000 f8ed 	bl	8005da8 <prvIsQueueEmpty>
 8005bce:	4603      	mov	r3, r0
 8005bd0:	2b00      	cmp	r3, #0
 8005bd2:	f43f af6f 	beq.w	8005ab4 <xQueueReceive+0xa0>
			{
				traceQUEUE_RECEIVE_FAILED( pxQueue );
				return errQUEUE_EMPTY;
 8005bd6:	2300      	movs	r3, #0
			{
				mtCOVERAGE_TEST_MARKER();
			}
		}
	} /*lint -restore */
}
 8005bd8:	4618      	mov	r0, r3
 8005bda:	3730      	adds	r7, #48	@ 0x30
 8005bdc:	46bd      	mov	sp, r7
 8005bde:	bd80      	pop	{r7, pc}
 8005be0:	e000ed04 	.word	0xe000ed04

08005be4 <prvCopyDataToQueue>:

#endif /* configUSE_MUTEXES */
/*-----------------------------------------------------------*/

static BaseType_t prvCopyDataToQueue( Queue_t * const pxQueue, const void *pvItemToQueue, const BaseType_t xPosition )
{
 8005be4:	b580      	push	{r7, lr}
 8005be6:	b086      	sub	sp, #24
 8005be8:	af00      	add	r7, sp, #0
 8005bea:	60f8      	str	r0, [r7, #12]
 8005bec:	60b9      	str	r1, [r7, #8]
 8005bee:	607a      	str	r2, [r7, #4]
BaseType_t xReturn = pdFALSE;
 8005bf0:	2300      	movs	r3, #0
 8005bf2:	617b      	str	r3, [r7, #20]
UBaseType_t uxMessagesWaiting;

	/* This function is called from a critical section. */

	uxMessagesWaiting = pxQueue->uxMessagesWaiting;
 8005bf4:	68fb      	ldr	r3, [r7, #12]
 8005bf6:	6b9b      	ldr	r3, [r3, #56]	@ 0x38
 8005bf8:	613b      	str	r3, [r7, #16]

	if( pxQueue->uxItemSize == ( UBaseType_t ) 0 )
 8005bfa:	68fb      	ldr	r3, [r7, #12]
 8005bfc:	6c1b      	ldr	r3, [r3, #64]	@ 0x40
 8005bfe:	2b00      	cmp	r3, #0
 8005c00:	d10d      	bne.n	8005c1e <prvCopyDataToQueue+0x3a>
	{
		#if ( configUSE_MUTEXES == 1 )
		{
			if( pxQueue->uxQueueType == queueQUEUE_IS_MUTEX )
 8005c02:	68fb      	ldr	r3, [r7, #12]
 8005c04:	681b      	ldr	r3, [r3, #0]
 8005c06:	2b00      	cmp	r3, #0
 8005c08:	d14d      	bne.n	8005ca6 <prvCopyDataToQueue+0xc2>
			{
				/* The mutex is no longer being held. */
				xReturn = xTaskPriorityDisinherit( pxQueue->u.xSemaphore.xMutexHolder );
 8005c0a:	68fb      	ldr	r3, [r7, #12]
 8005c0c:	689b      	ldr	r3, [r3, #8]
 8005c0e:	4618      	mov	r0, r3
 8005c10:	f000 ffec 	bl	8006bec <xTaskPriorityDisinherit>
 8005c14:	6178      	str	r0, [r7, #20]
				pxQueue->u.xSemaphore.xMutexHolder = NULL;
 8005c16:	68fb      	ldr	r3, [r7, #12]
 8005c18:	2200      	movs	r2, #0
 8005c1a:	609a      	str	r2, [r3, #8]
 8005c1c:	e043      	b.n	8005ca6 <prvCopyDataToQueue+0xc2>
				mtCOVERAGE_TEST_MARKER();
			}
		}
		#endif /* configUSE_MUTEXES */
	}
	else if( xPosition == queueSEND_TO_BACK )
 8005c1e:	687b      	ldr	r3, [r7, #4]
 8005c20:	2b00      	cmp	r3, #0
 8005c22:	d119      	bne.n	8005c58 <prvCopyDataToQueue+0x74>
	{
		( void ) memcpy( ( void * ) pxQueue->pcWriteTo, pvItemToQueue, ( size_t ) pxQueue->uxItemSize ); /*lint !e961 !e418 !e9087 MISRA exception as the casts are only redundant for some ports, plus previous logic ensures a null pointer can only be passed to memcpy() if the copy size is 0.  Cast to void required by function signature and safe as no alignment requirement and copy length specified in bytes. */
 8005c24:	68fb      	ldr	r3, [r7, #12]
 8005c26:	6858      	ldr	r0, [r3, #4]
 8005c28:	68fb      	ldr	r3, [r7, #12]
 8005c2a:	6c1b      	ldr	r3, [r3, #64]	@ 0x40
 8005c2c:	461a      	mov	r2, r3
 8005c2e:	68b9      	ldr	r1, [r7, #8]
 8005c30:	f002 f980 	bl	8007f34 <memcpy>
		pxQueue->pcWriteTo += pxQueue->uxItemSize; /*lint !e9016 Pointer arithmetic on char types ok, especially in this use case where it is the clearest way of conveying intent. */
 8005c34:	68fb      	ldr	r3, [r7, #12]
 8005c36:	685a      	ldr	r2, [r3, #4]
 8005c38:	68fb      	ldr	r3, [r7, #12]
 8005c3a:	6c1b      	ldr	r3, [r3, #64]	@ 0x40
 8005c3c:	441a      	add	r2, r3
 8005c3e:	68fb      	ldr	r3, [r7, #12]
 8005c40:	605a      	str	r2, [r3, #4]
		if( pxQueue->pcWriteTo >= pxQueue->u.xQueue.pcTail ) /*lint !e946 MISRA exception justified as comparison of pointers is the cleanest solution. */
 8005c42:	68fb      	ldr	r3, [r7, #12]
 8005c44:	685a      	ldr	r2, [r3, #4]
 8005c46:	68fb      	ldr	r3, [r7, #12]
 8005c48:	689b      	ldr	r3, [r3, #8]
 8005c4a:	429a      	cmp	r2, r3
 8005c4c:	d32b      	bcc.n	8005ca6 <prvCopyDataToQueue+0xc2>
		{
			pxQueue->pcWriteTo = pxQueue->pcHead;
 8005c4e:	68fb      	ldr	r3, [r7, #12]
 8005c50:	681a      	ldr	r2, [r3, #0]
 8005c52:	68fb      	ldr	r3, [r7, #12]
 8005c54:	605a      	str	r2, [r3, #4]
 8005c56:	e026      	b.n	8005ca6 <prvCopyDataToQueue+0xc2>
			mtCOVERAGE_TEST_MARKER();
		}
	}
	else
	{
		( void ) memcpy( ( void * ) pxQueue->u.xQueue.pcReadFrom, pvItemToQueue, ( size_t ) pxQueue->uxItemSize ); /*lint !e961 !e9087 !e418 MISRA exception as the casts are only redundant for some ports.  Cast to void required by function signature and safe as no alignment requirement and copy length specified in bytes.  Assert checks null pointer only used when length is 0. */
 8005c58:	68fb      	ldr	r3, [r7, #12]
 8005c5a:	68d8      	ldr	r0, [r3, #12]
 8005c5c:	68fb      	ldr	r3, [r7, #12]
 8005c5e:	6c1b      	ldr	r3, [r3, #64]	@ 0x40
 8005c60:	461a      	mov	r2, r3
 8005c62:	68b9      	ldr	r1, [r7, #8]
 8005c64:	f002 f966 	bl	8007f34 <memcpy>
		pxQueue->u.xQueue.pcReadFrom -= pxQueue->uxItemSize;
 8005c68:	68fb      	ldr	r3, [r7, #12]
 8005c6a:	68da      	ldr	r2, [r3, #12]
 8005c6c:	68fb      	ldr	r3, [r7, #12]
 8005c6e:	6c1b      	ldr	r3, [r3, #64]	@ 0x40
 8005c70:	425b      	negs	r3, r3
 8005c72:	441a      	add	r2, r3
 8005c74:	68fb      	ldr	r3, [r7, #12]
 8005c76:	60da      	str	r2, [r3, #12]
		if( pxQueue->u.xQueue.pcReadFrom < pxQueue->pcHead ) /*lint !e946 MISRA exception justified as comparison of pointers is the cleanest solution. */
 8005c78:	68fb      	ldr	r3, [r7, #12]
 8005c7a:	68da      	ldr	r2, [r3, #12]
 8005c7c:	68fb      	ldr	r3, [r7, #12]
 8005c7e:	681b      	ldr	r3, [r3, #0]
 8005c80:	429a      	cmp	r2, r3
 8005c82:	d207      	bcs.n	8005c94 <prvCopyDataToQueue+0xb0>
		{
			pxQueue->u.xQueue.pcReadFrom = ( pxQueue->u.xQueue.pcTail - pxQueue->uxItemSize );
 8005c84:	68fb      	ldr	r3, [r7, #12]
 8005c86:	689a      	ldr	r2, [r3, #8]
 8005c88:	68fb      	ldr	r3, [r7, #12]
 8005c8a:	6c1b      	ldr	r3, [r3, #64]	@ 0x40
 8005c8c:	425b      	negs	r3, r3
 8005c8e:	441a      	add	r2, r3
 8005c90:	68fb      	ldr	r3, [r7, #12]
 8005c92:	60da      	str	r2, [r3, #12]
		else
		{
			mtCOVERAGE_TEST_MARKER();
		}

		if( xPosition == queueOVERWRITE )
 8005c94:	687b      	ldr	r3, [r7, #4]
 8005c96:	2b02      	cmp	r3, #2
 8005c98:	d105      	bne.n	8005ca6 <prvCopyDataToQueue+0xc2>
		{
			if( uxMessagesWaiting > ( UBaseType_t ) 0 )
 8005c9a:	693b      	ldr	r3, [r7, #16]
 8005c9c:	2b00      	cmp	r3, #0
 8005c9e:	d002      	beq.n	8005ca6 <prvCopyDataToQueue+0xc2>
			{
				/* An item is not being added but overwritten, so subtract
				one from the recorded number of items in the queue so when
				one is added again below the number of recorded items remains
				correct. */
				--uxMessagesWaiting;
 8005ca0:	693b      	ldr	r3, [r7, #16]
 8005ca2:	3b01      	subs	r3, #1
 8005ca4:	613b      	str	r3, [r7, #16]
		{
			mtCOVERAGE_TEST_MARKER();
		}
	}

	pxQueue->uxMessagesWaiting = uxMessagesWaiting + ( UBaseType_t ) 1;
 8005ca6:	693b      	ldr	r3, [r7, #16]
 8005ca8:	1c5a      	adds	r2, r3, #1
 8005caa:	68fb      	ldr	r3, [r7, #12]
 8005cac:	639a      	str	r2, [r3, #56]	@ 0x38

	return xReturn;
 8005cae:	697b      	ldr	r3, [r7, #20]
}
 8005cb0:	4618      	mov	r0, r3
 8005cb2:	3718      	adds	r7, #24
 8005cb4:	46bd      	mov	sp, r7
 8005cb6:	bd80      	pop	{r7, pc}

08005cb8 <prvCopyDataFromQueue>:
/*-----------------------------------------------------------*/

static void prvCopyDataFromQueue( Queue_t * const pxQueue, void * const pvBuffer )
{
 8005cb8:	b580      	push	{r7, lr}
 8005cba:	b082      	sub	sp, #8
 8005cbc:	af00      	add	r7, sp, #0
 8005cbe:	6078      	str	r0, [r7, #4]
 8005cc0:	6039      	str	r1, [r7, #0]
	if( pxQueue->uxItemSize != ( UBaseType_t ) 0 )
 8005cc2:	687b      	ldr	r3, [r7, #4]
 8005cc4:	6c1b      	ldr	r3, [r3, #64]	@ 0x40
 8005cc6:	2b00      	cmp	r3, #0
 8005cc8:	d018      	beq.n	8005cfc <prvCopyDataFromQueue+0x44>
	{
		pxQueue->u.xQueue.pcReadFrom += pxQueue->uxItemSize; /*lint !e9016 Pointer arithmetic on char types ok, especially in this use case where it is the clearest way of conveying intent. */
 8005cca:	687b      	ldr	r3, [r7, #4]
 8005ccc:	68da      	ldr	r2, [r3, #12]
 8005cce:	687b      	ldr	r3, [r7, #4]
 8005cd0:	6c1b      	ldr	r3, [r3, #64]	@ 0x40
 8005cd2:	441a      	add	r2, r3
 8005cd4:	687b      	ldr	r3, [r7, #4]
 8005cd6:	60da      	str	r2, [r3, #12]
		if( pxQueue->u.xQueue.pcReadFrom >= pxQueue->u.xQueue.pcTail ) /*lint !e946 MISRA exception justified as use of the relational operator is the cleanest solutions. */
 8005cd8:	687b      	ldr	r3, [r7, #4]
 8005cda:	68da      	ldr	r2, [r3, #12]
 8005cdc:	687b      	ldr	r3, [r7, #4]
 8005cde:	689b      	ldr	r3, [r3, #8]
 8005ce0:	429a      	cmp	r2, r3
 8005ce2:	d303      	bcc.n	8005cec <prvCopyDataFromQueue+0x34>
		{
			pxQueue->u.xQueue.pcReadFrom = pxQueue->pcHead;
 8005ce4:	687b      	ldr	r3, [r7, #4]
 8005ce6:	681a      	ldr	r2, [r3, #0]
 8005ce8:	687b      	ldr	r3, [r7, #4]
 8005cea:	60da      	str	r2, [r3, #12]
		}
		else
		{
			mtCOVERAGE_TEST_MARKER();
		}
		( void ) memcpy( ( void * ) pvBuffer, ( void * ) pxQueue->u.xQueue.pcReadFrom, ( size_t ) pxQueue->uxItemSize ); /*lint !e961 !e418 !e9087 MISRA exception as the casts are only redundant for some ports.  Also previous logic ensures a null pointer can only be passed to memcpy() when the count is 0.  Cast to void required by function signature and safe as no alignment requirement and copy length specified in bytes. */
 8005cec:	687b      	ldr	r3, [r7, #4]
 8005cee:	68d9      	ldr	r1, [r3, #12]
 8005cf0:	687b      	ldr	r3, [r7, #4]
 8005cf2:	6c1b      	ldr	r3, [r3, #64]	@ 0x40
 8005cf4:	461a      	mov	r2, r3
 8005cf6:	6838      	ldr	r0, [r7, #0]
 8005cf8:	f002 f91c 	bl	8007f34 <memcpy>
	}
}
 8005cfc:	bf00      	nop
 8005cfe:	3708      	adds	r7, #8
 8005d00:	46bd      	mov	sp, r7
 8005d02:	bd80      	pop	{r7, pc}

08005d04 <prvUnlockQueue>:
/*-----------------------------------------------------------*/

static void prvUnlockQueue( Queue_t * const pxQueue )
{
 8005d04:	b580      	push	{r7, lr}
 8005d06:	b084      	sub	sp, #16
 8005d08:	af00      	add	r7, sp, #0
 8005d0a:	6078      	str	r0, [r7, #4]

	/* The lock counts contains the number of extra data items placed or
	removed from the queue while the queue was locked.  When a queue is
	locked items can be added or removed, but the event lists cannot be
	updated. */
	taskENTER_CRITICAL();
 8005d0c:	f001 fd76 	bl	80077fc <vPortEnterCritical>
	{
		int8_t cTxLock = pxQueue->cTxLock;
 8005d10:	687b      	ldr	r3, [r7, #4]
 8005d12:	f893 3045 	ldrb.w	r3, [r3, #69]	@ 0x45
 8005d16:	73fb      	strb	r3, [r7, #15]

		/* See if data was added to the queue while it was locked. */
		while( cTxLock > queueLOCKED_UNMODIFIED )
 8005d18:	e011      	b.n	8005d3e <prvUnlockQueue+0x3a>
			}
			#else /* configUSE_QUEUE_SETS */
			{
				/* Tasks that are removed from the event list will get added to
				the pending ready list as the scheduler is still suspended. */
				if( listLIST_IS_EMPTY( &( pxQueue->xTasksWaitingToReceive ) ) == pdFALSE )
 8005d1a:	687b      	ldr	r3, [r7, #4]
 8005d1c:	6a5b      	ldr	r3, [r3, #36]	@ 0x24
 8005d1e:	2b00      	cmp	r3, #0
 8005d20:	d012      	beq.n	8005d48 <prvUnlockQueue+0x44>
				{
					if( xTaskRemoveFromEventList( &( pxQueue->xTasksWaitingToReceive ) ) != pdFALSE )
 8005d22:	687b      	ldr	r3, [r7, #4]
 8005d24:	3324      	adds	r3, #36	@ 0x24
 8005d26:	4618      	mov	r0, r3
 8005d28:	f000 fd74 	bl	8006814 <xTaskRemoveFromEventList>
 8005d2c:	4603      	mov	r3, r0
 8005d2e:	2b00      	cmp	r3, #0
 8005d30:	d001      	beq.n	8005d36 <prvUnlockQueue+0x32>
					{
						/* The task waiting has a higher priority so record that
						a context switch is required. */
						vTaskMissedYield();
 8005d32:	f000 fe53 	bl	80069dc <vTaskMissedYield>
					break;
				}
			}
			#endif /* configUSE_QUEUE_SETS */

			--cTxLock;
 8005d36:	7bfb      	ldrb	r3, [r7, #15]
 8005d38:	3b01      	subs	r3, #1
 8005d3a:	b2db      	uxtb	r3, r3
 8005d3c:	73fb      	strb	r3, [r7, #15]
		while( cTxLock > queueLOCKED_UNMODIFIED )
 8005d3e:	f997 300f 	ldrsb.w	r3, [r7, #15]
 8005d42:	2b00      	cmp	r3, #0
 8005d44:	dce9      	bgt.n	8005d1a <prvUnlockQueue+0x16>
 8005d46:	e000      	b.n	8005d4a <prvUnlockQueue+0x46>
					break;
 8005d48:	bf00      	nop
		}

		pxQueue->cTxLock = queueUNLOCKED;
 8005d4a:	687b      	ldr	r3, [r7, #4]
 8005d4c:	22ff      	movs	r2, #255	@ 0xff
 8005d4e:	f883 2045 	strb.w	r2, [r3, #69]	@ 0x45
	}
	taskEXIT_CRITICAL();
 8005d52:	f001 fd89 	bl	8007868 <vPortExitCritical>

	/* Do the same for the Rx lock. */
	taskENTER_CRITICAL();
 8005d56:	f001 fd51 	bl	80077fc <vPortEnterCritical>
	{
		int8_t cRxLock = pxQueue->cRxLock;
 8005d5a:	687b      	ldr	r3, [r7, #4]
 8005d5c:	f893 3044 	ldrb.w	r3, [r3, #68]	@ 0x44
 8005d60:	73bb      	strb	r3, [r7, #14]

		while( cRxLock > queueLOCKED_UNMODIFIED )
 8005d62:	e011      	b.n	8005d88 <prvUnlockQueue+0x84>
		{
			if( listLIST_IS_EMPTY( &( pxQueue->xTasksWaitingToSend ) ) == pdFALSE )
 8005d64:	687b      	ldr	r3, [r7, #4]
 8005d66:	691b      	ldr	r3, [r3, #16]
 8005d68:	2b00      	cmp	r3, #0
 8005d6a:	d012      	beq.n	8005d92 <prvUnlockQueue+0x8e>
			{
				if( xTaskRemoveFromEventList( &( pxQueue->xTasksWaitingToSend ) ) != pdFALSE )
 8005d6c:	687b      	ldr	r3, [r7, #4]
 8005d6e:	3310      	adds	r3, #16
 8005d70:	4618      	mov	r0, r3
 8005d72:	f000 fd4f 	bl	8006814 <xTaskRemoveFromEventList>
 8005d76:	4603      	mov	r3, r0
 8005d78:	2b00      	cmp	r3, #0
 8005d7a:	d001      	beq.n	8005d80 <prvUnlockQueue+0x7c>
				{
					vTaskMissedYield();
 8005d7c:	f000 fe2e 	bl	80069dc <vTaskMissedYield>
				else
				{
					mtCOVERAGE_TEST_MARKER();
				}

				--cRxLock;
 8005d80:	7bbb      	ldrb	r3, [r7, #14]
 8005d82:	3b01      	subs	r3, #1
 8005d84:	b2db      	uxtb	r3, r3
 8005d86:	73bb      	strb	r3, [r7, #14]
		while( cRxLock > queueLOCKED_UNMODIFIED )
 8005d88:	f997 300e 	ldrsb.w	r3, [r7, #14]
 8005d8c:	2b00      	cmp	r3, #0
 8005d8e:	dce9      	bgt.n	8005d64 <prvUnlockQueue+0x60>
 8005d90:	e000      	b.n	8005d94 <prvUnlockQueue+0x90>
			}
			else
			{
				break;
 8005d92:	bf00      	nop
			}
		}

		pxQueue->cRxLock = queueUNLOCKED;
 8005d94:	687b      	ldr	r3, [r7, #4]
 8005d96:	22ff      	movs	r2, #255	@ 0xff
 8005d98:	f883 2044 	strb.w	r2, [r3, #68]	@ 0x44
	}
	taskEXIT_CRITICAL();
 8005d9c:	f001 fd64 	bl	8007868 <vPortExitCritical>
}
 8005da0:	bf00      	nop
 8005da2:	3710      	adds	r7, #16
 8005da4:	46bd      	mov	sp, r7
 8005da6:	bd80      	pop	{r7, pc}

08005da8 <prvIsQueueEmpty>:
/*-----------------------------------------------------------*/

static BaseType_t prvIsQueueEmpty( const Queue_t *pxQueue )
{
 8005da8:	b580      	push	{r7, lr}
 8005daa:	b084      	sub	sp, #16
 8005dac:	af00      	add	r7, sp, #0
 8005dae:	6078      	str	r0, [r7, #4]
BaseType_t xReturn;

	taskENTER_CRITICAL();
 8005db0:	f001 fd24 	bl	80077fc <vPortEnterCritical>
	{
		if( pxQueue->uxMessagesWaiting == ( UBaseType_t )  0 )
 8005db4:	687b      	ldr	r3, [r7, #4]
 8005db6:	6b9b      	ldr	r3, [r3, #56]	@ 0x38
 8005db8:	2b00      	cmp	r3, #0
 8005dba:	d102      	bne.n	8005dc2 <prvIsQueueEmpty+0x1a>
		{
			xReturn = pdTRUE;
 8005dbc:	2301      	movs	r3, #1
 8005dbe:	60fb      	str	r3, [r7, #12]
 8005dc0:	e001      	b.n	8005dc6 <prvIsQueueEmpty+0x1e>
		}
		else
		{
			xReturn = pdFALSE;
 8005dc2:	2300      	movs	r3, #0
 8005dc4:	60fb      	str	r3, [r7, #12]
		}
	}
	taskEXIT_CRITICAL();
 8005dc6:	f001 fd4f 	bl	8007868 <vPortExitCritical>

	return xReturn;
 8005dca:	68fb      	ldr	r3, [r7, #12]
}
 8005dcc:	4618      	mov	r0, r3
 8005dce:	3710      	adds	r7, #16
 8005dd0:	46bd      	mov	sp, r7
 8005dd2:	bd80      	pop	{r7, pc}

08005dd4 <prvIsQueueFull>:
	return xReturn;
} /*lint !e818 xQueue could not be pointer to const because it is a typedef. */
/*-----------------------------------------------------------*/

static BaseType_t prvIsQueueFull( const Queue_t *pxQueue )
{
 8005dd4:	b580      	push	{r7, lr}
 8005dd6:	b084      	sub	sp, #16
 8005dd8:	af00      	add	r7, sp, #0
 8005dda:	6078      	str	r0, [r7, #4]
BaseType_t xReturn;

	taskENTER_CRITICAL();
 8005ddc:	f001 fd0e 	bl	80077fc <vPortEnterCritical>
	{
		if( pxQueue->uxMessagesWaiting == pxQueue->uxLength )
 8005de0:	687b      	ldr	r3, [r7, #4]
 8005de2:	6b9a      	ldr	r2, [r3, #56]	@ 0x38
 8005de4:	687b      	ldr	r3, [r7, #4]
 8005de6:	6bdb      	ldr	r3, [r3, #60]	@ 0x3c
 8005de8:	429a      	cmp	r2, r3
 8005dea:	d102      	bne.n	8005df2 <prvIsQueueFull+0x1e>
		{
			xReturn = pdTRUE;
 8005dec:	2301      	movs	r3, #1
 8005dee:	60fb      	str	r3, [r7, #12]
 8005df0:	e001      	b.n	8005df6 <prvIsQueueFull+0x22>
		}
		else
		{
			xReturn = pdFALSE;
 8005df2:	2300      	movs	r3, #0
 8005df4:	60fb      	str	r3, [r7, #12]
		}
	}
	taskEXIT_CRITICAL();
 8005df6:	f001 fd37 	bl	8007868 <vPortExitCritical>

	return xReturn;
 8005dfa:	68fb      	ldr	r3, [r7, #12]
}
 8005dfc:	4618      	mov	r0, r3
 8005dfe:	3710      	adds	r7, #16
 8005e00:	46bd      	mov	sp, r7
 8005e02:	bd80      	pop	{r7, pc}

08005e04 <vQueueAddToRegistry>:
/*-----------------------------------------------------------*/

#if ( configQUEUE_REGISTRY_SIZE > 0 )

	void vQueueAddToRegistry( QueueHandle_t xQueue, const char *pcQueueName ) /*lint !e971 Unqualified char types are allowed for strings and single characters only. */
	{
 8005e04:	b480      	push	{r7}
 8005e06:	b085      	sub	sp, #20
 8005e08:	af00      	add	r7, sp, #0
 8005e0a:	6078      	str	r0, [r7, #4]
 8005e0c:	6039      	str	r1, [r7, #0]
	UBaseType_t ux;

		/* See if there is an empty space in the registry.  A NULL name denotes
		a free slot. */
		for( ux = ( UBaseType_t ) 0U; ux < ( UBaseType_t ) configQUEUE_REGISTRY_SIZE; ux++ )
 8005e0e:	2300      	movs	r3, #0
 8005e10:	60fb      	str	r3, [r7, #12]
 8005e12:	e014      	b.n	8005e3e <vQueueAddToRegistry+0x3a>
		{
			if( xQueueRegistry[ ux ].pcQueueName == NULL )
 8005e14:	4a0f      	ldr	r2, [pc, #60]	@ (8005e54 <vQueueAddToRegistry+0x50>)
 8005e16:	68fb      	ldr	r3, [r7, #12]
 8005e18:	f852 3033 	ldr.w	r3, [r2, r3, lsl #3]
 8005e1c:	2b00      	cmp	r3, #0
 8005e1e:	d10b      	bne.n	8005e38 <vQueueAddToRegistry+0x34>
			{
				/* Store the information on this queue. */
				xQueueRegistry[ ux ].pcQueueName = pcQueueName;
 8005e20:	490c      	ldr	r1, [pc, #48]	@ (8005e54 <vQueueAddToRegistry+0x50>)
 8005e22:	68fb      	ldr	r3, [r7, #12]
 8005e24:	683a      	ldr	r2, [r7, #0]
 8005e26:	f841 2033 	str.w	r2, [r1, r3, lsl #3]
				xQueueRegistry[ ux ].xHandle = xQueue;
 8005e2a:	4a0a      	ldr	r2, [pc, #40]	@ (8005e54 <vQueueAddToRegistry+0x50>)
 8005e2c:	68fb      	ldr	r3, [r7, #12]
 8005e2e:	00db      	lsls	r3, r3, #3
 8005e30:	4413      	add	r3, r2
 8005e32:	687a      	ldr	r2, [r7, #4]
 8005e34:	605a      	str	r2, [r3, #4]

				traceQUEUE_REGISTRY_ADD( xQueue, pcQueueName );
				break;
 8005e36:	e006      	b.n	8005e46 <vQueueAddToRegistry+0x42>
		for( ux = ( UBaseType_t ) 0U; ux < ( UBaseType_t ) configQUEUE_REGISTRY_SIZE; ux++ )
 8005e38:	68fb      	ldr	r3, [r7, #12]
 8005e3a:	3301      	adds	r3, #1
 8005e3c:	60fb      	str	r3, [r7, #12]
 8005e3e:	68fb      	ldr	r3, [r7, #12]
 8005e40:	2b07      	cmp	r3, #7
 8005e42:	d9e7      	bls.n	8005e14 <vQueueAddToRegistry+0x10>
			else
			{
				mtCOVERAGE_TEST_MARKER();
			}
		}
	}
 8005e44:	bf00      	nop
 8005e46:	bf00      	nop
 8005e48:	3714      	adds	r7, #20
 8005e4a:	46bd      	mov	sp, r7
 8005e4c:	f85d 7b04 	ldr.w	r7, [sp], #4
 8005e50:	4770      	bx	lr
 8005e52:	bf00      	nop
 8005e54:	20000938 	.word	0x20000938

08005e58 <vQueueWaitForMessageRestricted>:
/*-----------------------------------------------------------*/

#if ( configUSE_TIMERS == 1 )

	void vQueueWaitForMessageRestricted( QueueHandle_t xQueue, TickType_t xTicksToWait, const BaseType_t xWaitIndefinitely )
	{
 8005e58:	b580      	push	{r7, lr}
 8005e5a:	b086      	sub	sp, #24
 8005e5c:	af00      	add	r7, sp, #0
 8005e5e:	60f8      	str	r0, [r7, #12]
 8005e60:	60b9      	str	r1, [r7, #8]
 8005e62:	607a      	str	r2, [r7, #4]
	Queue_t * const pxQueue = xQueue;
 8005e64:	68fb      	ldr	r3, [r7, #12]
 8005e66:	617b      	str	r3, [r7, #20]
		will not actually cause the task to block, just place it on a blocked
		list.  It will not block until the scheduler is unlocked - at which
		time a yield will be performed.  If an item is added to the queue while
		the queue is locked, and the calling task blocks on the queue, then the
		calling task will be immediately unblocked when the queue is unlocked. */
		prvLockQueue( pxQueue );
 8005e68:	f001 fcc8 	bl	80077fc <vPortEnterCritical>
 8005e6c:	697b      	ldr	r3, [r7, #20]
 8005e6e:	f893 3044 	ldrb.w	r3, [r3, #68]	@ 0x44
 8005e72:	b25b      	sxtb	r3, r3
 8005e74:	f1b3 3fff 	cmp.w	r3, #4294967295
 8005e78:	d103      	bne.n	8005e82 <vQueueWaitForMessageRestricted+0x2a>
 8005e7a:	697b      	ldr	r3, [r7, #20]
 8005e7c:	2200      	movs	r2, #0
 8005e7e:	f883 2044 	strb.w	r2, [r3, #68]	@ 0x44
 8005e82:	697b      	ldr	r3, [r7, #20]
 8005e84:	f893 3045 	ldrb.w	r3, [r3, #69]	@ 0x45
 8005e88:	b25b      	sxtb	r3, r3
 8005e8a:	f1b3 3fff 	cmp.w	r3, #4294967295
 8005e8e:	d103      	bne.n	8005e98 <vQueueWaitForMessageRestricted+0x40>
 8005e90:	697b      	ldr	r3, [r7, #20]
 8005e92:	2200      	movs	r2, #0
 8005e94:	f883 2045 	strb.w	r2, [r3, #69]	@ 0x45
 8005e98:	f001 fce6 	bl	8007868 <vPortExitCritical>
		if( pxQueue->uxMessagesWaiting == ( UBaseType_t ) 0U )
 8005e9c:	697b      	ldr	r3, [r7, #20]
 8005e9e:	6b9b      	ldr	r3, [r3, #56]	@ 0x38
 8005ea0:	2b00      	cmp	r3, #0
 8005ea2:	d106      	bne.n	8005eb2 <vQueueWaitForMessageRestricted+0x5a>
		{
			/* There is nothing in the queue, block for the specified period. */
			vTaskPlaceOnEventListRestricted( &( pxQueue->xTasksWaitingToReceive ), xTicksToWait, xWaitIndefinitely );
 8005ea4:	697b      	ldr	r3, [r7, #20]
 8005ea6:	3324      	adds	r3, #36	@ 0x24
 8005ea8:	687a      	ldr	r2, [r7, #4]
 8005eaa:	68b9      	ldr	r1, [r7, #8]
 8005eac:	4618      	mov	r0, r3
 8005eae:	f000 fc83 	bl	80067b8 <vTaskPlaceOnEventListRestricted>
		}
		else
		{
			mtCOVERAGE_TEST_MARKER();
		}
		prvUnlockQueue( pxQueue );
 8005eb2:	6978      	ldr	r0, [r7, #20]
 8005eb4:	f7ff ff26 	bl	8005d04 <prvUnlockQueue>
	}
 8005eb8:	bf00      	nop
 8005eba:	3718      	adds	r7, #24
 8005ebc:	46bd      	mov	sp, r7
 8005ebe:	bd80      	pop	{r7, pc}

08005ec0 <xTaskCreateStatic>:
									const uint32_t ulStackDepth,
									void * const pvParameters,
									UBaseType_t uxPriority,
									StackType_t * const puxStackBuffer,
									StaticTask_t * const pxTaskBuffer )
	{
 8005ec0:	b580      	push	{r7, lr}
 8005ec2:	b08e      	sub	sp, #56	@ 0x38
 8005ec4:	af04      	add	r7, sp, #16
 8005ec6:	60f8      	str	r0, [r7, #12]
 8005ec8:	60b9      	str	r1, [r7, #8]
 8005eca:	607a      	str	r2, [r7, #4]
 8005ecc:	603b      	str	r3, [r7, #0]
	TCB_t *pxNewTCB;
	TaskHandle_t xReturn;

		configASSERT( puxStackBuffer != NULL );
 8005ece:	6b7b      	ldr	r3, [r7, #52]	@ 0x34
 8005ed0:	2b00      	cmp	r3, #0
 8005ed2:	d10d      	bne.n	8005ef0 <xTaskCreateStatic+0x30>
	__asm volatile
 8005ed4:	f04f 0350 	mov.w	r3, #80	@ 0x50
 8005ed8:	b672      	cpsid	i
 8005eda:	f383 8811 	msr	BASEPRI, r3
 8005ede:	f3bf 8f6f 	isb	sy
 8005ee2:	f3bf 8f4f 	dsb	sy
 8005ee6:	b662      	cpsie	i
 8005ee8:	623b      	str	r3, [r7, #32]
}
 8005eea:	bf00      	nop
 8005eec:	bf00      	nop
 8005eee:	e7fd      	b.n	8005eec <xTaskCreateStatic+0x2c>
		configASSERT( pxTaskBuffer != NULL );
 8005ef0:	6bbb      	ldr	r3, [r7, #56]	@ 0x38
 8005ef2:	2b00      	cmp	r3, #0
 8005ef4:	d10d      	bne.n	8005f12 <xTaskCreateStatic+0x52>
	__asm volatile
 8005ef6:	f04f 0350 	mov.w	r3, #80	@ 0x50
 8005efa:	b672      	cpsid	i
 8005efc:	f383 8811 	msr	BASEPRI, r3
 8005f00:	f3bf 8f6f 	isb	sy
 8005f04:	f3bf 8f4f 	dsb	sy
 8005f08:	b662      	cpsie	i
 8005f0a:	61fb      	str	r3, [r7, #28]
}
 8005f0c:	bf00      	nop
 8005f0e:	bf00      	nop
 8005f10:	e7fd      	b.n	8005f0e <xTaskCreateStatic+0x4e>
		#if( configASSERT_DEFINED == 1 )
		{
			/* Sanity check that the size of the structure used to declare a
			variable of type StaticTask_t equals the size of the real task
			structure. */
			volatile size_t xSize = sizeof( StaticTask_t );
 8005f12:	23a8      	movs	r3, #168	@ 0xa8
 8005f14:	613b      	str	r3, [r7, #16]
			configASSERT( xSize == sizeof( TCB_t ) );
 8005f16:	693b      	ldr	r3, [r7, #16]
 8005f18:	2ba8      	cmp	r3, #168	@ 0xa8
 8005f1a:	d00d      	beq.n	8005f38 <xTaskCreateStatic+0x78>
	__asm volatile
 8005f1c:	f04f 0350 	mov.w	r3, #80	@ 0x50
 8005f20:	b672      	cpsid	i
 8005f22:	f383 8811 	msr	BASEPRI, r3
 8005f26:	f3bf 8f6f 	isb	sy
 8005f2a:	f3bf 8f4f 	dsb	sy
 8005f2e:	b662      	cpsie	i
 8005f30:	61bb      	str	r3, [r7, #24]
}
 8005f32:	bf00      	nop
 8005f34:	bf00      	nop
 8005f36:	e7fd      	b.n	8005f34 <xTaskCreateStatic+0x74>
			( void ) xSize; /* Prevent lint warning when configASSERT() is not used. */
 8005f38:	693b      	ldr	r3, [r7, #16]
		}
		#endif /* configASSERT_DEFINED */


		if( ( pxTaskBuffer != NULL ) && ( puxStackBuffer != NULL ) )
 8005f3a:	6bbb      	ldr	r3, [r7, #56]	@ 0x38
 8005f3c:	2b00      	cmp	r3, #0
 8005f3e:	d01e      	beq.n	8005f7e <xTaskCreateStatic+0xbe>
 8005f40:	6b7b      	ldr	r3, [r7, #52]	@ 0x34
 8005f42:	2b00      	cmp	r3, #0
 8005f44:	d01b      	beq.n	8005f7e <xTaskCreateStatic+0xbe>
		{
			/* The memory used for the task's TCB and stack are passed into this
			function - use them. */
			pxNewTCB = ( TCB_t * ) pxTaskBuffer; /*lint !e740 !e9087 Unusual cast is ok as the structures are designed to have the same alignment, and the size is checked by an assert. */
 8005f46:	6bbb      	ldr	r3, [r7, #56]	@ 0x38
 8005f48:	627b      	str	r3, [r7, #36]	@ 0x24
			pxNewTCB->pxStack = ( StackType_t * ) puxStackBuffer;
 8005f4a:	6a7b      	ldr	r3, [r7, #36]	@ 0x24
 8005f4c:	6b7a      	ldr	r2, [r7, #52]	@ 0x34
 8005f4e:	631a      	str	r2, [r3, #48]	@ 0x30

			#if( tskSTATIC_AND_DYNAMIC_ALLOCATION_POSSIBLE != 0 ) /*lint !e731 !e9029 Macro has been consolidated for readability reasons. */
			{
				/* Tasks can be created statically or dynamically, so note this
				task was created statically in case the task is later deleted. */
				pxNewTCB->ucStaticallyAllocated = tskSTATICALLY_ALLOCATED_STACK_AND_TCB;
 8005f50:	6a7b      	ldr	r3, [r7, #36]	@ 0x24
 8005f52:	2202      	movs	r2, #2
 8005f54:	f883 20a5 	strb.w	r2, [r3, #165]	@ 0xa5
			}
			#endif /* tskSTATIC_AND_DYNAMIC_ALLOCATION_POSSIBLE */

			prvInitialiseNewTask( pxTaskCode, pcName, ulStackDepth, pvParameters, uxPriority, &xReturn, pxNewTCB, NULL );
 8005f58:	2300      	movs	r3, #0
 8005f5a:	9303      	str	r3, [sp, #12]
 8005f5c:	6a7b      	ldr	r3, [r7, #36]	@ 0x24
 8005f5e:	9302      	str	r3, [sp, #8]
 8005f60:	f107 0314 	add.w	r3, r7, #20
 8005f64:	9301      	str	r3, [sp, #4]
 8005f66:	6b3b      	ldr	r3, [r7, #48]	@ 0x30
 8005f68:	9300      	str	r3, [sp, #0]
 8005f6a:	683b      	ldr	r3, [r7, #0]
 8005f6c:	687a      	ldr	r2, [r7, #4]
 8005f6e:	68b9      	ldr	r1, [r7, #8]
 8005f70:	68f8      	ldr	r0, [r7, #12]
 8005f72:	f000 f851 	bl	8006018 <prvInitialiseNewTask>
			prvAddNewTaskToReadyList( pxNewTCB );
 8005f76:	6a78      	ldr	r0, [r7, #36]	@ 0x24
 8005f78:	f000 f8f8 	bl	800616c <prvAddNewTaskToReadyList>
 8005f7c:	e001      	b.n	8005f82 <xTaskCreateStatic+0xc2>
		}
		else
		{
			xReturn = NULL;
 8005f7e:	2300      	movs	r3, #0
 8005f80:	617b      	str	r3, [r7, #20]
		}

		return xReturn;
 8005f82:	697b      	ldr	r3, [r7, #20]
	}
 8005f84:	4618      	mov	r0, r3
 8005f86:	3728      	adds	r7, #40	@ 0x28
 8005f88:	46bd      	mov	sp, r7
 8005f8a:	bd80      	pop	{r7, pc}

08005f8c <xTaskCreate>:
							const char * const pcName,		/*lint !e971 Unqualified char types are allowed for strings and single characters only. */
							const configSTACK_DEPTH_TYPE usStackDepth,
							void * const pvParameters,
							UBaseType_t uxPriority,
							TaskHandle_t * const pxCreatedTask )
	{
 8005f8c:	b580      	push	{r7, lr}
 8005f8e:	b08c      	sub	sp, #48	@ 0x30
 8005f90:	af04      	add	r7, sp, #16
 8005f92:	60f8      	str	r0, [r7, #12]
 8005f94:	60b9      	str	r1, [r7, #8]
 8005f96:	603b      	str	r3, [r7, #0]
 8005f98:	4613      	mov	r3, r2
 8005f9a:	80fb      	strh	r3, [r7, #6]
		#else /* portSTACK_GROWTH */
		{
		StackType_t *pxStack;

			/* Allocate space for the stack used by the task being created. */
			pxStack = pvPortMalloc( ( ( ( size_t ) usStackDepth ) * sizeof( StackType_t ) ) ); /*lint !e9079 All values returned by pvPortMalloc() have at least the alignment required by the MCU's stack and this allocation is the stack. */
 8005f9c:	88fb      	ldrh	r3, [r7, #6]
 8005f9e:	009b      	lsls	r3, r3, #2
 8005fa0:	4618      	mov	r0, r3
 8005fa2:	f001 fd59 	bl	8007a58 <pvPortMalloc>
 8005fa6:	6178      	str	r0, [r7, #20]

			if( pxStack != NULL )
 8005fa8:	697b      	ldr	r3, [r7, #20]
 8005faa:	2b00      	cmp	r3, #0
 8005fac:	d00e      	beq.n	8005fcc <xTaskCreate+0x40>
			{
				/* Allocate space for the TCB. */
				pxNewTCB = ( TCB_t * ) pvPortMalloc( sizeof( TCB_t ) ); /*lint !e9087 !e9079 All values returned by pvPortMalloc() have at least the alignment required by the MCU's stack, and the first member of TCB_t is always a pointer to the task's stack. */
 8005fae:	20a8      	movs	r0, #168	@ 0xa8
 8005fb0:	f001 fd52 	bl	8007a58 <pvPortMalloc>
 8005fb4:	61f8      	str	r0, [r7, #28]

				if( pxNewTCB != NULL )
 8005fb6:	69fb      	ldr	r3, [r7, #28]
 8005fb8:	2b00      	cmp	r3, #0
 8005fba:	d003      	beq.n	8005fc4 <xTaskCreate+0x38>
				{
					/* Store the stack location in the TCB. */
					pxNewTCB->pxStack = pxStack;
 8005fbc:	69fb      	ldr	r3, [r7, #28]
 8005fbe:	697a      	ldr	r2, [r7, #20]
 8005fc0:	631a      	str	r2, [r3, #48]	@ 0x30
 8005fc2:	e005      	b.n	8005fd0 <xTaskCreate+0x44>
				}
				else
				{
					/* The stack cannot be used as the TCB was not created.  Free
					it again. */
					vPortFree( pxStack );
 8005fc4:	6978      	ldr	r0, [r7, #20]
 8005fc6:	f001 fe15 	bl	8007bf4 <vPortFree>
 8005fca:	e001      	b.n	8005fd0 <xTaskCreate+0x44>
				}
			}
			else
			{
				pxNewTCB = NULL;
 8005fcc:	2300      	movs	r3, #0
 8005fce:	61fb      	str	r3, [r7, #28]
			}
		}
		#endif /* portSTACK_GROWTH */

		if( pxNewTCB != NULL )
 8005fd0:	69fb      	ldr	r3, [r7, #28]
 8005fd2:	2b00      	cmp	r3, #0
 8005fd4:	d017      	beq.n	8006006 <xTaskCreate+0x7a>
		{
			#if( tskSTATIC_AND_DYNAMIC_ALLOCATION_POSSIBLE != 0 ) /*lint !e9029 !e731 Macro has been consolidated for readability reasons. */
			{
				/* Tasks can be created statically or dynamically, so note this
				task was created dynamically in case it is later deleted. */
				pxNewTCB->ucStaticallyAllocated = tskDYNAMICALLY_ALLOCATED_STACK_AND_TCB;
 8005fd6:	69fb      	ldr	r3, [r7, #28]
 8005fd8:	2200      	movs	r2, #0
 8005fda:	f883 20a5 	strb.w	r2, [r3, #165]	@ 0xa5
			}
			#endif /* tskSTATIC_AND_DYNAMIC_ALLOCATION_POSSIBLE */

			prvInitialiseNewTask( pxTaskCode, pcName, ( uint32_t ) usStackDepth, pvParameters, uxPriority, pxCreatedTask, pxNewTCB, NULL );
 8005fde:	88fa      	ldrh	r2, [r7, #6]
 8005fe0:	2300      	movs	r3, #0
 8005fe2:	9303      	str	r3, [sp, #12]
 8005fe4:	69fb      	ldr	r3, [r7, #28]
 8005fe6:	9302      	str	r3, [sp, #8]
 8005fe8:	6afb      	ldr	r3, [r7, #44]	@ 0x2c
 8005fea:	9301      	str	r3, [sp, #4]
 8005fec:	6abb      	ldr	r3, [r7, #40]	@ 0x28
 8005fee:	9300      	str	r3, [sp, #0]
 8005ff0:	683b      	ldr	r3, [r7, #0]
 8005ff2:	68b9      	ldr	r1, [r7, #8]
 8005ff4:	68f8      	ldr	r0, [r7, #12]
 8005ff6:	f000 f80f 	bl	8006018 <prvInitialiseNewTask>
			prvAddNewTaskToReadyList( pxNewTCB );
 8005ffa:	69f8      	ldr	r0, [r7, #28]
 8005ffc:	f000 f8b6 	bl	800616c <prvAddNewTaskToReadyList>
			xReturn = pdPASS;
 8006000:	2301      	movs	r3, #1
 8006002:	61bb      	str	r3, [r7, #24]
 8006004:	e002      	b.n	800600c <xTaskCreate+0x80>
		}
		else
		{
			xReturn = errCOULD_NOT_ALLOCATE_REQUIRED_MEMORY;
 8006006:	f04f 33ff 	mov.w	r3, #4294967295
 800600a:	61bb      	str	r3, [r7, #24]
		}

		return xReturn;
 800600c:	69bb      	ldr	r3, [r7, #24]
	}
 800600e:	4618      	mov	r0, r3
 8006010:	3720      	adds	r7, #32
 8006012:	46bd      	mov	sp, r7
 8006014:	bd80      	pop	{r7, pc}
	...

08006018 <prvInitialiseNewTask>:
									void * const pvParameters,
									UBaseType_t uxPriority,
									TaskHandle_t * const pxCreatedTask,
									TCB_t *pxNewTCB,
									const MemoryRegion_t * const xRegions )
{
 8006018:	b580      	push	{r7, lr}
 800601a:	b088      	sub	sp, #32
 800601c:	af00      	add	r7, sp, #0
 800601e:	60f8      	str	r0, [r7, #12]
 8006020:	60b9      	str	r1, [r7, #8]
 8006022:	607a      	str	r2, [r7, #4]
 8006024:	603b      	str	r3, [r7, #0]

	/* Avoid dependency on memset() if it is not required. */
	#if( tskSET_NEW_STACKS_TO_KNOWN_VALUE == 1 )
	{
		/* Fill the stack with a known value to assist debugging. */
		( void ) memset( pxNewTCB->pxStack, ( int ) tskSTACK_FILL_BYTE, ( size_t ) ulStackDepth * sizeof( StackType_t ) );
 8006026:	6b3b      	ldr	r3, [r7, #48]	@ 0x30
 8006028:	6b18      	ldr	r0, [r3, #48]	@ 0x30
 800602a:	687b      	ldr	r3, [r7, #4]
 800602c:	009b      	lsls	r3, r3, #2
 800602e:	461a      	mov	r2, r3
 8006030:	21a5      	movs	r1, #165	@ 0xa5
 8006032:	f001 fefb 	bl	8007e2c <memset>
	grows from high memory to low (as per the 80x86) or vice versa.
	portSTACK_GROWTH is used to make the result positive or negative as required
	by the port. */
	#if( portSTACK_GROWTH < 0 )
	{
		pxTopOfStack = &( pxNewTCB->pxStack[ ulStackDepth - ( uint32_t ) 1 ] );
 8006036:	6b3b      	ldr	r3, [r7, #48]	@ 0x30
 8006038:	6b1a      	ldr	r2, [r3, #48]	@ 0x30
 800603a:	6879      	ldr	r1, [r7, #4]
 800603c:	f06f 4340 	mvn.w	r3, #3221225472	@ 0xc0000000
 8006040:	440b      	add	r3, r1
 8006042:	009b      	lsls	r3, r3, #2
 8006044:	4413      	add	r3, r2
 8006046:	61bb      	str	r3, [r7, #24]
		pxTopOfStack = ( StackType_t * ) ( ( ( portPOINTER_SIZE_TYPE ) pxTopOfStack ) & ( ~( ( portPOINTER_SIZE_TYPE ) portBYTE_ALIGNMENT_MASK ) ) ); /*lint !e923 !e9033 !e9078 MISRA exception.  Avoiding casts between pointers and integers is not practical.  Size differences accounted for using portPOINTER_SIZE_TYPE type.  Checked by assert(). */
 8006048:	69bb      	ldr	r3, [r7, #24]
 800604a:	f023 0307 	bic.w	r3, r3, #7
 800604e:	61bb      	str	r3, [r7, #24]

		/* Check the alignment of the calculated top of stack is correct. */
		configASSERT( ( ( ( portPOINTER_SIZE_TYPE ) pxTopOfStack & ( portPOINTER_SIZE_TYPE ) portBYTE_ALIGNMENT_MASK ) == 0UL ) );
 8006050:	69bb      	ldr	r3, [r7, #24]
 8006052:	f003 0307 	and.w	r3, r3, #7
 8006056:	2b00      	cmp	r3, #0
 8006058:	d00d      	beq.n	8006076 <prvInitialiseNewTask+0x5e>
	__asm volatile
 800605a:	f04f 0350 	mov.w	r3, #80	@ 0x50
 800605e:	b672      	cpsid	i
 8006060:	f383 8811 	msr	BASEPRI, r3
 8006064:	f3bf 8f6f 	isb	sy
 8006068:	f3bf 8f4f 	dsb	sy
 800606c:	b662      	cpsie	i
 800606e:	617b      	str	r3, [r7, #20]
}
 8006070:	bf00      	nop
 8006072:	bf00      	nop
 8006074:	e7fd      	b.n	8006072 <prvInitialiseNewTask+0x5a>
		pxNewTCB->pxEndOfStack = pxNewTCB->pxStack + ( ulStackDepth - ( uint32_t ) 1 );
	}
	#endif /* portSTACK_GROWTH */

	/* Store the task name in the TCB. */
	if( pcName != NULL )
 8006076:	68bb      	ldr	r3, [r7, #8]
 8006078:	2b00      	cmp	r3, #0
 800607a:	d01f      	beq.n	80060bc <prvInitialiseNewTask+0xa4>
	{
		for( x = ( UBaseType_t ) 0; x < ( UBaseType_t ) configMAX_TASK_NAME_LEN; x++ )
 800607c:	2300      	movs	r3, #0
 800607e:	61fb      	str	r3, [r7, #28]
 8006080:	e012      	b.n	80060a8 <prvInitialiseNewTask+0x90>
		{
			pxNewTCB->pcTaskName[ x ] = pcName[ x ];
 8006082:	68ba      	ldr	r2, [r7, #8]
 8006084:	69fb      	ldr	r3, [r7, #28]
 8006086:	4413      	add	r3, r2
 8006088:	7819      	ldrb	r1, [r3, #0]
 800608a:	6b3a      	ldr	r2, [r7, #48]	@ 0x30
 800608c:	69fb      	ldr	r3, [r7, #28]
 800608e:	4413      	add	r3, r2
 8006090:	3334      	adds	r3, #52	@ 0x34
 8006092:	460a      	mov	r2, r1
 8006094:	701a      	strb	r2, [r3, #0]

			/* Don't copy all configMAX_TASK_NAME_LEN if the string is shorter than
			configMAX_TASK_NAME_LEN characters just in case the memory after the
			string is not accessible (extremely unlikely). */
			if( pcName[ x ] == ( char ) 0x00 )
 8006096:	68ba      	ldr	r2, [r7, #8]
 8006098:	69fb      	ldr	r3, [r7, #28]
 800609a:	4413      	add	r3, r2
 800609c:	781b      	ldrb	r3, [r3, #0]
 800609e:	2b00      	cmp	r3, #0
 80060a0:	d006      	beq.n	80060b0 <prvInitialiseNewTask+0x98>
		for( x = ( UBaseType_t ) 0; x < ( UBaseType_t ) configMAX_TASK_NAME_LEN; x++ )
 80060a2:	69fb      	ldr	r3, [r7, #28]
 80060a4:	3301      	adds	r3, #1
 80060a6:	61fb      	str	r3, [r7, #28]
 80060a8:	69fb      	ldr	r3, [r7, #28]
 80060aa:	2b0f      	cmp	r3, #15
 80060ac:	d9e9      	bls.n	8006082 <prvInitialiseNewTask+0x6a>
 80060ae:	e000      	b.n	80060b2 <prvInitialiseNewTask+0x9a>
			{
				break;
 80060b0:	bf00      	nop
			}
		}

		/* Ensure the name string is terminated in the case that the string length
		was greater or equal to configMAX_TASK_NAME_LEN. */
		pxNewTCB->pcTaskName[ configMAX_TASK_NAME_LEN - 1 ] = '\0';
 80060b2:	6b3b      	ldr	r3, [r7, #48]	@ 0x30
 80060b4:	2200      	movs	r2, #0
 80060b6:	f883 2043 	strb.w	r2, [r3, #67]	@ 0x43
 80060ba:	e003      	b.n	80060c4 <prvInitialiseNewTask+0xac>
	}
	else
	{
		/* The task has not been given a name, so just ensure there is a NULL
		terminator when it is read out. */
		pxNewTCB->pcTaskName[ 0 ] = 0x00;
 80060bc:	6b3b      	ldr	r3, [r7, #48]	@ 0x30
 80060be:	2200      	movs	r2, #0
 80060c0:	f883 2034 	strb.w	r2, [r3, #52]	@ 0x34
	}

	/* This is used as an array index so must ensure it's not too large.  First
	remove the privilege bit if one is present. */
	if( uxPriority >= ( UBaseType_t ) configMAX_PRIORITIES )
 80060c4:	6abb      	ldr	r3, [r7, #40]	@ 0x28
 80060c6:	2b37      	cmp	r3, #55	@ 0x37
 80060c8:	d901      	bls.n	80060ce <prvInitialiseNewTask+0xb6>
	{
		uxPriority = ( UBaseType_t ) configMAX_PRIORITIES - ( UBaseType_t ) 1U;
 80060ca:	2337      	movs	r3, #55	@ 0x37
 80060cc:	62bb      	str	r3, [r7, #40]	@ 0x28
	else
	{
		mtCOVERAGE_TEST_MARKER();
	}

	pxNewTCB->uxPriority = uxPriority;
 80060ce:	6b3b      	ldr	r3, [r7, #48]	@ 0x30
 80060d0:	6aba      	ldr	r2, [r7, #40]	@ 0x28
 80060d2:	62da      	str	r2, [r3, #44]	@ 0x2c
	#if ( configUSE_MUTEXES == 1 )
	{
		pxNewTCB->uxBasePriority = uxPriority;
 80060d4:	6b3b      	ldr	r3, [r7, #48]	@ 0x30
 80060d6:	6aba      	ldr	r2, [r7, #40]	@ 0x28
 80060d8:	64da      	str	r2, [r3, #76]	@ 0x4c
		pxNewTCB->uxMutexesHeld = 0;
 80060da:	6b3b      	ldr	r3, [r7, #48]	@ 0x30
 80060dc:	2200      	movs	r2, #0
 80060de:	651a      	str	r2, [r3, #80]	@ 0x50
	}
	#endif /* configUSE_MUTEXES */

	vListInitialiseItem( &( pxNewTCB->xStateListItem ) );
 80060e0:	6b3b      	ldr	r3, [r7, #48]	@ 0x30
 80060e2:	3304      	adds	r3, #4
 80060e4:	4618      	mov	r0, r3
 80060e6:	f7ff f8ad 	bl	8005244 <vListInitialiseItem>
	vListInitialiseItem( &( pxNewTCB->xEventListItem ) );
 80060ea:	6b3b      	ldr	r3, [r7, #48]	@ 0x30
 80060ec:	3318      	adds	r3, #24
 80060ee:	4618      	mov	r0, r3
 80060f0:	f7ff f8a8 	bl	8005244 <vListInitialiseItem>

	/* Set the pxNewTCB as a link back from the ListItem_t.  This is so we can get
	back to	the containing TCB from a generic item in a list. */
	listSET_LIST_ITEM_OWNER( &( pxNewTCB->xStateListItem ), pxNewTCB );
 80060f4:	6b3b      	ldr	r3, [r7, #48]	@ 0x30
 80060f6:	6b3a      	ldr	r2, [r7, #48]	@ 0x30
 80060f8:	611a      	str	r2, [r3, #16]

	/* Event lists are always in priority order. */
	listSET_LIST_ITEM_VALUE( &( pxNewTCB->xEventListItem ), ( TickType_t ) configMAX_PRIORITIES - ( TickType_t ) uxPriority ); /*lint !e961 MISRA exception as the casts are only redundant for some ports. */
 80060fa:	6abb      	ldr	r3, [r7, #40]	@ 0x28
 80060fc:	f1c3 0238 	rsb	r2, r3, #56	@ 0x38
 8006100:	6b3b      	ldr	r3, [r7, #48]	@ 0x30
 8006102:	619a      	str	r2, [r3, #24]
	listSET_LIST_ITEM_OWNER( &( pxNewTCB->xEventListItem ), pxNewTCB );
 8006104:	6b3b      	ldr	r3, [r7, #48]	@ 0x30
 8006106:	6b3a      	ldr	r2, [r7, #48]	@ 0x30
 8006108:	625a      	str	r2, [r3, #36]	@ 0x24
	}
	#endif

	#if ( configUSE_TASK_NOTIFICATIONS == 1 )
	{
		pxNewTCB->ulNotifiedValue = 0;
 800610a:	6b3b      	ldr	r3, [r7, #48]	@ 0x30
 800610c:	2200      	movs	r2, #0
 800610e:	f8c3 20a0 	str.w	r2, [r3, #160]	@ 0xa0
		pxNewTCB->ucNotifyState = taskNOT_WAITING_NOTIFICATION;
 8006112:	6b3b      	ldr	r3, [r7, #48]	@ 0x30
 8006114:	2200      	movs	r2, #0
 8006116:	f883 20a4 	strb.w	r2, [r3, #164]	@ 0xa4
	#endif

	#if ( configUSE_NEWLIB_REENTRANT == 1 )
	{
		/* Initialise this task's Newlib reent structure. */
		_REENT_INIT_PTR( ( &( pxNewTCB->xNewLib_reent ) ) );
 800611a:	6b3b      	ldr	r3, [r7, #48]	@ 0x30
 800611c:	3354      	adds	r3, #84	@ 0x54
 800611e:	224c      	movs	r2, #76	@ 0x4c
 8006120:	2100      	movs	r1, #0
 8006122:	4618      	mov	r0, r3
 8006124:	f001 fe82 	bl	8007e2c <memset>
 8006128:	6b3b      	ldr	r3, [r7, #48]	@ 0x30
 800612a:	4a0d      	ldr	r2, [pc, #52]	@ (8006160 <prvInitialiseNewTask+0x148>)
 800612c:	659a      	str	r2, [r3, #88]	@ 0x58
 800612e:	6b3b      	ldr	r3, [r7, #48]	@ 0x30
 8006130:	4a0c      	ldr	r2, [pc, #48]	@ (8006164 <prvInitialiseNewTask+0x14c>)
 8006132:	65da      	str	r2, [r3, #92]	@ 0x5c
 8006134:	6b3b      	ldr	r3, [r7, #48]	@ 0x30
 8006136:	4a0c      	ldr	r2, [pc, #48]	@ (8006168 <prvInitialiseNewTask+0x150>)
 8006138:	661a      	str	r2, [r3, #96]	@ 0x60
			}
			#endif /* portSTACK_GROWTH */
		}
		#else /* portHAS_STACK_OVERFLOW_CHECKING */
		{
			pxNewTCB->pxTopOfStack = pxPortInitialiseStack( pxTopOfStack, pxTaskCode, pvParameters );
 800613a:	683a      	ldr	r2, [r7, #0]
 800613c:	68f9      	ldr	r1, [r7, #12]
 800613e:	69b8      	ldr	r0, [r7, #24]
 8006140:	f001 fa4c 	bl	80075dc <pxPortInitialiseStack>
 8006144:	4602      	mov	r2, r0
 8006146:	6b3b      	ldr	r3, [r7, #48]	@ 0x30
 8006148:	601a      	str	r2, [r3, #0]
		}
		#endif /* portHAS_STACK_OVERFLOW_CHECKING */
	}
	#endif /* portUSING_MPU_WRAPPERS */

	if( pxCreatedTask != NULL )
 800614a:	6afb      	ldr	r3, [r7, #44]	@ 0x2c
 800614c:	2b00      	cmp	r3, #0
 800614e:	d002      	beq.n	8006156 <prvInitialiseNewTask+0x13e>
	{
		/* Pass the handle out in an anonymous way.  The handle can be used to
		change the created task's priority, delete the created task, etc.*/
		*pxCreatedTask = ( TaskHandle_t ) pxNewTCB;
 8006150:	6afb      	ldr	r3, [r7, #44]	@ 0x2c
 8006152:	6b3a      	ldr	r2, [r7, #48]	@ 0x30
 8006154:	601a      	str	r2, [r3, #0]
	}
	else
	{
		mtCOVERAGE_TEST_MARKER();
	}
}
 8006156:	bf00      	nop
 8006158:	3720      	adds	r7, #32
 800615a:	46bd      	mov	sp, r7
 800615c:	bd80      	pop	{r7, pc}
 800615e:	bf00      	nop
 8006160:	20004bc4 	.word	0x20004bc4
 8006164:	20004c2c 	.word	0x20004c2c
 8006168:	20004c94 	.word	0x20004c94

0800616c <prvAddNewTaskToReadyList>:
/*-----------------------------------------------------------*/

static void prvAddNewTaskToReadyList( TCB_t *pxNewTCB )
{
 800616c:	b580      	push	{r7, lr}
 800616e:	b082      	sub	sp, #8
 8006170:	af00      	add	r7, sp, #0
 8006172:	6078      	str	r0, [r7, #4]
	/* Ensure interrupts don't access the task lists while the lists are being
	updated. */
	taskENTER_CRITICAL();
 8006174:	f001 fb42 	bl	80077fc <vPortEnterCritical>
	{
		uxCurrentNumberOfTasks++;
 8006178:	4b2d      	ldr	r3, [pc, #180]	@ (8006230 <prvAddNewTaskToReadyList+0xc4>)
 800617a:	681b      	ldr	r3, [r3, #0]
 800617c:	3301      	adds	r3, #1
 800617e:	4a2c      	ldr	r2, [pc, #176]	@ (8006230 <prvAddNewTaskToReadyList+0xc4>)
 8006180:	6013      	str	r3, [r2, #0]
		if( pxCurrentTCB == NULL )
 8006182:	4b2c      	ldr	r3, [pc, #176]	@ (8006234 <prvAddNewTaskToReadyList+0xc8>)
 8006184:	681b      	ldr	r3, [r3, #0]
 8006186:	2b00      	cmp	r3, #0
 8006188:	d109      	bne.n	800619e <prvAddNewTaskToReadyList+0x32>
		{
			/* There are no other tasks, or all the other tasks are in
			the suspended state - make this the current task. */
			pxCurrentTCB = pxNewTCB;
 800618a:	4a2a      	ldr	r2, [pc, #168]	@ (8006234 <prvAddNewTaskToReadyList+0xc8>)
 800618c:	687b      	ldr	r3, [r7, #4]
 800618e:	6013      	str	r3, [r2, #0]

			if( uxCurrentNumberOfTasks == ( UBaseType_t ) 1 )
 8006190:	4b27      	ldr	r3, [pc, #156]	@ (8006230 <prvAddNewTaskToReadyList+0xc4>)
 8006192:	681b      	ldr	r3, [r3, #0]
 8006194:	2b01      	cmp	r3, #1
 8006196:	d110      	bne.n	80061ba <prvAddNewTaskToReadyList+0x4e>
			{
				/* This is the first task to be created so do the preliminary
				initialisation required.  We will not recover if this call
				fails, but we will report the failure. */
				prvInitialiseTaskLists();
 8006198:	f000 fc44 	bl	8006a24 <prvInitialiseTaskLists>
 800619c:	e00d      	b.n	80061ba <prvAddNewTaskToReadyList+0x4e>
		else
		{
			/* If the scheduler is not already running, make this task the
			current task if it is the highest priority task to be created
			so far. */
			if( xSchedulerRunning == pdFALSE )
 800619e:	4b26      	ldr	r3, [pc, #152]	@ (8006238 <prvAddNewTaskToReadyList+0xcc>)
 80061a0:	681b      	ldr	r3, [r3, #0]
 80061a2:	2b00      	cmp	r3, #0
 80061a4:	d109      	bne.n	80061ba <prvAddNewTaskToReadyList+0x4e>
			{
				if( pxCurrentTCB->uxPriority <= pxNewTCB->uxPriority )
 80061a6:	4b23      	ldr	r3, [pc, #140]	@ (8006234 <prvAddNewTaskToReadyList+0xc8>)
 80061a8:	681b      	ldr	r3, [r3, #0]
 80061aa:	6ada      	ldr	r2, [r3, #44]	@ 0x2c
 80061ac:	687b      	ldr	r3, [r7, #4]
 80061ae:	6adb      	ldr	r3, [r3, #44]	@ 0x2c
 80061b0:	429a      	cmp	r2, r3
 80061b2:	d802      	bhi.n	80061ba <prvAddNewTaskToReadyList+0x4e>
				{
					pxCurrentTCB = pxNewTCB;
 80061b4:	4a1f      	ldr	r2, [pc, #124]	@ (8006234 <prvAddNewTaskToReadyList+0xc8>)
 80061b6:	687b      	ldr	r3, [r7, #4]
 80061b8:	6013      	str	r3, [r2, #0]
			{
				mtCOVERAGE_TEST_MARKER();
			}
		}

		uxTaskNumber++;
 80061ba:	4b20      	ldr	r3, [pc, #128]	@ (800623c <prvAddNewTaskToReadyList+0xd0>)
 80061bc:	681b      	ldr	r3, [r3, #0]
 80061be:	3301      	adds	r3, #1
 80061c0:	4a1e      	ldr	r2, [pc, #120]	@ (800623c <prvAddNewTaskToReadyList+0xd0>)
 80061c2:	6013      	str	r3, [r2, #0]

		#if ( configUSE_TRACE_FACILITY == 1 )
		{
			/* Add a counter into the TCB for tracing only. */
			pxNewTCB->uxTCBNumber = uxTaskNumber;
 80061c4:	4b1d      	ldr	r3, [pc, #116]	@ (800623c <prvAddNewTaskToReadyList+0xd0>)
 80061c6:	681a      	ldr	r2, [r3, #0]
 80061c8:	687b      	ldr	r3, [r7, #4]
 80061ca:	645a      	str	r2, [r3, #68]	@ 0x44
		}
		#endif /* configUSE_TRACE_FACILITY */
		traceTASK_CREATE( pxNewTCB );

		prvAddTaskToReadyList( pxNewTCB );
 80061cc:	687b      	ldr	r3, [r7, #4]
 80061ce:	6ada      	ldr	r2, [r3, #44]	@ 0x2c
 80061d0:	4b1b      	ldr	r3, [pc, #108]	@ (8006240 <prvAddNewTaskToReadyList+0xd4>)
 80061d2:	681b      	ldr	r3, [r3, #0]
 80061d4:	429a      	cmp	r2, r3
 80061d6:	d903      	bls.n	80061e0 <prvAddNewTaskToReadyList+0x74>
 80061d8:	687b      	ldr	r3, [r7, #4]
 80061da:	6adb      	ldr	r3, [r3, #44]	@ 0x2c
 80061dc:	4a18      	ldr	r2, [pc, #96]	@ (8006240 <prvAddNewTaskToReadyList+0xd4>)
 80061de:	6013      	str	r3, [r2, #0]
 80061e0:	687b      	ldr	r3, [r7, #4]
 80061e2:	6ada      	ldr	r2, [r3, #44]	@ 0x2c
 80061e4:	4613      	mov	r3, r2
 80061e6:	009b      	lsls	r3, r3, #2
 80061e8:	4413      	add	r3, r2
 80061ea:	009b      	lsls	r3, r3, #2
 80061ec:	4a15      	ldr	r2, [pc, #84]	@ (8006244 <prvAddNewTaskToReadyList+0xd8>)
 80061ee:	441a      	add	r2, r3
 80061f0:	687b      	ldr	r3, [r7, #4]
 80061f2:	3304      	adds	r3, #4
 80061f4:	4619      	mov	r1, r3
 80061f6:	4610      	mov	r0, r2
 80061f8:	f7ff f831 	bl	800525e <vListInsertEnd>

		portSETUP_TCB( pxNewTCB );
	}
	taskEXIT_CRITICAL();
 80061fc:	f001 fb34 	bl	8007868 <vPortExitCritical>

	if( xSchedulerRunning != pdFALSE )
 8006200:	4b0d      	ldr	r3, [pc, #52]	@ (8006238 <prvAddNewTaskToReadyList+0xcc>)
 8006202:	681b      	ldr	r3, [r3, #0]
 8006204:	2b00      	cmp	r3, #0
 8006206:	d00e      	beq.n	8006226 <prvAddNewTaskToReadyList+0xba>
	{
		/* If the created task is of a higher priority than the current task
		then it should run now. */
		if( pxCurrentTCB->uxPriority < pxNewTCB->uxPriority )
 8006208:	4b0a      	ldr	r3, [pc, #40]	@ (8006234 <prvAddNewTaskToReadyList+0xc8>)
 800620a:	681b      	ldr	r3, [r3, #0]
 800620c:	6ada      	ldr	r2, [r3, #44]	@ 0x2c
 800620e:	687b      	ldr	r3, [r7, #4]
 8006210:	6adb      	ldr	r3, [r3, #44]	@ 0x2c
 8006212:	429a      	cmp	r2, r3
 8006214:	d207      	bcs.n	8006226 <prvAddNewTaskToReadyList+0xba>
		{
			taskYIELD_IF_USING_PREEMPTION();
 8006216:	4b0c      	ldr	r3, [pc, #48]	@ (8006248 <prvAddNewTaskToReadyList+0xdc>)
 8006218:	f04f 5280 	mov.w	r2, #268435456	@ 0x10000000
 800621c:	601a      	str	r2, [r3, #0]
 800621e:	f3bf 8f4f 	dsb	sy
 8006222:	f3bf 8f6f 	isb	sy
	}
	else
	{
		mtCOVERAGE_TEST_MARKER();
	}
}
 8006226:	bf00      	nop
 8006228:	3708      	adds	r7, #8
 800622a:	46bd      	mov	sp, r7
 800622c:	bd80      	pop	{r7, pc}
 800622e:	bf00      	nop
 8006230:	20000e4c 	.word	0x20000e4c
 8006234:	20000978 	.word	0x20000978
 8006238:	20000e58 	.word	0x20000e58
 800623c:	20000e68 	.word	0x20000e68
 8006240:	20000e54 	.word	0x20000e54
 8006244:	2000097c 	.word	0x2000097c
 8006248:	e000ed04 	.word	0xe000ed04

0800624c <vTaskDelay>:
/*-----------------------------------------------------------*/

#if ( INCLUDE_vTaskDelay == 1 )

	void vTaskDelay( const TickType_t xTicksToDelay )
	{
 800624c:	b580      	push	{r7, lr}
 800624e:	b084      	sub	sp, #16
 8006250:	af00      	add	r7, sp, #0
 8006252:	6078      	str	r0, [r7, #4]
	BaseType_t xAlreadyYielded = pdFALSE;
 8006254:	2300      	movs	r3, #0
 8006256:	60fb      	str	r3, [r7, #12]

		/* A delay time of zero just forces a reschedule. */
		if( xTicksToDelay > ( TickType_t ) 0U )
 8006258:	687b      	ldr	r3, [r7, #4]
 800625a:	2b00      	cmp	r3, #0
 800625c:	d01a      	beq.n	8006294 <vTaskDelay+0x48>
		{
			configASSERT( uxSchedulerSuspended == 0 );
 800625e:	4b15      	ldr	r3, [pc, #84]	@ (80062b4 <vTaskDelay+0x68>)
 8006260:	681b      	ldr	r3, [r3, #0]
 8006262:	2b00      	cmp	r3, #0
 8006264:	d00d      	beq.n	8006282 <vTaskDelay+0x36>
	__asm volatile
 8006266:	f04f 0350 	mov.w	r3, #80	@ 0x50
 800626a:	b672      	cpsid	i
 800626c:	f383 8811 	msr	BASEPRI, r3
 8006270:	f3bf 8f6f 	isb	sy
 8006274:	f3bf 8f4f 	dsb	sy
 8006278:	b662      	cpsie	i
 800627a:	60bb      	str	r3, [r7, #8]
}
 800627c:	bf00      	nop
 800627e:	bf00      	nop
 8006280:	e7fd      	b.n	800627e <vTaskDelay+0x32>
			vTaskSuspendAll();
 8006282:	f000 f88f 	bl	80063a4 <vTaskSuspendAll>
				list or removed from the blocked list until the scheduler
				is resumed.

				This task cannot be in an event list as it is the currently
				executing task. */
				prvAddCurrentTaskToDelayedList( xTicksToDelay, pdFALSE );
 8006286:	2100      	movs	r1, #0
 8006288:	6878      	ldr	r0, [r7, #4]
 800628a:	f000 fd23 	bl	8006cd4 <prvAddCurrentTaskToDelayedList>
			}
			xAlreadyYielded = xTaskResumeAll();
 800628e:	f000 f897 	bl	80063c0 <xTaskResumeAll>
 8006292:	60f8      	str	r0, [r7, #12]
			mtCOVERAGE_TEST_MARKER();
		}

		/* Force a reschedule if xTaskResumeAll has not already done so, we may
		have put ourselves to sleep. */
		if( xAlreadyYielded == pdFALSE )
 8006294:	68fb      	ldr	r3, [r7, #12]
 8006296:	2b00      	cmp	r3, #0
 8006298:	d107      	bne.n	80062aa <vTaskDelay+0x5e>
		{
			portYIELD_WITHIN_API();
 800629a:	4b07      	ldr	r3, [pc, #28]	@ (80062b8 <vTaskDelay+0x6c>)
 800629c:	f04f 5280 	mov.w	r2, #268435456	@ 0x10000000
 80062a0:	601a      	str	r2, [r3, #0]
 80062a2:	f3bf 8f4f 	dsb	sy
 80062a6:	f3bf 8f6f 	isb	sy
		}
		else
		{
			mtCOVERAGE_TEST_MARKER();
		}
	}
 80062aa:	bf00      	nop
 80062ac:	3710      	adds	r7, #16
 80062ae:	46bd      	mov	sp, r7
 80062b0:	bd80      	pop	{r7, pc}
 80062b2:	bf00      	nop
 80062b4:	20000e74 	.word	0x20000e74
 80062b8:	e000ed04 	.word	0xe000ed04

080062bc <vTaskStartScheduler>:

#endif /* ( ( INCLUDE_xTaskResumeFromISR == 1 ) && ( INCLUDE_vTaskSuspend == 1 ) ) */
/*-----------------------------------------------------------*/

void vTaskStartScheduler( void )
{
 80062bc:	b580      	push	{r7, lr}
 80062be:	b08a      	sub	sp, #40	@ 0x28
 80062c0:	af04      	add	r7, sp, #16
BaseType_t xReturn;

	/* Add the idle task at the lowest priority. */
	#if( configSUPPORT_STATIC_ALLOCATION == 1 )
	{
		StaticTask_t *pxIdleTaskTCBBuffer = NULL;
 80062c2:	2300      	movs	r3, #0
 80062c4:	60bb      	str	r3, [r7, #8]
		StackType_t *pxIdleTaskStackBuffer = NULL;
 80062c6:	2300      	movs	r3, #0
 80062c8:	607b      	str	r3, [r7, #4]
		uint32_t ulIdleTaskStackSize;

		/* The Idle task is created using user provided RAM - obtain the
		address of the RAM then create the idle task. */
		vApplicationGetIdleTaskMemory( &pxIdleTaskTCBBuffer, &pxIdleTaskStackBuffer, &ulIdleTaskStackSize );
 80062ca:	463a      	mov	r2, r7
 80062cc:	1d39      	adds	r1, r7, #4
 80062ce:	f107 0308 	add.w	r3, r7, #8
 80062d2:	4618      	mov	r0, r3
 80062d4:	f7fe ff62 	bl	800519c <vApplicationGetIdleTaskMemory>
		xIdleTaskHandle = xTaskCreateStatic(	prvIdleTask,
 80062d8:	6839      	ldr	r1, [r7, #0]
 80062da:	687b      	ldr	r3, [r7, #4]
 80062dc:	68ba      	ldr	r2, [r7, #8]
 80062de:	9202      	str	r2, [sp, #8]
 80062e0:	9301      	str	r3, [sp, #4]
 80062e2:	2300      	movs	r3, #0
 80062e4:	9300      	str	r3, [sp, #0]
 80062e6:	2300      	movs	r3, #0
 80062e8:	460a      	mov	r2, r1
 80062ea:	4926      	ldr	r1, [pc, #152]	@ (8006384 <vTaskStartScheduler+0xc8>)
 80062ec:	4826      	ldr	r0, [pc, #152]	@ (8006388 <vTaskStartScheduler+0xcc>)
 80062ee:	f7ff fde7 	bl	8005ec0 <xTaskCreateStatic>
 80062f2:	4603      	mov	r3, r0
 80062f4:	4a25      	ldr	r2, [pc, #148]	@ (800638c <vTaskStartScheduler+0xd0>)
 80062f6:	6013      	str	r3, [r2, #0]
												( void * ) NULL, /*lint !e961.  The cast is not redundant for all compilers. */
												portPRIVILEGE_BIT, /* In effect ( tskIDLE_PRIORITY | portPRIVILEGE_BIT ), but tskIDLE_PRIORITY is zero. */
												pxIdleTaskStackBuffer,
												pxIdleTaskTCBBuffer ); /*lint !e961 MISRA exception, justified as it is not a redundant explicit cast to all supported compilers. */

		if( xIdleTaskHandle != NULL )
 80062f8:	4b24      	ldr	r3, [pc, #144]	@ (800638c <vTaskStartScheduler+0xd0>)
 80062fa:	681b      	ldr	r3, [r3, #0]
 80062fc:	2b00      	cmp	r3, #0
 80062fe:	d002      	beq.n	8006306 <vTaskStartScheduler+0x4a>
		{
			xReturn = pdPASS;
 8006300:	2301      	movs	r3, #1
 8006302:	617b      	str	r3, [r7, #20]
 8006304:	e001      	b.n	800630a <vTaskStartScheduler+0x4e>
		}
		else
		{
			xReturn = pdFAIL;
 8006306:	2300      	movs	r3, #0
 8006308:	617b      	str	r3, [r7, #20]
	}
	#endif /* configSUPPORT_STATIC_ALLOCATION */

	#if ( configUSE_TIMERS == 1 )
	{
		if( xReturn == pdPASS )
 800630a:	697b      	ldr	r3, [r7, #20]
 800630c:	2b01      	cmp	r3, #1
 800630e:	d102      	bne.n	8006316 <vTaskStartScheduler+0x5a>
		{
			xReturn = xTimerCreateTimerTask();
 8006310:	f000 fd34 	bl	8006d7c <xTimerCreateTimerTask>
 8006314:	6178      	str	r0, [r7, #20]
			mtCOVERAGE_TEST_MARKER();
		}
	}
	#endif /* configUSE_TIMERS */

	if( xReturn == pdPASS )
 8006316:	697b      	ldr	r3, [r7, #20]
 8006318:	2b01      	cmp	r3, #1
 800631a:	d11d      	bne.n	8006358 <vTaskStartScheduler+0x9c>
	__asm volatile
 800631c:	f04f 0350 	mov.w	r3, #80	@ 0x50
 8006320:	b672      	cpsid	i
 8006322:	f383 8811 	msr	BASEPRI, r3
 8006326:	f3bf 8f6f 	isb	sy
 800632a:	f3bf 8f4f 	dsb	sy
 800632e:	b662      	cpsie	i
 8006330:	613b      	str	r3, [r7, #16]
}
 8006332:	bf00      	nop

		#if ( configUSE_NEWLIB_REENTRANT == 1 )
		{
			/* Switch Newlib's _impure_ptr variable to point to the _reent
			structure specific to the task that will run first. */
			_impure_ptr = &( pxCurrentTCB->xNewLib_reent );
 8006334:	4b16      	ldr	r3, [pc, #88]	@ (8006390 <vTaskStartScheduler+0xd4>)
 8006336:	681b      	ldr	r3, [r3, #0]
 8006338:	3354      	adds	r3, #84	@ 0x54
 800633a:	4a16      	ldr	r2, [pc, #88]	@ (8006394 <vTaskStartScheduler+0xd8>)
 800633c:	6013      	str	r3, [r2, #0]
		}
		#endif /* configUSE_NEWLIB_REENTRANT */

		xNextTaskUnblockTime = portMAX_DELAY;
 800633e:	4b16      	ldr	r3, [pc, #88]	@ (8006398 <vTaskStartScheduler+0xdc>)
 8006340:	f04f 32ff 	mov.w	r2, #4294967295
 8006344:	601a      	str	r2, [r3, #0]
		xSchedulerRunning = pdTRUE;
 8006346:	4b15      	ldr	r3, [pc, #84]	@ (800639c <vTaskStartScheduler+0xe0>)
 8006348:	2201      	movs	r2, #1
 800634a:	601a      	str	r2, [r3, #0]
		xTickCount = ( TickType_t ) configINITIAL_TICK_COUNT;
 800634c:	4b14      	ldr	r3, [pc, #80]	@ (80063a0 <vTaskStartScheduler+0xe4>)
 800634e:	2200      	movs	r2, #0
 8006350:	601a      	str	r2, [r3, #0]

		traceTASK_SWITCHED_IN();

		/* Setting up the timer tick is hardware specific and thus in the
		portable interface. */
		if( xPortStartScheduler() != pdFALSE )
 8006352:	f001 f9d5 	bl	8007700 <xPortStartScheduler>
	}

	/* Prevent compiler warnings if INCLUDE_xTaskGetIdleTaskHandle is set to 0,
	meaning xIdleTaskHandle is not used anywhere else. */
	( void ) xIdleTaskHandle;
}
 8006356:	e011      	b.n	800637c <vTaskStartScheduler+0xc0>
		configASSERT( xReturn != errCOULD_NOT_ALLOCATE_REQUIRED_MEMORY );
 8006358:	697b      	ldr	r3, [r7, #20]
 800635a:	f1b3 3fff 	cmp.w	r3, #4294967295
 800635e:	d10d      	bne.n	800637c <vTaskStartScheduler+0xc0>
	__asm volatile
 8006360:	f04f 0350 	mov.w	r3, #80	@ 0x50
 8006364:	b672      	cpsid	i
 8006366:	f383 8811 	msr	BASEPRI, r3
 800636a:	f3bf 8f6f 	isb	sy
 800636e:	f3bf 8f4f 	dsb	sy
 8006372:	b662      	cpsie	i
 8006374:	60fb      	str	r3, [r7, #12]
}
 8006376:	bf00      	nop
 8006378:	bf00      	nop
 800637a:	e7fd      	b.n	8006378 <vTaskStartScheduler+0xbc>
}
 800637c:	bf00      	nop
 800637e:	3718      	adds	r7, #24
 8006380:	46bd      	mov	sp, r7
 8006382:	bd80      	pop	{r7, pc}
 8006384:	080080a0 	.word	0x080080a0
 8006388:	080069f5 	.word	0x080069f5
 800638c:	20000e70 	.word	0x20000e70
 8006390:	20000978 	.word	0x20000978
 8006394:	20000010 	.word	0x20000010
 8006398:	20000e6c 	.word	0x20000e6c
 800639c:	20000e58 	.word	0x20000e58
 80063a0:	20000e50 	.word	0x20000e50

080063a4 <vTaskSuspendAll>:
	vPortEndScheduler();
}
/*----------------------------------------------------------*/

void vTaskSuspendAll( void )
{
 80063a4:	b480      	push	{r7}
 80063a6:	af00      	add	r7, sp, #0
	/* A critical section is not required as the variable is of type
	BaseType_t.  Please read Richard Barry's reply in the following link to a
	post in the FreeRTOS support forum before reporting this as a bug! -
	http://goo.gl/wu4acr */
	++uxSchedulerSuspended;
 80063a8:	4b04      	ldr	r3, [pc, #16]	@ (80063bc <vTaskSuspendAll+0x18>)
 80063aa:	681b      	ldr	r3, [r3, #0]
 80063ac:	3301      	adds	r3, #1
 80063ae:	4a03      	ldr	r2, [pc, #12]	@ (80063bc <vTaskSuspendAll+0x18>)
 80063b0:	6013      	str	r3, [r2, #0]
	portMEMORY_BARRIER();
}
 80063b2:	bf00      	nop
 80063b4:	46bd      	mov	sp, r7
 80063b6:	f85d 7b04 	ldr.w	r7, [sp], #4
 80063ba:	4770      	bx	lr
 80063bc:	20000e74 	.word	0x20000e74

080063c0 <xTaskResumeAll>:

#endif /* configUSE_TICKLESS_IDLE */
/*----------------------------------------------------------*/

BaseType_t xTaskResumeAll( void )
{
 80063c0:	b580      	push	{r7, lr}
 80063c2:	b084      	sub	sp, #16
 80063c4:	af00      	add	r7, sp, #0
TCB_t *pxTCB = NULL;
 80063c6:	2300      	movs	r3, #0
 80063c8:	60fb      	str	r3, [r7, #12]
BaseType_t xAlreadyYielded = pdFALSE;
 80063ca:	2300      	movs	r3, #0
 80063cc:	60bb      	str	r3, [r7, #8]

	/* If uxSchedulerSuspended is zero then this function does not match a
	previous call to vTaskSuspendAll(). */
	configASSERT( uxSchedulerSuspended );
 80063ce:	4b43      	ldr	r3, [pc, #268]	@ (80064dc <xTaskResumeAll+0x11c>)
 80063d0:	681b      	ldr	r3, [r3, #0]
 80063d2:	2b00      	cmp	r3, #0
 80063d4:	d10d      	bne.n	80063f2 <xTaskResumeAll+0x32>
	__asm volatile
 80063d6:	f04f 0350 	mov.w	r3, #80	@ 0x50
 80063da:	b672      	cpsid	i
 80063dc:	f383 8811 	msr	BASEPRI, r3
 80063e0:	f3bf 8f6f 	isb	sy
 80063e4:	f3bf 8f4f 	dsb	sy
 80063e8:	b662      	cpsie	i
 80063ea:	603b      	str	r3, [r7, #0]
}
 80063ec:	bf00      	nop
 80063ee:	bf00      	nop
 80063f0:	e7fd      	b.n	80063ee <xTaskResumeAll+0x2e>
	/* It is possible that an ISR caused a task to be removed from an event
	list while the scheduler was suspended.  If this was the case then the
	removed task will have been added to the xPendingReadyList.  Once the
	scheduler has been resumed it is safe to move all the pending ready
	tasks from this list into their appropriate ready list. */
	taskENTER_CRITICAL();
 80063f2:	f001 fa03 	bl	80077fc <vPortEnterCritical>
	{
		--uxSchedulerSuspended;
 80063f6:	4b39      	ldr	r3, [pc, #228]	@ (80064dc <xTaskResumeAll+0x11c>)
 80063f8:	681b      	ldr	r3, [r3, #0]
 80063fa:	3b01      	subs	r3, #1
 80063fc:	4a37      	ldr	r2, [pc, #220]	@ (80064dc <xTaskResumeAll+0x11c>)
 80063fe:	6013      	str	r3, [r2, #0]

		if( uxSchedulerSuspended == ( UBaseType_t ) pdFALSE )
 8006400:	4b36      	ldr	r3, [pc, #216]	@ (80064dc <xTaskResumeAll+0x11c>)
 8006402:	681b      	ldr	r3, [r3, #0]
 8006404:	2b00      	cmp	r3, #0
 8006406:	d162      	bne.n	80064ce <xTaskResumeAll+0x10e>
		{
			if( uxCurrentNumberOfTasks > ( UBaseType_t ) 0U )
 8006408:	4b35      	ldr	r3, [pc, #212]	@ (80064e0 <xTaskResumeAll+0x120>)
 800640a:	681b      	ldr	r3, [r3, #0]
 800640c:	2b00      	cmp	r3, #0
 800640e:	d05e      	beq.n	80064ce <xTaskResumeAll+0x10e>
			{
				/* Move any readied tasks from the pending list into the
				appropriate ready list. */
				while( listLIST_IS_EMPTY( &xPendingReadyList ) == pdFALSE )
 8006410:	e02f      	b.n	8006472 <xTaskResumeAll+0xb2>
				{
					pxTCB = listGET_OWNER_OF_HEAD_ENTRY( ( &xPendingReadyList ) ); /*lint !e9079 void * is used as this macro is used with timers and co-routines too.  Alignment is known to be fine as the type of the pointer stored and retrieved is the same. */
 8006412:	4b34      	ldr	r3, [pc, #208]	@ (80064e4 <xTaskResumeAll+0x124>)
 8006414:	68db      	ldr	r3, [r3, #12]
 8006416:	68db      	ldr	r3, [r3, #12]
 8006418:	60fb      	str	r3, [r7, #12]
					( void ) uxListRemove( &( pxTCB->xEventListItem ) );
 800641a:	68fb      	ldr	r3, [r7, #12]
 800641c:	3318      	adds	r3, #24
 800641e:	4618      	mov	r0, r3
 8006420:	f7fe ff7a 	bl	8005318 <uxListRemove>
					( void ) uxListRemove( &( pxTCB->xStateListItem ) );
 8006424:	68fb      	ldr	r3, [r7, #12]
 8006426:	3304      	adds	r3, #4
 8006428:	4618      	mov	r0, r3
 800642a:	f7fe ff75 	bl	8005318 <uxListRemove>
					prvAddTaskToReadyList( pxTCB );
 800642e:	68fb      	ldr	r3, [r7, #12]
 8006430:	6ada      	ldr	r2, [r3, #44]	@ 0x2c
 8006432:	4b2d      	ldr	r3, [pc, #180]	@ (80064e8 <xTaskResumeAll+0x128>)
 8006434:	681b      	ldr	r3, [r3, #0]
 8006436:	429a      	cmp	r2, r3
 8006438:	d903      	bls.n	8006442 <xTaskResumeAll+0x82>
 800643a:	68fb      	ldr	r3, [r7, #12]
 800643c:	6adb      	ldr	r3, [r3, #44]	@ 0x2c
 800643e:	4a2a      	ldr	r2, [pc, #168]	@ (80064e8 <xTaskResumeAll+0x128>)
 8006440:	6013      	str	r3, [r2, #0]
 8006442:	68fb      	ldr	r3, [r7, #12]
 8006444:	6ada      	ldr	r2, [r3, #44]	@ 0x2c
 8006446:	4613      	mov	r3, r2
 8006448:	009b      	lsls	r3, r3, #2
 800644a:	4413      	add	r3, r2
 800644c:	009b      	lsls	r3, r3, #2
 800644e:	4a27      	ldr	r2, [pc, #156]	@ (80064ec <xTaskResumeAll+0x12c>)
 8006450:	441a      	add	r2, r3
 8006452:	68fb      	ldr	r3, [r7, #12]
 8006454:	3304      	adds	r3, #4
 8006456:	4619      	mov	r1, r3
 8006458:	4610      	mov	r0, r2
 800645a:	f7fe ff00 	bl	800525e <vListInsertEnd>

					/* If the moved task has a priority higher than the current
					task then a yield must be performed. */
					if( pxTCB->uxPriority >= pxCurrentTCB->uxPriority )
 800645e:	68fb      	ldr	r3, [r7, #12]
 8006460:	6ada      	ldr	r2, [r3, #44]	@ 0x2c
 8006462:	4b23      	ldr	r3, [pc, #140]	@ (80064f0 <xTaskResumeAll+0x130>)
 8006464:	681b      	ldr	r3, [r3, #0]
 8006466:	6adb      	ldr	r3, [r3, #44]	@ 0x2c
 8006468:	429a      	cmp	r2, r3
 800646a:	d302      	bcc.n	8006472 <xTaskResumeAll+0xb2>
					{
						xYieldPending = pdTRUE;
 800646c:	4b21      	ldr	r3, [pc, #132]	@ (80064f4 <xTaskResumeAll+0x134>)
 800646e:	2201      	movs	r2, #1
 8006470:	601a      	str	r2, [r3, #0]
				while( listLIST_IS_EMPTY( &xPendingReadyList ) == pdFALSE )
 8006472:	4b1c      	ldr	r3, [pc, #112]	@ (80064e4 <xTaskResumeAll+0x124>)
 8006474:	681b      	ldr	r3, [r3, #0]
 8006476:	2b00      	cmp	r3, #0
 8006478:	d1cb      	bne.n	8006412 <xTaskResumeAll+0x52>
					{
						mtCOVERAGE_TEST_MARKER();
					}
				}

				if( pxTCB != NULL )
 800647a:	68fb      	ldr	r3, [r7, #12]
 800647c:	2b00      	cmp	r3, #0
 800647e:	d001      	beq.n	8006484 <xTaskResumeAll+0xc4>
					which may have prevented the next unblock time from being
					re-calculated, in which case re-calculate it now.  Mainly
					important for low power tickless implementations, where
					this can prevent an unnecessary exit from low power
					state. */
					prvResetNextTaskUnblockTime();
 8006480:	f000 fb76 	bl	8006b70 <prvResetNextTaskUnblockTime>
				/* If any ticks occurred while the scheduler was suspended then
				they should be processed now.  This ensures the tick count does
				not	slip, and that any delayed tasks are resumed at the correct
				time. */
				{
					UBaseType_t uxPendedCounts = uxPendedTicks; /* Non-volatile copy. */
 8006484:	4b1c      	ldr	r3, [pc, #112]	@ (80064f8 <xTaskResumeAll+0x138>)
 8006486:	681b      	ldr	r3, [r3, #0]
 8006488:	607b      	str	r3, [r7, #4]

					if( uxPendedCounts > ( UBaseType_t ) 0U )
 800648a:	687b      	ldr	r3, [r7, #4]
 800648c:	2b00      	cmp	r3, #0
 800648e:	d010      	beq.n	80064b2 <xTaskResumeAll+0xf2>
					{
						do
						{
							if( xTaskIncrementTick() != pdFALSE )
 8006490:	f000 f846 	bl	8006520 <xTaskIncrementTick>
 8006494:	4603      	mov	r3, r0
 8006496:	2b00      	cmp	r3, #0
 8006498:	d002      	beq.n	80064a0 <xTaskResumeAll+0xe0>
							{
								xYieldPending = pdTRUE;
 800649a:	4b16      	ldr	r3, [pc, #88]	@ (80064f4 <xTaskResumeAll+0x134>)
 800649c:	2201      	movs	r2, #1
 800649e:	601a      	str	r2, [r3, #0]
							}
							else
							{
								mtCOVERAGE_TEST_MARKER();
							}
							--uxPendedCounts;
 80064a0:	687b      	ldr	r3, [r7, #4]
 80064a2:	3b01      	subs	r3, #1
 80064a4:	607b      	str	r3, [r7, #4]
						} while( uxPendedCounts > ( UBaseType_t ) 0U );
 80064a6:	687b      	ldr	r3, [r7, #4]
 80064a8:	2b00      	cmp	r3, #0
 80064aa:	d1f1      	bne.n	8006490 <xTaskResumeAll+0xd0>

						uxPendedTicks = 0;
 80064ac:	4b12      	ldr	r3, [pc, #72]	@ (80064f8 <xTaskResumeAll+0x138>)
 80064ae:	2200      	movs	r2, #0
 80064b0:	601a      	str	r2, [r3, #0]
					{
						mtCOVERAGE_TEST_MARKER();
					}
				}

				if( xYieldPending != pdFALSE )
 80064b2:	4b10      	ldr	r3, [pc, #64]	@ (80064f4 <xTaskResumeAll+0x134>)
 80064b4:	681b      	ldr	r3, [r3, #0]
 80064b6:	2b00      	cmp	r3, #0
 80064b8:	d009      	beq.n	80064ce <xTaskResumeAll+0x10e>
				{
					#if( configUSE_PREEMPTION != 0 )
					{
						xAlreadyYielded = pdTRUE;
 80064ba:	2301      	movs	r3, #1
 80064bc:	60bb      	str	r3, [r7, #8]
					}
					#endif
					taskYIELD_IF_USING_PREEMPTION();
 80064be:	4b0f      	ldr	r3, [pc, #60]	@ (80064fc <xTaskResumeAll+0x13c>)
 80064c0:	f04f 5280 	mov.w	r2, #268435456	@ 0x10000000
 80064c4:	601a      	str	r2, [r3, #0]
 80064c6:	f3bf 8f4f 	dsb	sy
 80064ca:	f3bf 8f6f 	isb	sy
		else
		{
			mtCOVERAGE_TEST_MARKER();
		}
	}
	taskEXIT_CRITICAL();
 80064ce:	f001 f9cb 	bl	8007868 <vPortExitCritical>

	return xAlreadyYielded;
 80064d2:	68bb      	ldr	r3, [r7, #8]
}
 80064d4:	4618      	mov	r0, r3
 80064d6:	3710      	adds	r7, #16
 80064d8:	46bd      	mov	sp, r7
 80064da:	bd80      	pop	{r7, pc}
 80064dc:	20000e74 	.word	0x20000e74
 80064e0:	20000e4c 	.word	0x20000e4c
 80064e4:	20000e0c 	.word	0x20000e0c
 80064e8:	20000e54 	.word	0x20000e54
 80064ec:	2000097c 	.word	0x2000097c
 80064f0:	20000978 	.word	0x20000978
 80064f4:	20000e60 	.word	0x20000e60
 80064f8:	20000e5c 	.word	0x20000e5c
 80064fc:	e000ed04 	.word	0xe000ed04

08006500 <xTaskGetTickCount>:
/*-----------------------------------------------------------*/

TickType_t xTaskGetTickCount( void )
{
 8006500:	b480      	push	{r7}
 8006502:	b083      	sub	sp, #12
 8006504:	af00      	add	r7, sp, #0
TickType_t xTicks;

	/* Critical section required if running on a 16 bit processor. */
	portTICK_TYPE_ENTER_CRITICAL();
	{
		xTicks = xTickCount;
 8006506:	4b05      	ldr	r3, [pc, #20]	@ (800651c <xTaskGetTickCount+0x1c>)
 8006508:	681b      	ldr	r3, [r3, #0]
 800650a:	607b      	str	r3, [r7, #4]
	}
	portTICK_TYPE_EXIT_CRITICAL();

	return xTicks;
 800650c:	687b      	ldr	r3, [r7, #4]
}
 800650e:	4618      	mov	r0, r3
 8006510:	370c      	adds	r7, #12
 8006512:	46bd      	mov	sp, r7
 8006514:	f85d 7b04 	ldr.w	r7, [sp], #4
 8006518:	4770      	bx	lr
 800651a:	bf00      	nop
 800651c:	20000e50 	.word	0x20000e50

08006520 <xTaskIncrementTick>:

#endif /* INCLUDE_xTaskAbortDelay */
/*----------------------------------------------------------*/

BaseType_t xTaskIncrementTick( void )
{
 8006520:	b580      	push	{r7, lr}
 8006522:	b086      	sub	sp, #24
 8006524:	af00      	add	r7, sp, #0
TCB_t * pxTCB;
TickType_t xItemValue;
BaseType_t xSwitchRequired = pdFALSE;
 8006526:	2300      	movs	r3, #0
 8006528:	617b      	str	r3, [r7, #20]

	/* Called by the portable layer each time a tick interrupt occurs.
	Increments the tick then checks to see if the new tick value will cause any
	tasks to be unblocked. */
	traceTASK_INCREMENT_TICK( xTickCount );
	if( uxSchedulerSuspended == ( UBaseType_t ) pdFALSE )
 800652a:	4b50      	ldr	r3, [pc, #320]	@ (800666c <xTaskIncrementTick+0x14c>)
 800652c:	681b      	ldr	r3, [r3, #0]
 800652e:	2b00      	cmp	r3, #0
 8006530:	f040 808c 	bne.w	800664c <xTaskIncrementTick+0x12c>
	{
		/* Minor optimisation.  The tick count cannot change in this
		block. */
		const TickType_t xConstTickCount = xTickCount + ( TickType_t ) 1;
 8006534:	4b4e      	ldr	r3, [pc, #312]	@ (8006670 <xTaskIncrementTick+0x150>)
 8006536:	681b      	ldr	r3, [r3, #0]
 8006538:	3301      	adds	r3, #1
 800653a:	613b      	str	r3, [r7, #16]

		/* Increment the RTOS tick, switching the delayed and overflowed
		delayed lists if it wraps to 0. */
		xTickCount = xConstTickCount;
 800653c:	4a4c      	ldr	r2, [pc, #304]	@ (8006670 <xTaskIncrementTick+0x150>)
 800653e:	693b      	ldr	r3, [r7, #16]
 8006540:	6013      	str	r3, [r2, #0]

		if( xConstTickCount == ( TickType_t ) 0U ) /*lint !e774 'if' does not always evaluate to false as it is looking for an overflow. */
 8006542:	693b      	ldr	r3, [r7, #16]
 8006544:	2b00      	cmp	r3, #0
 8006546:	d123      	bne.n	8006590 <xTaskIncrementTick+0x70>
		{
			taskSWITCH_DELAYED_LISTS();
 8006548:	4b4a      	ldr	r3, [pc, #296]	@ (8006674 <xTaskIncrementTick+0x154>)
 800654a:	681b      	ldr	r3, [r3, #0]
 800654c:	681b      	ldr	r3, [r3, #0]
 800654e:	2b00      	cmp	r3, #0
 8006550:	d00d      	beq.n	800656e <xTaskIncrementTick+0x4e>
	__asm volatile
 8006552:	f04f 0350 	mov.w	r3, #80	@ 0x50
 8006556:	b672      	cpsid	i
 8006558:	f383 8811 	msr	BASEPRI, r3
 800655c:	f3bf 8f6f 	isb	sy
 8006560:	f3bf 8f4f 	dsb	sy
 8006564:	b662      	cpsie	i
 8006566:	603b      	str	r3, [r7, #0]
}
 8006568:	bf00      	nop
 800656a:	bf00      	nop
 800656c:	e7fd      	b.n	800656a <xTaskIncrementTick+0x4a>
 800656e:	4b41      	ldr	r3, [pc, #260]	@ (8006674 <xTaskIncrementTick+0x154>)
 8006570:	681b      	ldr	r3, [r3, #0]
 8006572:	60fb      	str	r3, [r7, #12]
 8006574:	4b40      	ldr	r3, [pc, #256]	@ (8006678 <xTaskIncrementTick+0x158>)
 8006576:	681b      	ldr	r3, [r3, #0]
 8006578:	4a3e      	ldr	r2, [pc, #248]	@ (8006674 <xTaskIncrementTick+0x154>)
 800657a:	6013      	str	r3, [r2, #0]
 800657c:	4a3e      	ldr	r2, [pc, #248]	@ (8006678 <xTaskIncrementTick+0x158>)
 800657e:	68fb      	ldr	r3, [r7, #12]
 8006580:	6013      	str	r3, [r2, #0]
 8006582:	4b3e      	ldr	r3, [pc, #248]	@ (800667c <xTaskIncrementTick+0x15c>)
 8006584:	681b      	ldr	r3, [r3, #0]
 8006586:	3301      	adds	r3, #1
 8006588:	4a3c      	ldr	r2, [pc, #240]	@ (800667c <xTaskIncrementTick+0x15c>)
 800658a:	6013      	str	r3, [r2, #0]
 800658c:	f000 faf0 	bl	8006b70 <prvResetNextTaskUnblockTime>

		/* See if this tick has made a timeout expire.  Tasks are stored in
		the	queue in the order of their wake time - meaning once one task
		has been found whose block time has not expired there is no need to
		look any further down the list. */
		if( xConstTickCount >= xNextTaskUnblockTime )
 8006590:	4b3b      	ldr	r3, [pc, #236]	@ (8006680 <xTaskIncrementTick+0x160>)
 8006592:	681b      	ldr	r3, [r3, #0]
 8006594:	693a      	ldr	r2, [r7, #16]
 8006596:	429a      	cmp	r2, r3
 8006598:	d349      	bcc.n	800662e <xTaskIncrementTick+0x10e>
		{
			for( ;; )
			{
				if( listLIST_IS_EMPTY( pxDelayedTaskList ) != pdFALSE )
 800659a:	4b36      	ldr	r3, [pc, #216]	@ (8006674 <xTaskIncrementTick+0x154>)
 800659c:	681b      	ldr	r3, [r3, #0]
 800659e:	681b      	ldr	r3, [r3, #0]
 80065a0:	2b00      	cmp	r3, #0
 80065a2:	d104      	bne.n	80065ae <xTaskIncrementTick+0x8e>
					/* The delayed list is empty.  Set xNextTaskUnblockTime
					to the maximum possible value so it is extremely
					unlikely that the
					if( xTickCount >= xNextTaskUnblockTime ) test will pass
					next time through. */
					xNextTaskUnblockTime = portMAX_DELAY; /*lint !e961 MISRA exception as the casts are only redundant for some ports. */
 80065a4:	4b36      	ldr	r3, [pc, #216]	@ (8006680 <xTaskIncrementTick+0x160>)
 80065a6:	f04f 32ff 	mov.w	r2, #4294967295
 80065aa:	601a      	str	r2, [r3, #0]
					break;
 80065ac:	e03f      	b.n	800662e <xTaskIncrementTick+0x10e>
				{
					/* The delayed list is not empty, get the value of the
					item at the head of the delayed list.  This is the time
					at which the task at the head of the delayed list must
					be removed from the Blocked state. */
					pxTCB = listGET_OWNER_OF_HEAD_ENTRY( pxDelayedTaskList ); /*lint !e9079 void * is used as this macro is used with timers and co-routines too.  Alignment is known to be fine as the type of the pointer stored and retrieved is the same. */
 80065ae:	4b31      	ldr	r3, [pc, #196]	@ (8006674 <xTaskIncrementTick+0x154>)
 80065b0:	681b      	ldr	r3, [r3, #0]
 80065b2:	68db      	ldr	r3, [r3, #12]
 80065b4:	68db      	ldr	r3, [r3, #12]
 80065b6:	60bb      	str	r3, [r7, #8]
					xItemValue = listGET_LIST_ITEM_VALUE( &( pxTCB->xStateListItem ) );
 80065b8:	68bb      	ldr	r3, [r7, #8]
 80065ba:	685b      	ldr	r3, [r3, #4]
 80065bc:	607b      	str	r3, [r7, #4]

					if( xConstTickCount < xItemValue )
 80065be:	693a      	ldr	r2, [r7, #16]
 80065c0:	687b      	ldr	r3, [r7, #4]
 80065c2:	429a      	cmp	r2, r3
 80065c4:	d203      	bcs.n	80065ce <xTaskIncrementTick+0xae>
						/* It is not time to unblock this item yet, but the
						item value is the time at which the task at the head
						of the blocked list must be removed from the Blocked
						state -	so record the item value in
						xNextTaskUnblockTime. */
						xNextTaskUnblockTime = xItemValue;
 80065c6:	4a2e      	ldr	r2, [pc, #184]	@ (8006680 <xTaskIncrementTick+0x160>)
 80065c8:	687b      	ldr	r3, [r7, #4]
 80065ca:	6013      	str	r3, [r2, #0]
						break; /*lint !e9011 Code structure here is deedmed easier to understand with multiple breaks. */
 80065cc:	e02f      	b.n	800662e <xTaskIncrementTick+0x10e>
					{
						mtCOVERAGE_TEST_MARKER();
					}

					/* It is time to remove the item from the Blocked state. */
					( void ) uxListRemove( &( pxTCB->xStateListItem ) );
 80065ce:	68bb      	ldr	r3, [r7, #8]
 80065d0:	3304      	adds	r3, #4
 80065d2:	4618      	mov	r0, r3
 80065d4:	f7fe fea0 	bl	8005318 <uxListRemove>

					/* Is the task waiting on an event also?  If so remove
					it from the event list. */
					if( listLIST_ITEM_CONTAINER( &( pxTCB->xEventListItem ) ) != NULL )
 80065d8:	68bb      	ldr	r3, [r7, #8]
 80065da:	6a9b      	ldr	r3, [r3, #40]	@ 0x28
 80065dc:	2b00      	cmp	r3, #0
 80065de:	d004      	beq.n	80065ea <xTaskIncrementTick+0xca>
					{
						( void ) uxListRemove( &( pxTCB->xEventListItem ) );
 80065e0:	68bb      	ldr	r3, [r7, #8]
 80065e2:	3318      	adds	r3, #24
 80065e4:	4618      	mov	r0, r3
 80065e6:	f7fe fe97 	bl	8005318 <uxListRemove>
						mtCOVERAGE_TEST_MARKER();
					}

					/* Place the unblocked task into the appropriate ready
					list. */
					prvAddTaskToReadyList( pxTCB );
 80065ea:	68bb      	ldr	r3, [r7, #8]
 80065ec:	6ada      	ldr	r2, [r3, #44]	@ 0x2c
 80065ee:	4b25      	ldr	r3, [pc, #148]	@ (8006684 <xTaskIncrementTick+0x164>)
 80065f0:	681b      	ldr	r3, [r3, #0]
 80065f2:	429a      	cmp	r2, r3
 80065f4:	d903      	bls.n	80065fe <xTaskIncrementTick+0xde>
 80065f6:	68bb      	ldr	r3, [r7, #8]
 80065f8:	6adb      	ldr	r3, [r3, #44]	@ 0x2c
 80065fa:	4a22      	ldr	r2, [pc, #136]	@ (8006684 <xTaskIncrementTick+0x164>)
 80065fc:	6013      	str	r3, [r2, #0]
 80065fe:	68bb      	ldr	r3, [r7, #8]
 8006600:	6ada      	ldr	r2, [r3, #44]	@ 0x2c
 8006602:	4613      	mov	r3, r2
 8006604:	009b      	lsls	r3, r3, #2
 8006606:	4413      	add	r3, r2
 8006608:	009b      	lsls	r3, r3, #2
 800660a:	4a1f      	ldr	r2, [pc, #124]	@ (8006688 <xTaskIncrementTick+0x168>)
 800660c:	441a      	add	r2, r3
 800660e:	68bb      	ldr	r3, [r7, #8]
 8006610:	3304      	adds	r3, #4
 8006612:	4619      	mov	r1, r3
 8006614:	4610      	mov	r0, r2
 8006616:	f7fe fe22 	bl	800525e <vListInsertEnd>
					{
						/* Preemption is on, but a context switch should
						only be performed if the unblocked task has a
						priority that is equal to or higher than the
						currently executing task. */
						if( pxTCB->uxPriority >= pxCurrentTCB->uxPriority )
 800661a:	68bb      	ldr	r3, [r7, #8]
 800661c:	6ada      	ldr	r2, [r3, #44]	@ 0x2c
 800661e:	4b1b      	ldr	r3, [pc, #108]	@ (800668c <xTaskIncrementTick+0x16c>)
 8006620:	681b      	ldr	r3, [r3, #0]
 8006622:	6adb      	ldr	r3, [r3, #44]	@ 0x2c
 8006624:	429a      	cmp	r2, r3
 8006626:	d3b8      	bcc.n	800659a <xTaskIncrementTick+0x7a>
						{
							xSwitchRequired = pdTRUE;
 8006628:	2301      	movs	r3, #1
 800662a:	617b      	str	r3, [r7, #20]
				if( listLIST_IS_EMPTY( pxDelayedTaskList ) != pdFALSE )
 800662c:	e7b5      	b.n	800659a <xTaskIncrementTick+0x7a>
		/* Tasks of equal priority to the currently running task will share
		processing time (time slice) if preemption is on, and the application
		writer has not explicitly turned time slicing off. */
		#if ( ( configUSE_PREEMPTION == 1 ) && ( configUSE_TIME_SLICING == 1 ) )
		{
			if( listCURRENT_LIST_LENGTH( &( pxReadyTasksLists[ pxCurrentTCB->uxPriority ] ) ) > ( UBaseType_t ) 1 )
 800662e:	4b17      	ldr	r3, [pc, #92]	@ (800668c <xTaskIncrementTick+0x16c>)
 8006630:	681b      	ldr	r3, [r3, #0]
 8006632:	6ada      	ldr	r2, [r3, #44]	@ 0x2c
 8006634:	4914      	ldr	r1, [pc, #80]	@ (8006688 <xTaskIncrementTick+0x168>)
 8006636:	4613      	mov	r3, r2
 8006638:	009b      	lsls	r3, r3, #2
 800663a:	4413      	add	r3, r2
 800663c:	009b      	lsls	r3, r3, #2
 800663e:	440b      	add	r3, r1
 8006640:	681b      	ldr	r3, [r3, #0]
 8006642:	2b01      	cmp	r3, #1
 8006644:	d907      	bls.n	8006656 <xTaskIncrementTick+0x136>
			{
				xSwitchRequired = pdTRUE;
 8006646:	2301      	movs	r3, #1
 8006648:	617b      	str	r3, [r7, #20]
 800664a:	e004      	b.n	8006656 <xTaskIncrementTick+0x136>
		}
		#endif /* configUSE_TICK_HOOK */
	}
	else
	{
		++uxPendedTicks;
 800664c:	4b10      	ldr	r3, [pc, #64]	@ (8006690 <xTaskIncrementTick+0x170>)
 800664e:	681b      	ldr	r3, [r3, #0]
 8006650:	3301      	adds	r3, #1
 8006652:	4a0f      	ldr	r2, [pc, #60]	@ (8006690 <xTaskIncrementTick+0x170>)
 8006654:	6013      	str	r3, [r2, #0]
		#endif
	}

	#if ( configUSE_PREEMPTION == 1 )
	{
		if( xYieldPending != pdFALSE )
 8006656:	4b0f      	ldr	r3, [pc, #60]	@ (8006694 <xTaskIncrementTick+0x174>)
 8006658:	681b      	ldr	r3, [r3, #0]
 800665a:	2b00      	cmp	r3, #0
 800665c:	d001      	beq.n	8006662 <xTaskIncrementTick+0x142>
		{
			xSwitchRequired = pdTRUE;
 800665e:	2301      	movs	r3, #1
 8006660:	617b      	str	r3, [r7, #20]
			mtCOVERAGE_TEST_MARKER();
		}
	}
	#endif /* configUSE_PREEMPTION */

	return xSwitchRequired;
 8006662:	697b      	ldr	r3, [r7, #20]
}
 8006664:	4618      	mov	r0, r3
 8006666:	3718      	adds	r7, #24
 8006668:	46bd      	mov	sp, r7
 800666a:	bd80      	pop	{r7, pc}
 800666c:	20000e74 	.word	0x20000e74
 8006670:	20000e50 	.word	0x20000e50
 8006674:	20000e04 	.word	0x20000e04
 8006678:	20000e08 	.word	0x20000e08
 800667c:	20000e64 	.word	0x20000e64
 8006680:	20000e6c 	.word	0x20000e6c
 8006684:	20000e54 	.word	0x20000e54
 8006688:	2000097c 	.word	0x2000097c
 800668c:	20000978 	.word	0x20000978
 8006690:	20000e5c 	.word	0x20000e5c
 8006694:	20000e60 	.word	0x20000e60

08006698 <vTaskSwitchContext>:

#endif /* configUSE_APPLICATION_TASK_TAG */
/*-----------------------------------------------------------*/

void vTaskSwitchContext( void )
{
 8006698:	b480      	push	{r7}
 800669a:	b085      	sub	sp, #20
 800669c:	af00      	add	r7, sp, #0
	if( uxSchedulerSuspended != ( UBaseType_t ) pdFALSE )
 800669e:	4b2c      	ldr	r3, [pc, #176]	@ (8006750 <vTaskSwitchContext+0xb8>)
 80066a0:	681b      	ldr	r3, [r3, #0]
 80066a2:	2b00      	cmp	r3, #0
 80066a4:	d003      	beq.n	80066ae <vTaskSwitchContext+0x16>
	{
		/* The scheduler is currently suspended - do not allow a context
		switch. */
		xYieldPending = pdTRUE;
 80066a6:	4b2b      	ldr	r3, [pc, #172]	@ (8006754 <vTaskSwitchContext+0xbc>)
 80066a8:	2201      	movs	r2, #1
 80066aa:	601a      	str	r2, [r3, #0]
			structure specific to this task. */
			_impure_ptr = &( pxCurrentTCB->xNewLib_reent );
		}
		#endif /* configUSE_NEWLIB_REENTRANT */
	}
}
 80066ac:	e049      	b.n	8006742 <vTaskSwitchContext+0xaa>
		xYieldPending = pdFALSE;
 80066ae:	4b29      	ldr	r3, [pc, #164]	@ (8006754 <vTaskSwitchContext+0xbc>)
 80066b0:	2200      	movs	r2, #0
 80066b2:	601a      	str	r2, [r3, #0]
		taskSELECT_HIGHEST_PRIORITY_TASK(); /*lint !e9079 void * is used as this macro is used with timers and co-routines too.  Alignment is known to be fine as the type of the pointer stored and retrieved is the same. */
 80066b4:	4b28      	ldr	r3, [pc, #160]	@ (8006758 <vTaskSwitchContext+0xc0>)
 80066b6:	681b      	ldr	r3, [r3, #0]
 80066b8:	60fb      	str	r3, [r7, #12]
 80066ba:	e013      	b.n	80066e4 <vTaskSwitchContext+0x4c>
 80066bc:	68fb      	ldr	r3, [r7, #12]
 80066be:	2b00      	cmp	r3, #0
 80066c0:	d10d      	bne.n	80066de <vTaskSwitchContext+0x46>
	__asm volatile
 80066c2:	f04f 0350 	mov.w	r3, #80	@ 0x50
 80066c6:	b672      	cpsid	i
 80066c8:	f383 8811 	msr	BASEPRI, r3
 80066cc:	f3bf 8f6f 	isb	sy
 80066d0:	f3bf 8f4f 	dsb	sy
 80066d4:	b662      	cpsie	i
 80066d6:	607b      	str	r3, [r7, #4]
}
 80066d8:	bf00      	nop
 80066da:	bf00      	nop
 80066dc:	e7fd      	b.n	80066da <vTaskSwitchContext+0x42>
 80066de:	68fb      	ldr	r3, [r7, #12]
 80066e0:	3b01      	subs	r3, #1
 80066e2:	60fb      	str	r3, [r7, #12]
 80066e4:	491d      	ldr	r1, [pc, #116]	@ (800675c <vTaskSwitchContext+0xc4>)
 80066e6:	68fa      	ldr	r2, [r7, #12]
 80066e8:	4613      	mov	r3, r2
 80066ea:	009b      	lsls	r3, r3, #2
 80066ec:	4413      	add	r3, r2
 80066ee:	009b      	lsls	r3, r3, #2
 80066f0:	440b      	add	r3, r1
 80066f2:	681b      	ldr	r3, [r3, #0]
 80066f4:	2b00      	cmp	r3, #0
 80066f6:	d0e1      	beq.n	80066bc <vTaskSwitchContext+0x24>
 80066f8:	68fa      	ldr	r2, [r7, #12]
 80066fa:	4613      	mov	r3, r2
 80066fc:	009b      	lsls	r3, r3, #2
 80066fe:	4413      	add	r3, r2
 8006700:	009b      	lsls	r3, r3, #2
 8006702:	4a16      	ldr	r2, [pc, #88]	@ (800675c <vTaskSwitchContext+0xc4>)
 8006704:	4413      	add	r3, r2
 8006706:	60bb      	str	r3, [r7, #8]
 8006708:	68bb      	ldr	r3, [r7, #8]
 800670a:	685b      	ldr	r3, [r3, #4]
 800670c:	685a      	ldr	r2, [r3, #4]
 800670e:	68bb      	ldr	r3, [r7, #8]
 8006710:	605a      	str	r2, [r3, #4]
 8006712:	68bb      	ldr	r3, [r7, #8]
 8006714:	685a      	ldr	r2, [r3, #4]
 8006716:	68bb      	ldr	r3, [r7, #8]
 8006718:	3308      	adds	r3, #8
 800671a:	429a      	cmp	r2, r3
 800671c:	d104      	bne.n	8006728 <vTaskSwitchContext+0x90>
 800671e:	68bb      	ldr	r3, [r7, #8]
 8006720:	685b      	ldr	r3, [r3, #4]
 8006722:	685a      	ldr	r2, [r3, #4]
 8006724:	68bb      	ldr	r3, [r7, #8]
 8006726:	605a      	str	r2, [r3, #4]
 8006728:	68bb      	ldr	r3, [r7, #8]
 800672a:	685b      	ldr	r3, [r3, #4]
 800672c:	68db      	ldr	r3, [r3, #12]
 800672e:	4a0c      	ldr	r2, [pc, #48]	@ (8006760 <vTaskSwitchContext+0xc8>)
 8006730:	6013      	str	r3, [r2, #0]
 8006732:	4a09      	ldr	r2, [pc, #36]	@ (8006758 <vTaskSwitchContext+0xc0>)
 8006734:	68fb      	ldr	r3, [r7, #12]
 8006736:	6013      	str	r3, [r2, #0]
			_impure_ptr = &( pxCurrentTCB->xNewLib_reent );
 8006738:	4b09      	ldr	r3, [pc, #36]	@ (8006760 <vTaskSwitchContext+0xc8>)
 800673a:	681b      	ldr	r3, [r3, #0]
 800673c:	3354      	adds	r3, #84	@ 0x54
 800673e:	4a09      	ldr	r2, [pc, #36]	@ (8006764 <vTaskSwitchContext+0xcc>)
 8006740:	6013      	str	r3, [r2, #0]
}
 8006742:	bf00      	nop
 8006744:	3714      	adds	r7, #20
 8006746:	46bd      	mov	sp, r7
 8006748:	f85d 7b04 	ldr.w	r7, [sp], #4
 800674c:	4770      	bx	lr
 800674e:	bf00      	nop
 8006750:	20000e74 	.word	0x20000e74
 8006754:	20000e60 	.word	0x20000e60
 8006758:	20000e54 	.word	0x20000e54
 800675c:	2000097c 	.word	0x2000097c
 8006760:	20000978 	.word	0x20000978
 8006764:	20000010 	.word	0x20000010

08006768 <vTaskPlaceOnEventList>:
/*-----------------------------------------------------------*/

void vTaskPlaceOnEventList( List_t * const pxEventList, const TickType_t xTicksToWait )
{
 8006768:	b580      	push	{r7, lr}
 800676a:	b084      	sub	sp, #16
 800676c:	af00      	add	r7, sp, #0
 800676e:	6078      	str	r0, [r7, #4]
 8006770:	6039      	str	r1, [r7, #0]
	configASSERT( pxEventList );
 8006772:	687b      	ldr	r3, [r7, #4]
 8006774:	2b00      	cmp	r3, #0
 8006776:	d10d      	bne.n	8006794 <vTaskPlaceOnEventList+0x2c>
	__asm volatile
 8006778:	f04f 0350 	mov.w	r3, #80	@ 0x50
 800677c:	b672      	cpsid	i
 800677e:	f383 8811 	msr	BASEPRI, r3
 8006782:	f3bf 8f6f 	isb	sy
 8006786:	f3bf 8f4f 	dsb	sy
 800678a:	b662      	cpsie	i
 800678c:	60fb      	str	r3, [r7, #12]
}
 800678e:	bf00      	nop
 8006790:	bf00      	nop
 8006792:	e7fd      	b.n	8006790 <vTaskPlaceOnEventList+0x28>

	/* Place the event list item of the TCB in the appropriate event list.
	This is placed in the list in priority order so the highest priority task
	is the first to be woken by the event.  The queue that contains the event
	list is locked, preventing simultaneous access from interrupts. */
	vListInsert( pxEventList, &( pxCurrentTCB->xEventListItem ) );
 8006794:	4b07      	ldr	r3, [pc, #28]	@ (80067b4 <vTaskPlaceOnEventList+0x4c>)
 8006796:	681b      	ldr	r3, [r3, #0]
 8006798:	3318      	adds	r3, #24
 800679a:	4619      	mov	r1, r3
 800679c:	6878      	ldr	r0, [r7, #4]
 800679e:	f7fe fd82 	bl	80052a6 <vListInsert>

	prvAddCurrentTaskToDelayedList( xTicksToWait, pdTRUE );
 80067a2:	2101      	movs	r1, #1
 80067a4:	6838      	ldr	r0, [r7, #0]
 80067a6:	f000 fa95 	bl	8006cd4 <prvAddCurrentTaskToDelayedList>
}
 80067aa:	bf00      	nop
 80067ac:	3710      	adds	r7, #16
 80067ae:	46bd      	mov	sp, r7
 80067b0:	bd80      	pop	{r7, pc}
 80067b2:	bf00      	nop
 80067b4:	20000978 	.word	0x20000978

080067b8 <vTaskPlaceOnEventListRestricted>:
/*-----------------------------------------------------------*/

#if( configUSE_TIMERS == 1 )

	void vTaskPlaceOnEventListRestricted( List_t * const pxEventList, TickType_t xTicksToWait, const BaseType_t xWaitIndefinitely )
	{
 80067b8:	b580      	push	{r7, lr}
 80067ba:	b086      	sub	sp, #24
 80067bc:	af00      	add	r7, sp, #0
 80067be:	60f8      	str	r0, [r7, #12]
 80067c0:	60b9      	str	r1, [r7, #8]
 80067c2:	607a      	str	r2, [r7, #4]
		configASSERT( pxEventList );
 80067c4:	68fb      	ldr	r3, [r7, #12]
 80067c6:	2b00      	cmp	r3, #0
 80067c8:	d10d      	bne.n	80067e6 <vTaskPlaceOnEventListRestricted+0x2e>
	__asm volatile
 80067ca:	f04f 0350 	mov.w	r3, #80	@ 0x50
 80067ce:	b672      	cpsid	i
 80067d0:	f383 8811 	msr	BASEPRI, r3
 80067d4:	f3bf 8f6f 	isb	sy
 80067d8:	f3bf 8f4f 	dsb	sy
 80067dc:	b662      	cpsie	i
 80067de:	617b      	str	r3, [r7, #20]
}
 80067e0:	bf00      	nop
 80067e2:	bf00      	nop
 80067e4:	e7fd      	b.n	80067e2 <vTaskPlaceOnEventListRestricted+0x2a>

		/* Place the event list item of the TCB in the appropriate event list.
		In this case it is assume that this is the only task that is going to
		be waiting on this event list, so the faster vListInsertEnd() function
		can be used in place of vListInsert. */
		vListInsertEnd( pxEventList, &( pxCurrentTCB->xEventListItem ) );
 80067e6:	4b0a      	ldr	r3, [pc, #40]	@ (8006810 <vTaskPlaceOnEventListRestricted+0x58>)
 80067e8:	681b      	ldr	r3, [r3, #0]
 80067ea:	3318      	adds	r3, #24
 80067ec:	4619      	mov	r1, r3
 80067ee:	68f8      	ldr	r0, [r7, #12]
 80067f0:	f7fe fd35 	bl	800525e <vListInsertEnd>

		/* If the task should block indefinitely then set the block time to a
		value that will be recognised as an indefinite delay inside the
		prvAddCurrentTaskToDelayedList() function. */
		if( xWaitIndefinitely != pdFALSE )
 80067f4:	687b      	ldr	r3, [r7, #4]
 80067f6:	2b00      	cmp	r3, #0
 80067f8:	d002      	beq.n	8006800 <vTaskPlaceOnEventListRestricted+0x48>
		{
			xTicksToWait = portMAX_DELAY;
 80067fa:	f04f 33ff 	mov.w	r3, #4294967295
 80067fe:	60bb      	str	r3, [r7, #8]
		}

		traceTASK_DELAY_UNTIL( ( xTickCount + xTicksToWait ) );
		prvAddCurrentTaskToDelayedList( xTicksToWait, xWaitIndefinitely );
 8006800:	6879      	ldr	r1, [r7, #4]
 8006802:	68b8      	ldr	r0, [r7, #8]
 8006804:	f000 fa66 	bl	8006cd4 <prvAddCurrentTaskToDelayedList>
	}
 8006808:	bf00      	nop
 800680a:	3718      	adds	r7, #24
 800680c:	46bd      	mov	sp, r7
 800680e:	bd80      	pop	{r7, pc}
 8006810:	20000978 	.word	0x20000978

08006814 <xTaskRemoveFromEventList>:

#endif /* configUSE_TIMERS */
/*-----------------------------------------------------------*/

BaseType_t xTaskRemoveFromEventList( const List_t * const pxEventList )
{
 8006814:	b580      	push	{r7, lr}
 8006816:	b086      	sub	sp, #24
 8006818:	af00      	add	r7, sp, #0
 800681a:	6078      	str	r0, [r7, #4]
	get called - the lock count on the queue will get modified instead.  This
	means exclusive access to the event list is guaranteed here.

	This function assumes that a check has already been made to ensure that
	pxEventList is not empty. */
	pxUnblockedTCB = listGET_OWNER_OF_HEAD_ENTRY( pxEventList ); /*lint !e9079 void * is used as this macro is used with timers and co-routines too.  Alignment is known to be fine as the type of the pointer stored and retrieved is the same. */
 800681c:	687b      	ldr	r3, [r7, #4]
 800681e:	68db      	ldr	r3, [r3, #12]
 8006820:	68db      	ldr	r3, [r3, #12]
 8006822:	613b      	str	r3, [r7, #16]
	configASSERT( pxUnblockedTCB );
 8006824:	693b      	ldr	r3, [r7, #16]
 8006826:	2b00      	cmp	r3, #0
 8006828:	d10d      	bne.n	8006846 <xTaskRemoveFromEventList+0x32>
	__asm volatile
 800682a:	f04f 0350 	mov.w	r3, #80	@ 0x50
 800682e:	b672      	cpsid	i
 8006830:	f383 8811 	msr	BASEPRI, r3
 8006834:	f3bf 8f6f 	isb	sy
 8006838:	f3bf 8f4f 	dsb	sy
 800683c:	b662      	cpsie	i
 800683e:	60fb      	str	r3, [r7, #12]
}
 8006840:	bf00      	nop
 8006842:	bf00      	nop
 8006844:	e7fd      	b.n	8006842 <xTaskRemoveFromEventList+0x2e>
	( void ) uxListRemove( &( pxUnblockedTCB->xEventListItem ) );
 8006846:	693b      	ldr	r3, [r7, #16]
 8006848:	3318      	adds	r3, #24
 800684a:	4618      	mov	r0, r3
 800684c:	f7fe fd64 	bl	8005318 <uxListRemove>

	if( uxSchedulerSuspended == ( UBaseType_t ) pdFALSE )
 8006850:	4b1d      	ldr	r3, [pc, #116]	@ (80068c8 <xTaskRemoveFromEventList+0xb4>)
 8006852:	681b      	ldr	r3, [r3, #0]
 8006854:	2b00      	cmp	r3, #0
 8006856:	d11d      	bne.n	8006894 <xTaskRemoveFromEventList+0x80>
	{
		( void ) uxListRemove( &( pxUnblockedTCB->xStateListItem ) );
 8006858:	693b      	ldr	r3, [r7, #16]
 800685a:	3304      	adds	r3, #4
 800685c:	4618      	mov	r0, r3
 800685e:	f7fe fd5b 	bl	8005318 <uxListRemove>
		prvAddTaskToReadyList( pxUnblockedTCB );
 8006862:	693b      	ldr	r3, [r7, #16]
 8006864:	6ada      	ldr	r2, [r3, #44]	@ 0x2c
 8006866:	4b19      	ldr	r3, [pc, #100]	@ (80068cc <xTaskRemoveFromEventList+0xb8>)
 8006868:	681b      	ldr	r3, [r3, #0]
 800686a:	429a      	cmp	r2, r3
 800686c:	d903      	bls.n	8006876 <xTaskRemoveFromEventList+0x62>
 800686e:	693b      	ldr	r3, [r7, #16]
 8006870:	6adb      	ldr	r3, [r3, #44]	@ 0x2c
 8006872:	4a16      	ldr	r2, [pc, #88]	@ (80068cc <xTaskRemoveFromEventList+0xb8>)
 8006874:	6013      	str	r3, [r2, #0]
 8006876:	693b      	ldr	r3, [r7, #16]
 8006878:	6ada      	ldr	r2, [r3, #44]	@ 0x2c
 800687a:	4613      	mov	r3, r2
 800687c:	009b      	lsls	r3, r3, #2
 800687e:	4413      	add	r3, r2
 8006880:	009b      	lsls	r3, r3, #2
 8006882:	4a13      	ldr	r2, [pc, #76]	@ (80068d0 <xTaskRemoveFromEventList+0xbc>)
 8006884:	441a      	add	r2, r3
 8006886:	693b      	ldr	r3, [r7, #16]
 8006888:	3304      	adds	r3, #4
 800688a:	4619      	mov	r1, r3
 800688c:	4610      	mov	r0, r2
 800688e:	f7fe fce6 	bl	800525e <vListInsertEnd>
 8006892:	e005      	b.n	80068a0 <xTaskRemoveFromEventList+0x8c>
	}
	else
	{
		/* The delayed and ready lists cannot be accessed, so hold this task
		pending until the scheduler is resumed. */
		vListInsertEnd( &( xPendingReadyList ), &( pxUnblockedTCB->xEventListItem ) );
 8006894:	693b      	ldr	r3, [r7, #16]
 8006896:	3318      	adds	r3, #24
 8006898:	4619      	mov	r1, r3
 800689a:	480e      	ldr	r0, [pc, #56]	@ (80068d4 <xTaskRemoveFromEventList+0xc0>)
 800689c:	f7fe fcdf 	bl	800525e <vListInsertEnd>
	}

	if( pxUnblockedTCB->uxPriority > pxCurrentTCB->uxPriority )
 80068a0:	693b      	ldr	r3, [r7, #16]
 80068a2:	6ada      	ldr	r2, [r3, #44]	@ 0x2c
 80068a4:	4b0c      	ldr	r3, [pc, #48]	@ (80068d8 <xTaskRemoveFromEventList+0xc4>)
 80068a6:	681b      	ldr	r3, [r3, #0]
 80068a8:	6adb      	ldr	r3, [r3, #44]	@ 0x2c
 80068aa:	429a      	cmp	r2, r3
 80068ac:	d905      	bls.n	80068ba <xTaskRemoveFromEventList+0xa6>
	{
		/* Return true if the task removed from the event list has a higher
		priority than the calling task.  This allows the calling task to know if
		it should force a context switch now. */
		xReturn = pdTRUE;
 80068ae:	2301      	movs	r3, #1
 80068b0:	617b      	str	r3, [r7, #20]

		/* Mark that a yield is pending in case the user is not using the
		"xHigherPriorityTaskWoken" parameter to an ISR safe FreeRTOS function. */
		xYieldPending = pdTRUE;
 80068b2:	4b0a      	ldr	r3, [pc, #40]	@ (80068dc <xTaskRemoveFromEventList+0xc8>)
 80068b4:	2201      	movs	r2, #1
 80068b6:	601a      	str	r2, [r3, #0]
 80068b8:	e001      	b.n	80068be <xTaskRemoveFromEventList+0xaa>
	}
	else
	{
		xReturn = pdFALSE;
 80068ba:	2300      	movs	r3, #0
 80068bc:	617b      	str	r3, [r7, #20]
	}

	return xReturn;
 80068be:	697b      	ldr	r3, [r7, #20]
}
 80068c0:	4618      	mov	r0, r3
 80068c2:	3718      	adds	r7, #24
 80068c4:	46bd      	mov	sp, r7
 80068c6:	bd80      	pop	{r7, pc}
 80068c8:	20000e74 	.word	0x20000e74
 80068cc:	20000e54 	.word	0x20000e54
 80068d0:	2000097c 	.word	0x2000097c
 80068d4:	20000e0c 	.word	0x20000e0c
 80068d8:	20000978 	.word	0x20000978
 80068dc:	20000e60 	.word	0x20000e60

080068e0 <vTaskInternalSetTimeOutState>:
	taskEXIT_CRITICAL();
}
/*-----------------------------------------------------------*/

void vTaskInternalSetTimeOutState( TimeOut_t * const pxTimeOut )
{
 80068e0:	b480      	push	{r7}
 80068e2:	b083      	sub	sp, #12
 80068e4:	af00      	add	r7, sp, #0
 80068e6:	6078      	str	r0, [r7, #4]
	/* For internal use only as it does not use a critical section. */
	pxTimeOut->xOverflowCount = xNumOfOverflows;
 80068e8:	4b06      	ldr	r3, [pc, #24]	@ (8006904 <vTaskInternalSetTimeOutState+0x24>)
 80068ea:	681a      	ldr	r2, [r3, #0]
 80068ec:	687b      	ldr	r3, [r7, #4]
 80068ee:	601a      	str	r2, [r3, #0]
	pxTimeOut->xTimeOnEntering = xTickCount;
 80068f0:	4b05      	ldr	r3, [pc, #20]	@ (8006908 <vTaskInternalSetTimeOutState+0x28>)
 80068f2:	681a      	ldr	r2, [r3, #0]
 80068f4:	687b      	ldr	r3, [r7, #4]
 80068f6:	605a      	str	r2, [r3, #4]
}
 80068f8:	bf00      	nop
 80068fa:	370c      	adds	r7, #12
 80068fc:	46bd      	mov	sp, r7
 80068fe:	f85d 7b04 	ldr.w	r7, [sp], #4
 8006902:	4770      	bx	lr
 8006904:	20000e64 	.word	0x20000e64
 8006908:	20000e50 	.word	0x20000e50

0800690c <xTaskCheckForTimeOut>:
/*-----------------------------------------------------------*/

BaseType_t xTaskCheckForTimeOut( TimeOut_t * const pxTimeOut, TickType_t * const pxTicksToWait )
{
 800690c:	b580      	push	{r7, lr}
 800690e:	b088      	sub	sp, #32
 8006910:	af00      	add	r7, sp, #0
 8006912:	6078      	str	r0, [r7, #4]
 8006914:	6039      	str	r1, [r7, #0]
BaseType_t xReturn;

	configASSERT( pxTimeOut );
 8006916:	687b      	ldr	r3, [r7, #4]
 8006918:	2b00      	cmp	r3, #0
 800691a:	d10d      	bne.n	8006938 <xTaskCheckForTimeOut+0x2c>
	__asm volatile
 800691c:	f04f 0350 	mov.w	r3, #80	@ 0x50
 8006920:	b672      	cpsid	i
 8006922:	f383 8811 	msr	BASEPRI, r3
 8006926:	f3bf 8f6f 	isb	sy
 800692a:	f3bf 8f4f 	dsb	sy
 800692e:	b662      	cpsie	i
 8006930:	613b      	str	r3, [r7, #16]
}
 8006932:	bf00      	nop
 8006934:	bf00      	nop
 8006936:	e7fd      	b.n	8006934 <xTaskCheckForTimeOut+0x28>
	configASSERT( pxTicksToWait );
 8006938:	683b      	ldr	r3, [r7, #0]
 800693a:	2b00      	cmp	r3, #0
 800693c:	d10d      	bne.n	800695a <xTaskCheckForTimeOut+0x4e>
	__asm volatile
 800693e:	f04f 0350 	mov.w	r3, #80	@ 0x50
 8006942:	b672      	cpsid	i
 8006944:	f383 8811 	msr	BASEPRI, r3
 8006948:	f3bf 8f6f 	isb	sy
 800694c:	f3bf 8f4f 	dsb	sy
 8006950:	b662      	cpsie	i
 8006952:	60fb      	str	r3, [r7, #12]
}
 8006954:	bf00      	nop
 8006956:	bf00      	nop
 8006958:	e7fd      	b.n	8006956 <xTaskCheckForTimeOut+0x4a>

	taskENTER_CRITICAL();
 800695a:	f000 ff4f 	bl	80077fc <vPortEnterCritical>
	{
		/* Minor optimisation.  The tick count cannot change in this block. */
		const TickType_t xConstTickCount = xTickCount;
 800695e:	4b1d      	ldr	r3, [pc, #116]	@ (80069d4 <xTaskCheckForTimeOut+0xc8>)
 8006960:	681b      	ldr	r3, [r3, #0]
 8006962:	61bb      	str	r3, [r7, #24]
		const TickType_t xElapsedTime = xConstTickCount - pxTimeOut->xTimeOnEntering;
 8006964:	687b      	ldr	r3, [r7, #4]
 8006966:	685b      	ldr	r3, [r3, #4]
 8006968:	69ba      	ldr	r2, [r7, #24]
 800696a:	1ad3      	subs	r3, r2, r3
 800696c:	617b      	str	r3, [r7, #20]
			}
			else
		#endif

		#if ( INCLUDE_vTaskSuspend == 1 )
			if( *pxTicksToWait == portMAX_DELAY )
 800696e:	683b      	ldr	r3, [r7, #0]
 8006970:	681b      	ldr	r3, [r3, #0]
 8006972:	f1b3 3fff 	cmp.w	r3, #4294967295
 8006976:	d102      	bne.n	800697e <xTaskCheckForTimeOut+0x72>
			{
				/* If INCLUDE_vTaskSuspend is set to 1 and the block time
				specified is the maximum block time then the task should block
				indefinitely, and therefore never time out. */
				xReturn = pdFALSE;
 8006978:	2300      	movs	r3, #0
 800697a:	61fb      	str	r3, [r7, #28]
 800697c:	e023      	b.n	80069c6 <xTaskCheckForTimeOut+0xba>
			}
			else
		#endif

		if( ( xNumOfOverflows != pxTimeOut->xOverflowCount ) && ( xConstTickCount >= pxTimeOut->xTimeOnEntering ) ) /*lint !e525 Indentation preferred as is to make code within pre-processor directives clearer. */
 800697e:	687b      	ldr	r3, [r7, #4]
 8006980:	681a      	ldr	r2, [r3, #0]
 8006982:	4b15      	ldr	r3, [pc, #84]	@ (80069d8 <xTaskCheckForTimeOut+0xcc>)
 8006984:	681b      	ldr	r3, [r3, #0]
 8006986:	429a      	cmp	r2, r3
 8006988:	d007      	beq.n	800699a <xTaskCheckForTimeOut+0x8e>
 800698a:	687b      	ldr	r3, [r7, #4]
 800698c:	685b      	ldr	r3, [r3, #4]
 800698e:	69ba      	ldr	r2, [r7, #24]
 8006990:	429a      	cmp	r2, r3
 8006992:	d302      	bcc.n	800699a <xTaskCheckForTimeOut+0x8e>
			/* The tick count is greater than the time at which
			vTaskSetTimeout() was called, but has also overflowed since
			vTaskSetTimeOut() was called.  It must have wrapped all the way
			around and gone past again. This passed since vTaskSetTimeout()
			was called. */
			xReturn = pdTRUE;
 8006994:	2301      	movs	r3, #1
 8006996:	61fb      	str	r3, [r7, #28]
 8006998:	e015      	b.n	80069c6 <xTaskCheckForTimeOut+0xba>
		}
		else if( xElapsedTime < *pxTicksToWait ) /*lint !e961 Explicit casting is only redundant with some compilers, whereas others require it to prevent integer conversion errors. */
 800699a:	683b      	ldr	r3, [r7, #0]
 800699c:	681b      	ldr	r3, [r3, #0]
 800699e:	697a      	ldr	r2, [r7, #20]
 80069a0:	429a      	cmp	r2, r3
 80069a2:	d20b      	bcs.n	80069bc <xTaskCheckForTimeOut+0xb0>
		{
			/* Not a genuine timeout. Adjust parameters for time remaining. */
			*pxTicksToWait -= xElapsedTime;
 80069a4:	683b      	ldr	r3, [r7, #0]
 80069a6:	681a      	ldr	r2, [r3, #0]
 80069a8:	697b      	ldr	r3, [r7, #20]
 80069aa:	1ad2      	subs	r2, r2, r3
 80069ac:	683b      	ldr	r3, [r7, #0]
 80069ae:	601a      	str	r2, [r3, #0]
			vTaskInternalSetTimeOutState( pxTimeOut );
 80069b0:	6878      	ldr	r0, [r7, #4]
 80069b2:	f7ff ff95 	bl	80068e0 <vTaskInternalSetTimeOutState>
			xReturn = pdFALSE;
 80069b6:	2300      	movs	r3, #0
 80069b8:	61fb      	str	r3, [r7, #28]
 80069ba:	e004      	b.n	80069c6 <xTaskCheckForTimeOut+0xba>
		}
		else
		{
			*pxTicksToWait = 0;
 80069bc:	683b      	ldr	r3, [r7, #0]
 80069be:	2200      	movs	r2, #0
 80069c0:	601a      	str	r2, [r3, #0]
			xReturn = pdTRUE;
 80069c2:	2301      	movs	r3, #1
 80069c4:	61fb      	str	r3, [r7, #28]
		}
	}
	taskEXIT_CRITICAL();
 80069c6:	f000 ff4f 	bl	8007868 <vPortExitCritical>

	return xReturn;
 80069ca:	69fb      	ldr	r3, [r7, #28]
}
 80069cc:	4618      	mov	r0, r3
 80069ce:	3720      	adds	r7, #32
 80069d0:	46bd      	mov	sp, r7
 80069d2:	bd80      	pop	{r7, pc}
 80069d4:	20000e50 	.word	0x20000e50
 80069d8:	20000e64 	.word	0x20000e64

080069dc <vTaskMissedYield>:
/*-----------------------------------------------------------*/

void vTaskMissedYield( void )
{
 80069dc:	b480      	push	{r7}
 80069de:	af00      	add	r7, sp, #0
	xYieldPending = pdTRUE;
 80069e0:	4b03      	ldr	r3, [pc, #12]	@ (80069f0 <vTaskMissedYield+0x14>)
 80069e2:	2201      	movs	r2, #1
 80069e4:	601a      	str	r2, [r3, #0]
}
 80069e6:	bf00      	nop
 80069e8:	46bd      	mov	sp, r7
 80069ea:	f85d 7b04 	ldr.w	r7, [sp], #4
 80069ee:	4770      	bx	lr
 80069f0:	20000e60 	.word	0x20000e60

080069f4 <prvIdleTask>:
 *
 * void prvIdleTask( void *pvParameters );
 *
 */
static portTASK_FUNCTION( prvIdleTask, pvParameters )
{
 80069f4:	b580      	push	{r7, lr}
 80069f6:	b082      	sub	sp, #8
 80069f8:	af00      	add	r7, sp, #0
 80069fa:	6078      	str	r0, [r7, #4]

	for( ;; )
	{
		/* See if any tasks have deleted themselves - if so then the idle task
		is responsible for freeing the deleted task's TCB and stack. */
		prvCheckTasksWaitingTermination();
 80069fc:	f000 f852 	bl	8006aa4 <prvCheckTasksWaitingTermination>

			A critical region is not required here as we are just reading from
			the list, and an occasional incorrect value will not matter.  If
			the ready list at the idle priority contains more than one task
			then a task other than the idle task is ready to execute. */
			if( listCURRENT_LIST_LENGTH( &( pxReadyTasksLists[ tskIDLE_PRIORITY ] ) ) > ( UBaseType_t ) 1 )
 8006a00:	4b06      	ldr	r3, [pc, #24]	@ (8006a1c <prvIdleTask+0x28>)
 8006a02:	681b      	ldr	r3, [r3, #0]
 8006a04:	2b01      	cmp	r3, #1
 8006a06:	d9f9      	bls.n	80069fc <prvIdleTask+0x8>
			{
				taskYIELD();
 8006a08:	4b05      	ldr	r3, [pc, #20]	@ (8006a20 <prvIdleTask+0x2c>)
 8006a0a:	f04f 5280 	mov.w	r2, #268435456	@ 0x10000000
 8006a0e:	601a      	str	r2, [r3, #0]
 8006a10:	f3bf 8f4f 	dsb	sy
 8006a14:	f3bf 8f6f 	isb	sy
		prvCheckTasksWaitingTermination();
 8006a18:	e7f0      	b.n	80069fc <prvIdleTask+0x8>
 8006a1a:	bf00      	nop
 8006a1c:	2000097c 	.word	0x2000097c
 8006a20:	e000ed04 	.word	0xe000ed04

08006a24 <prvInitialiseTaskLists>:

#endif /* portUSING_MPU_WRAPPERS */
/*-----------------------------------------------------------*/

static void prvInitialiseTaskLists( void )
{
 8006a24:	b580      	push	{r7, lr}
 8006a26:	b082      	sub	sp, #8
 8006a28:	af00      	add	r7, sp, #0
UBaseType_t uxPriority;

	for( uxPriority = ( UBaseType_t ) 0U; uxPriority < ( UBaseType_t ) configMAX_PRIORITIES; uxPriority++ )
 8006a2a:	2300      	movs	r3, #0
 8006a2c:	607b      	str	r3, [r7, #4]
 8006a2e:	e00c      	b.n	8006a4a <prvInitialiseTaskLists+0x26>
	{
		vListInitialise( &( pxReadyTasksLists[ uxPriority ] ) );
 8006a30:	687a      	ldr	r2, [r7, #4]
 8006a32:	4613      	mov	r3, r2
 8006a34:	009b      	lsls	r3, r3, #2
 8006a36:	4413      	add	r3, r2
 8006a38:	009b      	lsls	r3, r3, #2
 8006a3a:	4a12      	ldr	r2, [pc, #72]	@ (8006a84 <prvInitialiseTaskLists+0x60>)
 8006a3c:	4413      	add	r3, r2
 8006a3e:	4618      	mov	r0, r3
 8006a40:	f7fe fbe0 	bl	8005204 <vListInitialise>
	for( uxPriority = ( UBaseType_t ) 0U; uxPriority < ( UBaseType_t ) configMAX_PRIORITIES; uxPriority++ )
 8006a44:	687b      	ldr	r3, [r7, #4]
 8006a46:	3301      	adds	r3, #1
 8006a48:	607b      	str	r3, [r7, #4]
 8006a4a:	687b      	ldr	r3, [r7, #4]
 8006a4c:	2b37      	cmp	r3, #55	@ 0x37
 8006a4e:	d9ef      	bls.n	8006a30 <prvInitialiseTaskLists+0xc>
	}

	vListInitialise( &xDelayedTaskList1 );
 8006a50:	480d      	ldr	r0, [pc, #52]	@ (8006a88 <prvInitialiseTaskLists+0x64>)
 8006a52:	f7fe fbd7 	bl	8005204 <vListInitialise>
	vListInitialise( &xDelayedTaskList2 );
 8006a56:	480d      	ldr	r0, [pc, #52]	@ (8006a8c <prvInitialiseTaskLists+0x68>)
 8006a58:	f7fe fbd4 	bl	8005204 <vListInitialise>
	vListInitialise( &xPendingReadyList );
 8006a5c:	480c      	ldr	r0, [pc, #48]	@ (8006a90 <prvInitialiseTaskLists+0x6c>)
 8006a5e:	f7fe fbd1 	bl	8005204 <vListInitialise>

	#if ( INCLUDE_vTaskDelete == 1 )
	{
		vListInitialise( &xTasksWaitingTermination );
 8006a62:	480c      	ldr	r0, [pc, #48]	@ (8006a94 <prvInitialiseTaskLists+0x70>)
 8006a64:	f7fe fbce 	bl	8005204 <vListInitialise>
	}
	#endif /* INCLUDE_vTaskDelete */

	#if ( INCLUDE_vTaskSuspend == 1 )
	{
		vListInitialise( &xSuspendedTaskList );
 8006a68:	480b      	ldr	r0, [pc, #44]	@ (8006a98 <prvInitialiseTaskLists+0x74>)
 8006a6a:	f7fe fbcb 	bl	8005204 <vListInitialise>
	}
	#endif /* INCLUDE_vTaskSuspend */

	/* Start with pxDelayedTaskList using list1 and the pxOverflowDelayedTaskList
	using list2. */
	pxDelayedTaskList = &xDelayedTaskList1;
 8006a6e:	4b0b      	ldr	r3, [pc, #44]	@ (8006a9c <prvInitialiseTaskLists+0x78>)
 8006a70:	4a05      	ldr	r2, [pc, #20]	@ (8006a88 <prvInitialiseTaskLists+0x64>)
 8006a72:	601a      	str	r2, [r3, #0]
	pxOverflowDelayedTaskList = &xDelayedTaskList2;
 8006a74:	4b0a      	ldr	r3, [pc, #40]	@ (8006aa0 <prvInitialiseTaskLists+0x7c>)
 8006a76:	4a05      	ldr	r2, [pc, #20]	@ (8006a8c <prvInitialiseTaskLists+0x68>)
 8006a78:	601a      	str	r2, [r3, #0]
}
 8006a7a:	bf00      	nop
 8006a7c:	3708      	adds	r7, #8
 8006a7e:	46bd      	mov	sp, r7
 8006a80:	bd80      	pop	{r7, pc}
 8006a82:	bf00      	nop
 8006a84:	2000097c 	.word	0x2000097c
 8006a88:	20000ddc 	.word	0x20000ddc
 8006a8c:	20000df0 	.word	0x20000df0
 8006a90:	20000e0c 	.word	0x20000e0c
 8006a94:	20000e20 	.word	0x20000e20
 8006a98:	20000e38 	.word	0x20000e38
 8006a9c:	20000e04 	.word	0x20000e04
 8006aa0:	20000e08 	.word	0x20000e08

08006aa4 <prvCheckTasksWaitingTermination>:
/*-----------------------------------------------------------*/

static void prvCheckTasksWaitingTermination( void )
{
 8006aa4:	b580      	push	{r7, lr}
 8006aa6:	b082      	sub	sp, #8
 8006aa8:	af00      	add	r7, sp, #0
	{
		TCB_t *pxTCB;

		/* uxDeletedTasksWaitingCleanUp is used to prevent taskENTER_CRITICAL()
		being called too often in the idle task. */
		while( uxDeletedTasksWaitingCleanUp > ( UBaseType_t ) 0U )
 8006aaa:	e019      	b.n	8006ae0 <prvCheckTasksWaitingTermination+0x3c>
		{
			taskENTER_CRITICAL();
 8006aac:	f000 fea6 	bl	80077fc <vPortEnterCritical>
			{
				pxTCB = listGET_OWNER_OF_HEAD_ENTRY( ( &xTasksWaitingTermination ) ); /*lint !e9079 void * is used as this macro is used with timers and co-routines too.  Alignment is known to be fine as the type of the pointer stored and retrieved is the same. */
 8006ab0:	4b10      	ldr	r3, [pc, #64]	@ (8006af4 <prvCheckTasksWaitingTermination+0x50>)
 8006ab2:	68db      	ldr	r3, [r3, #12]
 8006ab4:	68db      	ldr	r3, [r3, #12]
 8006ab6:	607b      	str	r3, [r7, #4]
				( void ) uxListRemove( &( pxTCB->xStateListItem ) );
 8006ab8:	687b      	ldr	r3, [r7, #4]
 8006aba:	3304      	adds	r3, #4
 8006abc:	4618      	mov	r0, r3
 8006abe:	f7fe fc2b 	bl	8005318 <uxListRemove>
				--uxCurrentNumberOfTasks;
 8006ac2:	4b0d      	ldr	r3, [pc, #52]	@ (8006af8 <prvCheckTasksWaitingTermination+0x54>)
 8006ac4:	681b      	ldr	r3, [r3, #0]
 8006ac6:	3b01      	subs	r3, #1
 8006ac8:	4a0b      	ldr	r2, [pc, #44]	@ (8006af8 <prvCheckTasksWaitingTermination+0x54>)
 8006aca:	6013      	str	r3, [r2, #0]
				--uxDeletedTasksWaitingCleanUp;
 8006acc:	4b0b      	ldr	r3, [pc, #44]	@ (8006afc <prvCheckTasksWaitingTermination+0x58>)
 8006ace:	681b      	ldr	r3, [r3, #0]
 8006ad0:	3b01      	subs	r3, #1
 8006ad2:	4a0a      	ldr	r2, [pc, #40]	@ (8006afc <prvCheckTasksWaitingTermination+0x58>)
 8006ad4:	6013      	str	r3, [r2, #0]
			}
			taskEXIT_CRITICAL();
 8006ad6:	f000 fec7 	bl	8007868 <vPortExitCritical>

			prvDeleteTCB( pxTCB );
 8006ada:	6878      	ldr	r0, [r7, #4]
 8006adc:	f000 f810 	bl	8006b00 <prvDeleteTCB>
		while( uxDeletedTasksWaitingCleanUp > ( UBaseType_t ) 0U )
 8006ae0:	4b06      	ldr	r3, [pc, #24]	@ (8006afc <prvCheckTasksWaitingTermination+0x58>)
 8006ae2:	681b      	ldr	r3, [r3, #0]
 8006ae4:	2b00      	cmp	r3, #0
 8006ae6:	d1e1      	bne.n	8006aac <prvCheckTasksWaitingTermination+0x8>
		}
	}
	#endif /* INCLUDE_vTaskDelete */
}
 8006ae8:	bf00      	nop
 8006aea:	bf00      	nop
 8006aec:	3708      	adds	r7, #8
 8006aee:	46bd      	mov	sp, r7
 8006af0:	bd80      	pop	{r7, pc}
 8006af2:	bf00      	nop
 8006af4:	20000e20 	.word	0x20000e20
 8006af8:	20000e4c 	.word	0x20000e4c
 8006afc:	20000e34 	.word	0x20000e34

08006b00 <prvDeleteTCB>:
/*-----------------------------------------------------------*/

#if ( INCLUDE_vTaskDelete == 1 )

	static void prvDeleteTCB( TCB_t *pxTCB )
	{
 8006b00:	b580      	push	{r7, lr}
 8006b02:	b084      	sub	sp, #16
 8006b04:	af00      	add	r7, sp, #0
 8006b06:	6078      	str	r0, [r7, #4]

		/* Free up the memory allocated by the scheduler for the task.  It is up
		to the task to free any memory allocated at the application level. */
		#if ( configUSE_NEWLIB_REENTRANT == 1 )
		{
			_reclaim_reent( &( pxTCB->xNewLib_reent ) );
 8006b08:	687b      	ldr	r3, [r7, #4]
 8006b0a:	3354      	adds	r3, #84	@ 0x54
 8006b0c:	4618      	mov	r0, r3
 8006b0e:	f001 f995 	bl	8007e3c <_reclaim_reent>
		#elif( tskSTATIC_AND_DYNAMIC_ALLOCATION_POSSIBLE != 0 ) /*lint !e731 !e9029 Macro has been consolidated for readability reasons. */
		{
			/* The task could have been allocated statically or dynamically, so
			check what was statically allocated before trying to free the
			memory. */
			if( pxTCB->ucStaticallyAllocated == tskDYNAMICALLY_ALLOCATED_STACK_AND_TCB )
 8006b12:	687b      	ldr	r3, [r7, #4]
 8006b14:	f893 30a5 	ldrb.w	r3, [r3, #165]	@ 0xa5
 8006b18:	2b00      	cmp	r3, #0
 8006b1a:	d108      	bne.n	8006b2e <prvDeleteTCB+0x2e>
			{
				/* Both the stack and TCB were allocated dynamically, so both
				must be freed. */
				vPortFree( pxTCB->pxStack );
 8006b1c:	687b      	ldr	r3, [r7, #4]
 8006b1e:	6b1b      	ldr	r3, [r3, #48]	@ 0x30
 8006b20:	4618      	mov	r0, r3
 8006b22:	f001 f867 	bl	8007bf4 <vPortFree>
				vPortFree( pxTCB );
 8006b26:	6878      	ldr	r0, [r7, #4]
 8006b28:	f001 f864 	bl	8007bf4 <vPortFree>
				configASSERT( pxTCB->ucStaticallyAllocated == tskSTATICALLY_ALLOCATED_STACK_AND_TCB	);
				mtCOVERAGE_TEST_MARKER();
			}
		}
		#endif /* configSUPPORT_DYNAMIC_ALLOCATION */
	}
 8006b2c:	e01b      	b.n	8006b66 <prvDeleteTCB+0x66>
			else if( pxTCB->ucStaticallyAllocated == tskSTATICALLY_ALLOCATED_STACK_ONLY )
 8006b2e:	687b      	ldr	r3, [r7, #4]
 8006b30:	f893 30a5 	ldrb.w	r3, [r3, #165]	@ 0xa5
 8006b34:	2b01      	cmp	r3, #1
 8006b36:	d103      	bne.n	8006b40 <prvDeleteTCB+0x40>
				vPortFree( pxTCB );
 8006b38:	6878      	ldr	r0, [r7, #4]
 8006b3a:	f001 f85b 	bl	8007bf4 <vPortFree>
	}
 8006b3e:	e012      	b.n	8006b66 <prvDeleteTCB+0x66>
				configASSERT( pxTCB->ucStaticallyAllocated == tskSTATICALLY_ALLOCATED_STACK_AND_TCB	);
 8006b40:	687b      	ldr	r3, [r7, #4]
 8006b42:	f893 30a5 	ldrb.w	r3, [r3, #165]	@ 0xa5
 8006b46:	2b02      	cmp	r3, #2
 8006b48:	d00d      	beq.n	8006b66 <prvDeleteTCB+0x66>
	__asm volatile
 8006b4a:	f04f 0350 	mov.w	r3, #80	@ 0x50
 8006b4e:	b672      	cpsid	i
 8006b50:	f383 8811 	msr	BASEPRI, r3
 8006b54:	f3bf 8f6f 	isb	sy
 8006b58:	f3bf 8f4f 	dsb	sy
 8006b5c:	b662      	cpsie	i
 8006b5e:	60fb      	str	r3, [r7, #12]
}
 8006b60:	bf00      	nop
 8006b62:	bf00      	nop
 8006b64:	e7fd      	b.n	8006b62 <prvDeleteTCB+0x62>
	}
 8006b66:	bf00      	nop
 8006b68:	3710      	adds	r7, #16
 8006b6a:	46bd      	mov	sp, r7
 8006b6c:	bd80      	pop	{r7, pc}
	...

08006b70 <prvResetNextTaskUnblockTime>:

#endif /* INCLUDE_vTaskDelete */
/*-----------------------------------------------------------*/

static void prvResetNextTaskUnblockTime( void )
{
 8006b70:	b480      	push	{r7}
 8006b72:	b083      	sub	sp, #12
 8006b74:	af00      	add	r7, sp, #0
TCB_t *pxTCB;

	if( listLIST_IS_EMPTY( pxDelayedTaskList ) != pdFALSE )
 8006b76:	4b0c      	ldr	r3, [pc, #48]	@ (8006ba8 <prvResetNextTaskUnblockTime+0x38>)
 8006b78:	681b      	ldr	r3, [r3, #0]
 8006b7a:	681b      	ldr	r3, [r3, #0]
 8006b7c:	2b00      	cmp	r3, #0
 8006b7e:	d104      	bne.n	8006b8a <prvResetNextTaskUnblockTime+0x1a>
	{
		/* The new current delayed list is empty.  Set xNextTaskUnblockTime to
		the maximum possible value so it is	extremely unlikely that the
		if( xTickCount >= xNextTaskUnblockTime ) test will pass until
		there is an item in the delayed list. */
		xNextTaskUnblockTime = portMAX_DELAY;
 8006b80:	4b0a      	ldr	r3, [pc, #40]	@ (8006bac <prvResetNextTaskUnblockTime+0x3c>)
 8006b82:	f04f 32ff 	mov.w	r2, #4294967295
 8006b86:	601a      	str	r2, [r3, #0]
		which the task at the head of the delayed list should be removed
		from the Blocked state. */
		( pxTCB ) = listGET_OWNER_OF_HEAD_ENTRY( pxDelayedTaskList ); /*lint !e9079 void * is used as this macro is used with timers and co-routines too.  Alignment is known to be fine as the type of the pointer stored and retrieved is the same. */
		xNextTaskUnblockTime = listGET_LIST_ITEM_VALUE( &( ( pxTCB )->xStateListItem ) );
	}
}
 8006b88:	e008      	b.n	8006b9c <prvResetNextTaskUnblockTime+0x2c>
		( pxTCB ) = listGET_OWNER_OF_HEAD_ENTRY( pxDelayedTaskList ); /*lint !e9079 void * is used as this macro is used with timers and co-routines too.  Alignment is known to be fine as the type of the pointer stored and retrieved is the same. */
 8006b8a:	4b07      	ldr	r3, [pc, #28]	@ (8006ba8 <prvResetNextTaskUnblockTime+0x38>)
 8006b8c:	681b      	ldr	r3, [r3, #0]
 8006b8e:	68db      	ldr	r3, [r3, #12]
 8006b90:	68db      	ldr	r3, [r3, #12]
 8006b92:	607b      	str	r3, [r7, #4]
		xNextTaskUnblockTime = listGET_LIST_ITEM_VALUE( &( ( pxTCB )->xStateListItem ) );
 8006b94:	687b      	ldr	r3, [r7, #4]
 8006b96:	685b      	ldr	r3, [r3, #4]
 8006b98:	4a04      	ldr	r2, [pc, #16]	@ (8006bac <prvResetNextTaskUnblockTime+0x3c>)
 8006b9a:	6013      	str	r3, [r2, #0]
}
 8006b9c:	bf00      	nop
 8006b9e:	370c      	adds	r7, #12
 8006ba0:	46bd      	mov	sp, r7
 8006ba2:	f85d 7b04 	ldr.w	r7, [sp], #4
 8006ba6:	4770      	bx	lr
 8006ba8:	20000e04 	.word	0x20000e04
 8006bac:	20000e6c 	.word	0x20000e6c

08006bb0 <xTaskGetSchedulerState>:
/*-----------------------------------------------------------*/

#if ( ( INCLUDE_xTaskGetSchedulerState == 1 ) || ( configUSE_TIMERS == 1 ) )

	BaseType_t xTaskGetSchedulerState( void )
	{
 8006bb0:	b480      	push	{r7}
 8006bb2:	b083      	sub	sp, #12
 8006bb4:	af00      	add	r7, sp, #0
	BaseType_t xReturn;

		if( xSchedulerRunning == pdFALSE )
 8006bb6:	4b0b      	ldr	r3, [pc, #44]	@ (8006be4 <xTaskGetSchedulerState+0x34>)
 8006bb8:	681b      	ldr	r3, [r3, #0]
 8006bba:	2b00      	cmp	r3, #0
 8006bbc:	d102      	bne.n	8006bc4 <xTaskGetSchedulerState+0x14>
		{
			xReturn = taskSCHEDULER_NOT_STARTED;
 8006bbe:	2301      	movs	r3, #1
 8006bc0:	607b      	str	r3, [r7, #4]
 8006bc2:	e008      	b.n	8006bd6 <xTaskGetSchedulerState+0x26>
		}
		else
		{
			if( uxSchedulerSuspended == ( UBaseType_t ) pdFALSE )
 8006bc4:	4b08      	ldr	r3, [pc, #32]	@ (8006be8 <xTaskGetSchedulerState+0x38>)
 8006bc6:	681b      	ldr	r3, [r3, #0]
 8006bc8:	2b00      	cmp	r3, #0
 8006bca:	d102      	bne.n	8006bd2 <xTaskGetSchedulerState+0x22>
			{
				xReturn = taskSCHEDULER_RUNNING;
 8006bcc:	2302      	movs	r3, #2
 8006bce:	607b      	str	r3, [r7, #4]
 8006bd0:	e001      	b.n	8006bd6 <xTaskGetSchedulerState+0x26>
			}
			else
			{
				xReturn = taskSCHEDULER_SUSPENDED;
 8006bd2:	2300      	movs	r3, #0
 8006bd4:	607b      	str	r3, [r7, #4]
			}
		}

		return xReturn;
 8006bd6:	687b      	ldr	r3, [r7, #4]
	}
 8006bd8:	4618      	mov	r0, r3
 8006bda:	370c      	adds	r7, #12
 8006bdc:	46bd      	mov	sp, r7
 8006bde:	f85d 7b04 	ldr.w	r7, [sp], #4
 8006be2:	4770      	bx	lr
 8006be4:	20000e58 	.word	0x20000e58
 8006be8:	20000e74 	.word	0x20000e74

08006bec <xTaskPriorityDisinherit>:
/*-----------------------------------------------------------*/

#if ( configUSE_MUTEXES == 1 )

	BaseType_t xTaskPriorityDisinherit( TaskHandle_t const pxMutexHolder )
	{
 8006bec:	b580      	push	{r7, lr}
 8006bee:	b086      	sub	sp, #24
 8006bf0:	af00      	add	r7, sp, #0
 8006bf2:	6078      	str	r0, [r7, #4]
	TCB_t * const pxTCB = pxMutexHolder;
 8006bf4:	687b      	ldr	r3, [r7, #4]
 8006bf6:	613b      	str	r3, [r7, #16]
	BaseType_t xReturn = pdFALSE;
 8006bf8:	2300      	movs	r3, #0
 8006bfa:	617b      	str	r3, [r7, #20]

		if( pxMutexHolder != NULL )
 8006bfc:	687b      	ldr	r3, [r7, #4]
 8006bfe:	2b00      	cmp	r3, #0
 8006c00:	d05c      	beq.n	8006cbc <xTaskPriorityDisinherit+0xd0>
		{
			/* A task can only have an inherited priority if it holds the mutex.
			If the mutex is held by a task then it cannot be given from an
			interrupt, and if a mutex is given by the holding task then it must
			be the running state task. */
			configASSERT( pxTCB == pxCurrentTCB );
 8006c02:	4b31      	ldr	r3, [pc, #196]	@ (8006cc8 <xTaskPriorityDisinherit+0xdc>)
 8006c04:	681b      	ldr	r3, [r3, #0]
 8006c06:	693a      	ldr	r2, [r7, #16]
 8006c08:	429a      	cmp	r2, r3
 8006c0a:	d00d      	beq.n	8006c28 <xTaskPriorityDisinherit+0x3c>
	__asm volatile
 8006c0c:	f04f 0350 	mov.w	r3, #80	@ 0x50
 8006c10:	b672      	cpsid	i
 8006c12:	f383 8811 	msr	BASEPRI, r3
 8006c16:	f3bf 8f6f 	isb	sy
 8006c1a:	f3bf 8f4f 	dsb	sy
 8006c1e:	b662      	cpsie	i
 8006c20:	60fb      	str	r3, [r7, #12]
}
 8006c22:	bf00      	nop
 8006c24:	bf00      	nop
 8006c26:	e7fd      	b.n	8006c24 <xTaskPriorityDisinherit+0x38>
			configASSERT( pxTCB->uxMutexesHeld );
 8006c28:	693b      	ldr	r3, [r7, #16]
 8006c2a:	6d1b      	ldr	r3, [r3, #80]	@ 0x50
 8006c2c:	2b00      	cmp	r3, #0
 8006c2e:	d10d      	bne.n	8006c4c <xTaskPriorityDisinherit+0x60>
	__asm volatile
 8006c30:	f04f 0350 	mov.w	r3, #80	@ 0x50
 8006c34:	b672      	cpsid	i
 8006c36:	f383 8811 	msr	BASEPRI, r3
 8006c3a:	f3bf 8f6f 	isb	sy
 8006c3e:	f3bf 8f4f 	dsb	sy
 8006c42:	b662      	cpsie	i
 8006c44:	60bb      	str	r3, [r7, #8]
}
 8006c46:	bf00      	nop
 8006c48:	bf00      	nop
 8006c4a:	e7fd      	b.n	8006c48 <xTaskPriorityDisinherit+0x5c>
			( pxTCB->uxMutexesHeld )--;
 8006c4c:	693b      	ldr	r3, [r7, #16]
 8006c4e:	6d1b      	ldr	r3, [r3, #80]	@ 0x50
 8006c50:	1e5a      	subs	r2, r3, #1
 8006c52:	693b      	ldr	r3, [r7, #16]
 8006c54:	651a      	str	r2, [r3, #80]	@ 0x50

			/* Has the holder of the mutex inherited the priority of another
			task? */
			if( pxTCB->uxPriority != pxTCB->uxBasePriority )
 8006c56:	693b      	ldr	r3, [r7, #16]
 8006c58:	6ada      	ldr	r2, [r3, #44]	@ 0x2c
 8006c5a:	693b      	ldr	r3, [r7, #16]
 8006c5c:	6cdb      	ldr	r3, [r3, #76]	@ 0x4c
 8006c5e:	429a      	cmp	r2, r3
 8006c60:	d02c      	beq.n	8006cbc <xTaskPriorityDisinherit+0xd0>
			{
				/* Only disinherit if no other mutexes are held. */
				if( pxTCB->uxMutexesHeld == ( UBaseType_t ) 0 )
 8006c62:	693b      	ldr	r3, [r7, #16]
 8006c64:	6d1b      	ldr	r3, [r3, #80]	@ 0x50
 8006c66:	2b00      	cmp	r3, #0
 8006c68:	d128      	bne.n	8006cbc <xTaskPriorityDisinherit+0xd0>
					/* A task can only have an inherited priority if it holds
					the mutex.  If the mutex is held by a task then it cannot be
					given from an interrupt, and if a mutex is given by the
					holding task then it must be the running state task.  Remove
					the holding task from the ready list. */
					if( uxListRemove( &( pxTCB->xStateListItem ) ) == ( UBaseType_t ) 0 )
 8006c6a:	693b      	ldr	r3, [r7, #16]
 8006c6c:	3304      	adds	r3, #4
 8006c6e:	4618      	mov	r0, r3
 8006c70:	f7fe fb52 	bl	8005318 <uxListRemove>
					}

					/* Disinherit the priority before adding the task into the
					new	ready list. */
					traceTASK_PRIORITY_DISINHERIT( pxTCB, pxTCB->uxBasePriority );
					pxTCB->uxPriority = pxTCB->uxBasePriority;
 8006c74:	693b      	ldr	r3, [r7, #16]
 8006c76:	6cda      	ldr	r2, [r3, #76]	@ 0x4c
 8006c78:	693b      	ldr	r3, [r7, #16]
 8006c7a:	62da      	str	r2, [r3, #44]	@ 0x2c

					/* Reset the event list item value.  It cannot be in use for
					any other purpose if this task is running, and it must be
					running to give back the mutex. */
					listSET_LIST_ITEM_VALUE( &( pxTCB->xEventListItem ), ( TickType_t ) configMAX_PRIORITIES - ( TickType_t ) pxTCB->uxPriority ); /*lint !e961 MISRA exception as the casts are only redundant for some ports. */
 8006c7c:	693b      	ldr	r3, [r7, #16]
 8006c7e:	6adb      	ldr	r3, [r3, #44]	@ 0x2c
 8006c80:	f1c3 0238 	rsb	r2, r3, #56	@ 0x38
 8006c84:	693b      	ldr	r3, [r7, #16]
 8006c86:	619a      	str	r2, [r3, #24]
					prvAddTaskToReadyList( pxTCB );
 8006c88:	693b      	ldr	r3, [r7, #16]
 8006c8a:	6ada      	ldr	r2, [r3, #44]	@ 0x2c
 8006c8c:	4b0f      	ldr	r3, [pc, #60]	@ (8006ccc <xTaskPriorityDisinherit+0xe0>)
 8006c8e:	681b      	ldr	r3, [r3, #0]
 8006c90:	429a      	cmp	r2, r3
 8006c92:	d903      	bls.n	8006c9c <xTaskPriorityDisinherit+0xb0>
 8006c94:	693b      	ldr	r3, [r7, #16]
 8006c96:	6adb      	ldr	r3, [r3, #44]	@ 0x2c
 8006c98:	4a0c      	ldr	r2, [pc, #48]	@ (8006ccc <xTaskPriorityDisinherit+0xe0>)
 8006c9a:	6013      	str	r3, [r2, #0]
 8006c9c:	693b      	ldr	r3, [r7, #16]
 8006c9e:	6ada      	ldr	r2, [r3, #44]	@ 0x2c
 8006ca0:	4613      	mov	r3, r2
 8006ca2:	009b      	lsls	r3, r3, #2
 8006ca4:	4413      	add	r3, r2
 8006ca6:	009b      	lsls	r3, r3, #2
 8006ca8:	4a09      	ldr	r2, [pc, #36]	@ (8006cd0 <xTaskPriorityDisinherit+0xe4>)
 8006caa:	441a      	add	r2, r3
 8006cac:	693b      	ldr	r3, [r7, #16]
 8006cae:	3304      	adds	r3, #4
 8006cb0:	4619      	mov	r1, r3
 8006cb2:	4610      	mov	r0, r2
 8006cb4:	f7fe fad3 	bl	800525e <vListInsertEnd>
					in an order different to that in which they were taken.
					If a context switch did not occur when the first mutex was
					returned, even if a task was waiting on it, then a context
					switch should occur when the last mutex is returned whether
					a task is waiting on it or not. */
					xReturn = pdTRUE;
 8006cb8:	2301      	movs	r3, #1
 8006cba:	617b      	str	r3, [r7, #20]
		else
		{
			mtCOVERAGE_TEST_MARKER();
		}

		return xReturn;
 8006cbc:	697b      	ldr	r3, [r7, #20]
	}
 8006cbe:	4618      	mov	r0, r3
 8006cc0:	3718      	adds	r7, #24
 8006cc2:	46bd      	mov	sp, r7
 8006cc4:	bd80      	pop	{r7, pc}
 8006cc6:	bf00      	nop
 8006cc8:	20000978 	.word	0x20000978
 8006ccc:	20000e54 	.word	0x20000e54
 8006cd0:	2000097c 	.word	0x2000097c

08006cd4 <prvAddCurrentTaskToDelayedList>:
	}
#endif
/*-----------------------------------------------------------*/

static void prvAddCurrentTaskToDelayedList( TickType_t xTicksToWait, const BaseType_t xCanBlockIndefinitely )
{
 8006cd4:	b580      	push	{r7, lr}
 8006cd6:	b084      	sub	sp, #16
 8006cd8:	af00      	add	r7, sp, #0
 8006cda:	6078      	str	r0, [r7, #4]
 8006cdc:	6039      	str	r1, [r7, #0]
TickType_t xTimeToWake;
const TickType_t xConstTickCount = xTickCount;
 8006cde:	4b21      	ldr	r3, [pc, #132]	@ (8006d64 <prvAddCurrentTaskToDelayedList+0x90>)
 8006ce0:	681b      	ldr	r3, [r3, #0]
 8006ce2:	60fb      	str	r3, [r7, #12]
	}
	#endif

	/* Remove the task from the ready list before adding it to the blocked list
	as the same list item is used for both lists. */
	if( uxListRemove( &( pxCurrentTCB->xStateListItem ) ) == ( UBaseType_t ) 0 )
 8006ce4:	4b20      	ldr	r3, [pc, #128]	@ (8006d68 <prvAddCurrentTaskToDelayedList+0x94>)
 8006ce6:	681b      	ldr	r3, [r3, #0]
 8006ce8:	3304      	adds	r3, #4
 8006cea:	4618      	mov	r0, r3
 8006cec:	f7fe fb14 	bl	8005318 <uxListRemove>
		mtCOVERAGE_TEST_MARKER();
	}

	#if ( INCLUDE_vTaskSuspend == 1 )
	{
		if( ( xTicksToWait == portMAX_DELAY ) && ( xCanBlockIndefinitely != pdFALSE ) )
 8006cf0:	687b      	ldr	r3, [r7, #4]
 8006cf2:	f1b3 3fff 	cmp.w	r3, #4294967295
 8006cf6:	d10a      	bne.n	8006d0e <prvAddCurrentTaskToDelayedList+0x3a>
 8006cf8:	683b      	ldr	r3, [r7, #0]
 8006cfa:	2b00      	cmp	r3, #0
 8006cfc:	d007      	beq.n	8006d0e <prvAddCurrentTaskToDelayedList+0x3a>
		{
			/* Add the task to the suspended task list instead of a delayed task
			list to ensure it is not woken by a timing event.  It will block
			indefinitely. */
			vListInsertEnd( &xSuspendedTaskList, &( pxCurrentTCB->xStateListItem ) );
 8006cfe:	4b1a      	ldr	r3, [pc, #104]	@ (8006d68 <prvAddCurrentTaskToDelayedList+0x94>)
 8006d00:	681b      	ldr	r3, [r3, #0]
 8006d02:	3304      	adds	r3, #4
 8006d04:	4619      	mov	r1, r3
 8006d06:	4819      	ldr	r0, [pc, #100]	@ (8006d6c <prvAddCurrentTaskToDelayedList+0x98>)
 8006d08:	f7fe faa9 	bl	800525e <vListInsertEnd>

		/* Avoid compiler warning when INCLUDE_vTaskSuspend is not 1. */
		( void ) xCanBlockIndefinitely;
	}
	#endif /* INCLUDE_vTaskSuspend */
}
 8006d0c:	e026      	b.n	8006d5c <prvAddCurrentTaskToDelayedList+0x88>
			xTimeToWake = xConstTickCount + xTicksToWait;
 8006d0e:	68fa      	ldr	r2, [r7, #12]
 8006d10:	687b      	ldr	r3, [r7, #4]
 8006d12:	4413      	add	r3, r2
 8006d14:	60bb      	str	r3, [r7, #8]
			listSET_LIST_ITEM_VALUE( &( pxCurrentTCB->xStateListItem ), xTimeToWake );
 8006d16:	4b14      	ldr	r3, [pc, #80]	@ (8006d68 <prvAddCurrentTaskToDelayedList+0x94>)
 8006d18:	681b      	ldr	r3, [r3, #0]
 8006d1a:	68ba      	ldr	r2, [r7, #8]
 8006d1c:	605a      	str	r2, [r3, #4]
			if( xTimeToWake < xConstTickCount )
 8006d1e:	68ba      	ldr	r2, [r7, #8]
 8006d20:	68fb      	ldr	r3, [r7, #12]
 8006d22:	429a      	cmp	r2, r3
 8006d24:	d209      	bcs.n	8006d3a <prvAddCurrentTaskToDelayedList+0x66>
				vListInsert( pxOverflowDelayedTaskList, &( pxCurrentTCB->xStateListItem ) );
 8006d26:	4b12      	ldr	r3, [pc, #72]	@ (8006d70 <prvAddCurrentTaskToDelayedList+0x9c>)
 8006d28:	681a      	ldr	r2, [r3, #0]
 8006d2a:	4b0f      	ldr	r3, [pc, #60]	@ (8006d68 <prvAddCurrentTaskToDelayedList+0x94>)
 8006d2c:	681b      	ldr	r3, [r3, #0]
 8006d2e:	3304      	adds	r3, #4
 8006d30:	4619      	mov	r1, r3
 8006d32:	4610      	mov	r0, r2
 8006d34:	f7fe fab7 	bl	80052a6 <vListInsert>
}
 8006d38:	e010      	b.n	8006d5c <prvAddCurrentTaskToDelayedList+0x88>
				vListInsert( pxDelayedTaskList, &( pxCurrentTCB->xStateListItem ) );
 8006d3a:	4b0e      	ldr	r3, [pc, #56]	@ (8006d74 <prvAddCurrentTaskToDelayedList+0xa0>)
 8006d3c:	681a      	ldr	r2, [r3, #0]
 8006d3e:	4b0a      	ldr	r3, [pc, #40]	@ (8006d68 <prvAddCurrentTaskToDelayedList+0x94>)
 8006d40:	681b      	ldr	r3, [r3, #0]
 8006d42:	3304      	adds	r3, #4
 8006d44:	4619      	mov	r1, r3
 8006d46:	4610      	mov	r0, r2
 8006d48:	f7fe faad 	bl	80052a6 <vListInsert>
				if( xTimeToWake < xNextTaskUnblockTime )
 8006d4c:	4b0a      	ldr	r3, [pc, #40]	@ (8006d78 <prvAddCurrentTaskToDelayedList+0xa4>)
 8006d4e:	681b      	ldr	r3, [r3, #0]
 8006d50:	68ba      	ldr	r2, [r7, #8]
 8006d52:	429a      	cmp	r2, r3
 8006d54:	d202      	bcs.n	8006d5c <prvAddCurrentTaskToDelayedList+0x88>
					xNextTaskUnblockTime = xTimeToWake;
 8006d56:	4a08      	ldr	r2, [pc, #32]	@ (8006d78 <prvAddCurrentTaskToDelayedList+0xa4>)
 8006d58:	68bb      	ldr	r3, [r7, #8]
 8006d5a:	6013      	str	r3, [r2, #0]
}
 8006d5c:	bf00      	nop
 8006d5e:	3710      	adds	r7, #16
 8006d60:	46bd      	mov	sp, r7
 8006d62:	bd80      	pop	{r7, pc}
 8006d64:	20000e50 	.word	0x20000e50
 8006d68:	20000978 	.word	0x20000978
 8006d6c:	20000e38 	.word	0x20000e38
 8006d70:	20000e08 	.word	0x20000e08
 8006d74:	20000e04 	.word	0x20000e04
 8006d78:	20000e6c 	.word	0x20000e6c

08006d7c <xTimerCreateTimerTask>:
									TimerCallbackFunction_t pxCallbackFunction,
									Timer_t *pxNewTimer ) PRIVILEGED_FUNCTION;
/*-----------------------------------------------------------*/

BaseType_t xTimerCreateTimerTask( void )
{
 8006d7c:	b580      	push	{r7, lr}
 8006d7e:	b08a      	sub	sp, #40	@ 0x28
 8006d80:	af04      	add	r7, sp, #16
BaseType_t xReturn = pdFAIL;
 8006d82:	2300      	movs	r3, #0
 8006d84:	617b      	str	r3, [r7, #20]

	/* This function is called when the scheduler is started if
	configUSE_TIMERS is set to 1.  Check that the infrastructure used by the
	timer service task has been created/initialised.  If timers have already
	been created then the initialisation will already have been performed. */
	prvCheckForValidListAndQueue();
 8006d86:	f000 fbc5 	bl	8007514 <prvCheckForValidListAndQueue>

	if( xTimerQueue != NULL )
 8006d8a:	4b1e      	ldr	r3, [pc, #120]	@ (8006e04 <xTimerCreateTimerTask+0x88>)
 8006d8c:	681b      	ldr	r3, [r3, #0]
 8006d8e:	2b00      	cmp	r3, #0
 8006d90:	d021      	beq.n	8006dd6 <xTimerCreateTimerTask+0x5a>
	{
		#if( configSUPPORT_STATIC_ALLOCATION == 1 )
		{
			StaticTask_t *pxTimerTaskTCBBuffer = NULL;
 8006d92:	2300      	movs	r3, #0
 8006d94:	60fb      	str	r3, [r7, #12]
			StackType_t *pxTimerTaskStackBuffer = NULL;
 8006d96:	2300      	movs	r3, #0
 8006d98:	60bb      	str	r3, [r7, #8]
			uint32_t ulTimerTaskStackSize;

			vApplicationGetTimerTaskMemory( &pxTimerTaskTCBBuffer, &pxTimerTaskStackBuffer, &ulTimerTaskStackSize );
 8006d9a:	1d3a      	adds	r2, r7, #4
 8006d9c:	f107 0108 	add.w	r1, r7, #8
 8006da0:	f107 030c 	add.w	r3, r7, #12
 8006da4:	4618      	mov	r0, r3
 8006da6:	f7fe fa13 	bl	80051d0 <vApplicationGetTimerTaskMemory>
			xTimerTaskHandle = xTaskCreateStatic(	prvTimerTask,
 8006daa:	6879      	ldr	r1, [r7, #4]
 8006dac:	68bb      	ldr	r3, [r7, #8]
 8006dae:	68fa      	ldr	r2, [r7, #12]
 8006db0:	9202      	str	r2, [sp, #8]
 8006db2:	9301      	str	r3, [sp, #4]
 8006db4:	2306      	movs	r3, #6
 8006db6:	9300      	str	r3, [sp, #0]
 8006db8:	2300      	movs	r3, #0
 8006dba:	460a      	mov	r2, r1
 8006dbc:	4912      	ldr	r1, [pc, #72]	@ (8006e08 <xTimerCreateTimerTask+0x8c>)
 8006dbe:	4813      	ldr	r0, [pc, #76]	@ (8006e0c <xTimerCreateTimerTask+0x90>)
 8006dc0:	f7ff f87e 	bl	8005ec0 <xTaskCreateStatic>
 8006dc4:	4603      	mov	r3, r0
 8006dc6:	4a12      	ldr	r2, [pc, #72]	@ (8006e10 <xTimerCreateTimerTask+0x94>)
 8006dc8:	6013      	str	r3, [r2, #0]
													NULL,
													( ( UBaseType_t ) configTIMER_TASK_PRIORITY ) | portPRIVILEGE_BIT,
													pxTimerTaskStackBuffer,
													pxTimerTaskTCBBuffer );

			if( xTimerTaskHandle != NULL )
 8006dca:	4b11      	ldr	r3, [pc, #68]	@ (8006e10 <xTimerCreateTimerTask+0x94>)
 8006dcc:	681b      	ldr	r3, [r3, #0]
 8006dce:	2b00      	cmp	r3, #0
 8006dd0:	d001      	beq.n	8006dd6 <xTimerCreateTimerTask+0x5a>
			{
				xReturn = pdPASS;
 8006dd2:	2301      	movs	r3, #1
 8006dd4:	617b      	str	r3, [r7, #20]
	else
	{
		mtCOVERAGE_TEST_MARKER();
	}

	configASSERT( xReturn );
 8006dd6:	697b      	ldr	r3, [r7, #20]
 8006dd8:	2b00      	cmp	r3, #0
 8006dda:	d10d      	bne.n	8006df8 <xTimerCreateTimerTask+0x7c>
	__asm volatile
 8006ddc:	f04f 0350 	mov.w	r3, #80	@ 0x50
 8006de0:	b672      	cpsid	i
 8006de2:	f383 8811 	msr	BASEPRI, r3
 8006de6:	f3bf 8f6f 	isb	sy
 8006dea:	f3bf 8f4f 	dsb	sy
 8006dee:	b662      	cpsie	i
 8006df0:	613b      	str	r3, [r7, #16]
}
 8006df2:	bf00      	nop
 8006df4:	bf00      	nop
 8006df6:	e7fd      	b.n	8006df4 <xTimerCreateTimerTask+0x78>
	return xReturn;
 8006df8:	697b      	ldr	r3, [r7, #20]
}
 8006dfa:	4618      	mov	r0, r3
 8006dfc:	3718      	adds	r7, #24
 8006dfe:	46bd      	mov	sp, r7
 8006e00:	bd80      	pop	{r7, pc}
 8006e02:	bf00      	nop
 8006e04:	20000ea8 	.word	0x20000ea8
 8006e08:	080080a8 	.word	0x080080a8
 8006e0c:	0800709d 	.word	0x0800709d
 8006e10:	20000eac 	.word	0x20000eac

08006e14 <xTimerCreate>:
	TimerHandle_t xTimerCreate(	const char * const pcTimerName,			/*lint !e971 Unqualified char types are allowed for strings and single characters only. */
								const TickType_t xTimerPeriodInTicks,
								const UBaseType_t uxAutoReload,
								void * const pvTimerID,
								TimerCallbackFunction_t pxCallbackFunction )
	{
 8006e14:	b580      	push	{r7, lr}
 8006e16:	b088      	sub	sp, #32
 8006e18:	af02      	add	r7, sp, #8
 8006e1a:	60f8      	str	r0, [r7, #12]
 8006e1c:	60b9      	str	r1, [r7, #8]
 8006e1e:	607a      	str	r2, [r7, #4]
 8006e20:	603b      	str	r3, [r7, #0]
	Timer_t *pxNewTimer;

		pxNewTimer = ( Timer_t * ) pvPortMalloc( sizeof( Timer_t ) ); /*lint !e9087 !e9079 All values returned by pvPortMalloc() have at least the alignment required by the MCU's stack, and the first member of Timer_t is always a pointer to the timer's mame. */
 8006e22:	202c      	movs	r0, #44	@ 0x2c
 8006e24:	f000 fe18 	bl	8007a58 <pvPortMalloc>
 8006e28:	6178      	str	r0, [r7, #20]

		if( pxNewTimer != NULL )
 8006e2a:	697b      	ldr	r3, [r7, #20]
 8006e2c:	2b00      	cmp	r3, #0
 8006e2e:	d00d      	beq.n	8006e4c <xTimerCreate+0x38>
		{
			/* Status is thus far zero as the timer is not created statically
			and has not been started.  The autoreload bit may get set in
			prvInitialiseNewTimer. */
			pxNewTimer->ucStatus = 0x00;
 8006e30:	697b      	ldr	r3, [r7, #20]
 8006e32:	2200      	movs	r2, #0
 8006e34:	f883 2028 	strb.w	r2, [r3, #40]	@ 0x28
			prvInitialiseNewTimer( pcTimerName, xTimerPeriodInTicks, uxAutoReload, pvTimerID, pxCallbackFunction, pxNewTimer );
 8006e38:	697b      	ldr	r3, [r7, #20]
 8006e3a:	9301      	str	r3, [sp, #4]
 8006e3c:	6a3b      	ldr	r3, [r7, #32]
 8006e3e:	9300      	str	r3, [sp, #0]
 8006e40:	683b      	ldr	r3, [r7, #0]
 8006e42:	687a      	ldr	r2, [r7, #4]
 8006e44:	68b9      	ldr	r1, [r7, #8]
 8006e46:	68f8      	ldr	r0, [r7, #12]
 8006e48:	f000 f849 	bl	8006ede <prvInitialiseNewTimer>
		}

		return pxNewTimer;
 8006e4c:	697b      	ldr	r3, [r7, #20]
	}
 8006e4e:	4618      	mov	r0, r3
 8006e50:	3718      	adds	r7, #24
 8006e52:	46bd      	mov	sp, r7
 8006e54:	bd80      	pop	{r7, pc}

08006e56 <xTimerCreateStatic>:
										const TickType_t xTimerPeriodInTicks,
										const UBaseType_t uxAutoReload,
										void * const pvTimerID,
										TimerCallbackFunction_t pxCallbackFunction,
										StaticTimer_t *pxTimerBuffer )
	{
 8006e56:	b580      	push	{r7, lr}
 8006e58:	b08a      	sub	sp, #40	@ 0x28
 8006e5a:	af02      	add	r7, sp, #8
 8006e5c:	60f8      	str	r0, [r7, #12]
 8006e5e:	60b9      	str	r1, [r7, #8]
 8006e60:	607a      	str	r2, [r7, #4]
 8006e62:	603b      	str	r3, [r7, #0]
		#if( configASSERT_DEFINED == 1 )
		{
			/* Sanity check that the size of the structure used to declare a
			variable of type StaticTimer_t equals the size of the real timer
			structure. */
			volatile size_t xSize = sizeof( StaticTimer_t );
 8006e64:	232c      	movs	r3, #44	@ 0x2c
 8006e66:	613b      	str	r3, [r7, #16]
			configASSERT( xSize == sizeof( Timer_t ) );
 8006e68:	693b      	ldr	r3, [r7, #16]
 8006e6a:	2b2c      	cmp	r3, #44	@ 0x2c
 8006e6c:	d00d      	beq.n	8006e8a <xTimerCreateStatic+0x34>
	__asm volatile
 8006e6e:	f04f 0350 	mov.w	r3, #80	@ 0x50
 8006e72:	b672      	cpsid	i
 8006e74:	f383 8811 	msr	BASEPRI, r3
 8006e78:	f3bf 8f6f 	isb	sy
 8006e7c:	f3bf 8f4f 	dsb	sy
 8006e80:	b662      	cpsie	i
 8006e82:	61bb      	str	r3, [r7, #24]
}
 8006e84:	bf00      	nop
 8006e86:	bf00      	nop
 8006e88:	e7fd      	b.n	8006e86 <xTimerCreateStatic+0x30>
			( void ) xSize; /* Keeps lint quiet when configASSERT() is not defined. */
 8006e8a:	693b      	ldr	r3, [r7, #16]
		}
		#endif /* configASSERT_DEFINED */

		/* A pointer to a StaticTimer_t structure MUST be provided, use it. */
		configASSERT( pxTimerBuffer );
 8006e8c:	6afb      	ldr	r3, [r7, #44]	@ 0x2c
 8006e8e:	2b00      	cmp	r3, #0
 8006e90:	d10d      	bne.n	8006eae <xTimerCreateStatic+0x58>
	__asm volatile
 8006e92:	f04f 0350 	mov.w	r3, #80	@ 0x50
 8006e96:	b672      	cpsid	i
 8006e98:	f383 8811 	msr	BASEPRI, r3
 8006e9c:	f3bf 8f6f 	isb	sy
 8006ea0:	f3bf 8f4f 	dsb	sy
 8006ea4:	b662      	cpsie	i
 8006ea6:	617b      	str	r3, [r7, #20]
}
 8006ea8:	bf00      	nop
 8006eaa:	bf00      	nop
 8006eac:	e7fd      	b.n	8006eaa <xTimerCreateStatic+0x54>
		pxNewTimer = ( Timer_t * ) pxTimerBuffer; /*lint !e740 !e9087 StaticTimer_t is a pointer to a Timer_t, so guaranteed to be aligned and sized correctly (checked by an assert()), so this is safe. */
 8006eae:	6afb      	ldr	r3, [r7, #44]	@ 0x2c
 8006eb0:	61fb      	str	r3, [r7, #28]

		if( pxNewTimer != NULL )
 8006eb2:	69fb      	ldr	r3, [r7, #28]
 8006eb4:	2b00      	cmp	r3, #0
 8006eb6:	d00d      	beq.n	8006ed4 <xTimerCreateStatic+0x7e>
		{
			/* Timers can be created statically or dynamically so note this
			timer was created statically in case it is later deleted.  The
			autoreload bit may get set in prvInitialiseNewTimer(). */
			pxNewTimer->ucStatus = tmrSTATUS_IS_STATICALLY_ALLOCATED;
 8006eb8:	69fb      	ldr	r3, [r7, #28]
 8006eba:	2202      	movs	r2, #2
 8006ebc:	f883 2028 	strb.w	r2, [r3, #40]	@ 0x28

			prvInitialiseNewTimer( pcTimerName, xTimerPeriodInTicks, uxAutoReload, pvTimerID, pxCallbackFunction, pxNewTimer );
 8006ec0:	69fb      	ldr	r3, [r7, #28]
 8006ec2:	9301      	str	r3, [sp, #4]
 8006ec4:	6abb      	ldr	r3, [r7, #40]	@ 0x28
 8006ec6:	9300      	str	r3, [sp, #0]
 8006ec8:	683b      	ldr	r3, [r7, #0]
 8006eca:	687a      	ldr	r2, [r7, #4]
 8006ecc:	68b9      	ldr	r1, [r7, #8]
 8006ece:	68f8      	ldr	r0, [r7, #12]
 8006ed0:	f000 f805 	bl	8006ede <prvInitialiseNewTimer>
		}

		return pxNewTimer;
 8006ed4:	69fb      	ldr	r3, [r7, #28]
	}
 8006ed6:	4618      	mov	r0, r3
 8006ed8:	3720      	adds	r7, #32
 8006eda:	46bd      	mov	sp, r7
 8006edc:	bd80      	pop	{r7, pc}

08006ede <prvInitialiseNewTimer>:
									const TickType_t xTimerPeriodInTicks,
									const UBaseType_t uxAutoReload,
									void * const pvTimerID,
									TimerCallbackFunction_t pxCallbackFunction,
									Timer_t *pxNewTimer )
{
 8006ede:	b580      	push	{r7, lr}
 8006ee0:	b086      	sub	sp, #24
 8006ee2:	af00      	add	r7, sp, #0
 8006ee4:	60f8      	str	r0, [r7, #12]
 8006ee6:	60b9      	str	r1, [r7, #8]
 8006ee8:	607a      	str	r2, [r7, #4]
 8006eea:	603b      	str	r3, [r7, #0]
	/* 0 is not a valid value for xTimerPeriodInTicks. */
	configASSERT( ( xTimerPeriodInTicks > 0 ) );
 8006eec:	68bb      	ldr	r3, [r7, #8]
 8006eee:	2b00      	cmp	r3, #0
 8006ef0:	d10d      	bne.n	8006f0e <prvInitialiseNewTimer+0x30>
	__asm volatile
 8006ef2:	f04f 0350 	mov.w	r3, #80	@ 0x50
 8006ef6:	b672      	cpsid	i
 8006ef8:	f383 8811 	msr	BASEPRI, r3
 8006efc:	f3bf 8f6f 	isb	sy
 8006f00:	f3bf 8f4f 	dsb	sy
 8006f04:	b662      	cpsie	i
 8006f06:	617b      	str	r3, [r7, #20]
}
 8006f08:	bf00      	nop
 8006f0a:	bf00      	nop
 8006f0c:	e7fd      	b.n	8006f0a <prvInitialiseNewTimer+0x2c>

	if( pxNewTimer != NULL )
 8006f0e:	6a7b      	ldr	r3, [r7, #36]	@ 0x24
 8006f10:	2b00      	cmp	r3, #0
 8006f12:	d01e      	beq.n	8006f52 <prvInitialiseNewTimer+0x74>
	{
		/* Ensure the infrastructure used by the timer service task has been
		created/initialised. */
		prvCheckForValidListAndQueue();
 8006f14:	f000 fafe 	bl	8007514 <prvCheckForValidListAndQueue>

		/* Initialise the timer structure members using the function
		parameters. */
		pxNewTimer->pcTimerName = pcTimerName;
 8006f18:	6a7b      	ldr	r3, [r7, #36]	@ 0x24
 8006f1a:	68fa      	ldr	r2, [r7, #12]
 8006f1c:	601a      	str	r2, [r3, #0]
		pxNewTimer->xTimerPeriodInTicks = xTimerPeriodInTicks;
 8006f1e:	6a7b      	ldr	r3, [r7, #36]	@ 0x24
 8006f20:	68ba      	ldr	r2, [r7, #8]
 8006f22:	619a      	str	r2, [r3, #24]
		pxNewTimer->pvTimerID = pvTimerID;
 8006f24:	6a7b      	ldr	r3, [r7, #36]	@ 0x24
 8006f26:	683a      	ldr	r2, [r7, #0]
 8006f28:	61da      	str	r2, [r3, #28]
		pxNewTimer->pxCallbackFunction = pxCallbackFunction;
 8006f2a:	6a7b      	ldr	r3, [r7, #36]	@ 0x24
 8006f2c:	6a3a      	ldr	r2, [r7, #32]
 8006f2e:	621a      	str	r2, [r3, #32]
		vListInitialiseItem( &( pxNewTimer->xTimerListItem ) );
 8006f30:	6a7b      	ldr	r3, [r7, #36]	@ 0x24
 8006f32:	3304      	adds	r3, #4
 8006f34:	4618      	mov	r0, r3
 8006f36:	f7fe f985 	bl	8005244 <vListInitialiseItem>
		if( uxAutoReload != pdFALSE )
 8006f3a:	687b      	ldr	r3, [r7, #4]
 8006f3c:	2b00      	cmp	r3, #0
 8006f3e:	d008      	beq.n	8006f52 <prvInitialiseNewTimer+0x74>
		{
			pxNewTimer->ucStatus |= tmrSTATUS_IS_AUTORELOAD;
 8006f40:	6a7b      	ldr	r3, [r7, #36]	@ 0x24
 8006f42:	f893 3028 	ldrb.w	r3, [r3, #40]	@ 0x28
 8006f46:	f043 0304 	orr.w	r3, r3, #4
 8006f4a:	b2da      	uxtb	r2, r3
 8006f4c:	6a7b      	ldr	r3, [r7, #36]	@ 0x24
 8006f4e:	f883 2028 	strb.w	r2, [r3, #40]	@ 0x28
		}
		traceTIMER_CREATE( pxNewTimer );
	}
}
 8006f52:	bf00      	nop
 8006f54:	3718      	adds	r7, #24
 8006f56:	46bd      	mov	sp, r7
 8006f58:	bd80      	pop	{r7, pc}
	...

08006f5c <xTimerGenericCommand>:
/*-----------------------------------------------------------*/

BaseType_t xTimerGenericCommand( TimerHandle_t xTimer, const BaseType_t xCommandID, const TickType_t xOptionalValue, BaseType_t * const pxHigherPriorityTaskWoken, const TickType_t xTicksToWait )
{
 8006f5c:	b580      	push	{r7, lr}
 8006f5e:	b08a      	sub	sp, #40	@ 0x28
 8006f60:	af00      	add	r7, sp, #0
 8006f62:	60f8      	str	r0, [r7, #12]
 8006f64:	60b9      	str	r1, [r7, #8]
 8006f66:	607a      	str	r2, [r7, #4]
 8006f68:	603b      	str	r3, [r7, #0]
BaseType_t xReturn = pdFAIL;
 8006f6a:	2300      	movs	r3, #0
 8006f6c:	627b      	str	r3, [r7, #36]	@ 0x24
DaemonTaskMessage_t xMessage;

	configASSERT( xTimer );
 8006f6e:	68fb      	ldr	r3, [r7, #12]
 8006f70:	2b00      	cmp	r3, #0
 8006f72:	d10d      	bne.n	8006f90 <xTimerGenericCommand+0x34>
	__asm volatile
 8006f74:	f04f 0350 	mov.w	r3, #80	@ 0x50
 8006f78:	b672      	cpsid	i
 8006f7a:	f383 8811 	msr	BASEPRI, r3
 8006f7e:	f3bf 8f6f 	isb	sy
 8006f82:	f3bf 8f4f 	dsb	sy
 8006f86:	b662      	cpsie	i
 8006f88:	623b      	str	r3, [r7, #32]
}
 8006f8a:	bf00      	nop
 8006f8c:	bf00      	nop
 8006f8e:	e7fd      	b.n	8006f8c <xTimerGenericCommand+0x30>

	/* Send a message to the timer service task to perform a particular action
	on a particular timer definition. */
	if( xTimerQueue != NULL )
 8006f90:	4b19      	ldr	r3, [pc, #100]	@ (8006ff8 <xTimerGenericCommand+0x9c>)
 8006f92:	681b      	ldr	r3, [r3, #0]
 8006f94:	2b00      	cmp	r3, #0
 8006f96:	d02a      	beq.n	8006fee <xTimerGenericCommand+0x92>
	{
		/* Send a command to the timer service task to start the xTimer timer. */
		xMessage.xMessageID = xCommandID;
 8006f98:	68bb      	ldr	r3, [r7, #8]
 8006f9a:	613b      	str	r3, [r7, #16]
		xMessage.u.xTimerParameters.xMessageValue = xOptionalValue;
 8006f9c:	687b      	ldr	r3, [r7, #4]
 8006f9e:	617b      	str	r3, [r7, #20]
		xMessage.u.xTimerParameters.pxTimer = xTimer;
 8006fa0:	68fb      	ldr	r3, [r7, #12]
 8006fa2:	61bb      	str	r3, [r7, #24]

		if( xCommandID < tmrFIRST_FROM_ISR_COMMAND )
 8006fa4:	68bb      	ldr	r3, [r7, #8]
 8006fa6:	2b05      	cmp	r3, #5
 8006fa8:	dc18      	bgt.n	8006fdc <xTimerGenericCommand+0x80>
		{
			if( xTaskGetSchedulerState() == taskSCHEDULER_RUNNING )
 8006faa:	f7ff fe01 	bl	8006bb0 <xTaskGetSchedulerState>
 8006fae:	4603      	mov	r3, r0
 8006fb0:	2b02      	cmp	r3, #2
 8006fb2:	d109      	bne.n	8006fc8 <xTimerGenericCommand+0x6c>
			{
				xReturn = xQueueSendToBack( xTimerQueue, &xMessage, xTicksToWait );
 8006fb4:	4b10      	ldr	r3, [pc, #64]	@ (8006ff8 <xTimerGenericCommand+0x9c>)
 8006fb6:	6818      	ldr	r0, [r3, #0]
 8006fb8:	f107 0110 	add.w	r1, r7, #16
 8006fbc:	2300      	movs	r3, #0
 8006fbe:	6b3a      	ldr	r2, [r7, #48]	@ 0x30
 8006fc0:	f7fe fb7a 	bl	80056b8 <xQueueGenericSend>
 8006fc4:	6278      	str	r0, [r7, #36]	@ 0x24
 8006fc6:	e012      	b.n	8006fee <xTimerGenericCommand+0x92>
			}
			else
			{
				xReturn = xQueueSendToBack( xTimerQueue, &xMessage, tmrNO_DELAY );
 8006fc8:	4b0b      	ldr	r3, [pc, #44]	@ (8006ff8 <xTimerGenericCommand+0x9c>)
 8006fca:	6818      	ldr	r0, [r3, #0]
 8006fcc:	f107 0110 	add.w	r1, r7, #16
 8006fd0:	2300      	movs	r3, #0
 8006fd2:	2200      	movs	r2, #0
 8006fd4:	f7fe fb70 	bl	80056b8 <xQueueGenericSend>
 8006fd8:	6278      	str	r0, [r7, #36]	@ 0x24
 8006fda:	e008      	b.n	8006fee <xTimerGenericCommand+0x92>
			}
		}
		else
		{
			xReturn = xQueueSendToBackFromISR( xTimerQueue, &xMessage, pxHigherPriorityTaskWoken );
 8006fdc:	4b06      	ldr	r3, [pc, #24]	@ (8006ff8 <xTimerGenericCommand+0x9c>)
 8006fde:	6818      	ldr	r0, [r3, #0]
 8006fe0:	f107 0110 	add.w	r1, r7, #16
 8006fe4:	2300      	movs	r3, #0
 8006fe6:	683a      	ldr	r2, [r7, #0]
 8006fe8:	f7fe fc70 	bl	80058cc <xQueueGenericSendFromISR>
 8006fec:	6278      	str	r0, [r7, #36]	@ 0x24
	else
	{
		mtCOVERAGE_TEST_MARKER();
	}

	return xReturn;
 8006fee:	6a7b      	ldr	r3, [r7, #36]	@ 0x24
}
 8006ff0:	4618      	mov	r0, r3
 8006ff2:	3728      	adds	r7, #40	@ 0x28
 8006ff4:	46bd      	mov	sp, r7
 8006ff6:	bd80      	pop	{r7, pc}
 8006ff8:	20000ea8 	.word	0x20000ea8

08006ffc <prvProcessExpiredTimer>:
	return pxTimer->pcTimerName;
}
/*-----------------------------------------------------------*/

static void prvProcessExpiredTimer( const TickType_t xNextExpireTime, const TickType_t xTimeNow )
{
 8006ffc:	b580      	push	{r7, lr}
 8006ffe:	b088      	sub	sp, #32
 8007000:	af02      	add	r7, sp, #8
 8007002:	6078      	str	r0, [r7, #4]
 8007004:	6039      	str	r1, [r7, #0]
BaseType_t xResult;
Timer_t * const pxTimer = ( Timer_t * ) listGET_OWNER_OF_HEAD_ENTRY( pxCurrentTimerList ); /*lint !e9087 !e9079 void * is used as this macro is used with tasks and co-routines too.  Alignment is known to be fine as the type of the pointer stored and retrieved is the same. */
 8007006:	4b24      	ldr	r3, [pc, #144]	@ (8007098 <prvProcessExpiredTimer+0x9c>)
 8007008:	681b      	ldr	r3, [r3, #0]
 800700a:	68db      	ldr	r3, [r3, #12]
 800700c:	68db      	ldr	r3, [r3, #12]
 800700e:	617b      	str	r3, [r7, #20]

	/* Remove the timer from the list of active timers.  A check has already
	been performed to ensure the list is not empty. */
	( void ) uxListRemove( &( pxTimer->xTimerListItem ) );
 8007010:	697b      	ldr	r3, [r7, #20]
 8007012:	3304      	adds	r3, #4
 8007014:	4618      	mov	r0, r3
 8007016:	f7fe f97f 	bl	8005318 <uxListRemove>
	traceTIMER_EXPIRED( pxTimer );

	/* If the timer is an auto reload timer then calculate the next
	expiry time and re-insert the timer in the list of active timers. */
	if( ( pxTimer->ucStatus & tmrSTATUS_IS_AUTORELOAD ) != 0 )
 800701a:	697b      	ldr	r3, [r7, #20]
 800701c:	f893 3028 	ldrb.w	r3, [r3, #40]	@ 0x28
 8007020:	f003 0304 	and.w	r3, r3, #4
 8007024:	2b00      	cmp	r3, #0
 8007026:	d025      	beq.n	8007074 <prvProcessExpiredTimer+0x78>
	{
		/* The timer is inserted into a list using a time relative to anything
		other than the current time.  It will therefore be inserted into the
		correct list relative to the time this task thinks it is now. */
		if( prvInsertTimerInActiveList( pxTimer, ( xNextExpireTime + pxTimer->xTimerPeriodInTicks ), xTimeNow, xNextExpireTime ) != pdFALSE )
 8007028:	697b      	ldr	r3, [r7, #20]
 800702a:	699a      	ldr	r2, [r3, #24]
 800702c:	687b      	ldr	r3, [r7, #4]
 800702e:	18d1      	adds	r1, r2, r3
 8007030:	687b      	ldr	r3, [r7, #4]
 8007032:	683a      	ldr	r2, [r7, #0]
 8007034:	6978      	ldr	r0, [r7, #20]
 8007036:	f000 f8d7 	bl	80071e8 <prvInsertTimerInActiveList>
 800703a:	4603      	mov	r3, r0
 800703c:	2b00      	cmp	r3, #0
 800703e:	d022      	beq.n	8007086 <prvProcessExpiredTimer+0x8a>
		{
			/* The timer expired before it was added to the active timer
			list.  Reload it now.  */
			xResult = xTimerGenericCommand( pxTimer, tmrCOMMAND_START_DONT_TRACE, xNextExpireTime, NULL, tmrNO_DELAY );
 8007040:	2300      	movs	r3, #0
 8007042:	9300      	str	r3, [sp, #0]
 8007044:	2300      	movs	r3, #0
 8007046:	687a      	ldr	r2, [r7, #4]
 8007048:	2100      	movs	r1, #0
 800704a:	6978      	ldr	r0, [r7, #20]
 800704c:	f7ff ff86 	bl	8006f5c <xTimerGenericCommand>
 8007050:	6138      	str	r0, [r7, #16]
			configASSERT( xResult );
 8007052:	693b      	ldr	r3, [r7, #16]
 8007054:	2b00      	cmp	r3, #0
 8007056:	d116      	bne.n	8007086 <prvProcessExpiredTimer+0x8a>
	__asm volatile
 8007058:	f04f 0350 	mov.w	r3, #80	@ 0x50
 800705c:	b672      	cpsid	i
 800705e:	f383 8811 	msr	BASEPRI, r3
 8007062:	f3bf 8f6f 	isb	sy
 8007066:	f3bf 8f4f 	dsb	sy
 800706a:	b662      	cpsie	i
 800706c:	60fb      	str	r3, [r7, #12]
}
 800706e:	bf00      	nop
 8007070:	bf00      	nop
 8007072:	e7fd      	b.n	8007070 <prvProcessExpiredTimer+0x74>
			mtCOVERAGE_TEST_MARKER();
		}
	}
	else
	{
		pxTimer->ucStatus &= ~tmrSTATUS_IS_ACTIVE;
 8007074:	697b      	ldr	r3, [r7, #20]
 8007076:	f893 3028 	ldrb.w	r3, [r3, #40]	@ 0x28
 800707a:	f023 0301 	bic.w	r3, r3, #1
 800707e:	b2da      	uxtb	r2, r3
 8007080:	697b      	ldr	r3, [r7, #20]
 8007082:	f883 2028 	strb.w	r2, [r3, #40]	@ 0x28
		mtCOVERAGE_TEST_MARKER();
	}

	/* Call the timer callback. */
	pxTimer->pxCallbackFunction( ( TimerHandle_t ) pxTimer );
 8007086:	697b      	ldr	r3, [r7, #20]
 8007088:	6a1b      	ldr	r3, [r3, #32]
 800708a:	6978      	ldr	r0, [r7, #20]
 800708c:	4798      	blx	r3
}
 800708e:	bf00      	nop
 8007090:	3718      	adds	r7, #24
 8007092:	46bd      	mov	sp, r7
 8007094:	bd80      	pop	{r7, pc}
 8007096:	bf00      	nop
 8007098:	20000ea0 	.word	0x20000ea0

0800709c <prvTimerTask>:
/*-----------------------------------------------------------*/

static portTASK_FUNCTION( prvTimerTask, pvParameters )
{
 800709c:	b580      	push	{r7, lr}
 800709e:	b084      	sub	sp, #16
 80070a0:	af00      	add	r7, sp, #0
 80070a2:	6078      	str	r0, [r7, #4]

	for( ;; )
	{
		/* Query the timers list to see if it contains any timers, and if so,
		obtain the time at which the next timer will expire. */
		xNextExpireTime = prvGetNextExpireTime( &xListWasEmpty );
 80070a4:	f107 0308 	add.w	r3, r7, #8
 80070a8:	4618      	mov	r0, r3
 80070aa:	f000 f859 	bl	8007160 <prvGetNextExpireTime>
 80070ae:	60f8      	str	r0, [r7, #12]

		/* If a timer has expired, process it.  Otherwise, block this task
		until either a timer does expire, or a command is received. */
		prvProcessTimerOrBlockTask( xNextExpireTime, xListWasEmpty );
 80070b0:	68bb      	ldr	r3, [r7, #8]
 80070b2:	4619      	mov	r1, r3
 80070b4:	68f8      	ldr	r0, [r7, #12]
 80070b6:	f000 f805 	bl	80070c4 <prvProcessTimerOrBlockTask>

		/* Empty the command queue. */
		prvProcessReceivedCommands();
 80070ba:	f000 f8d7 	bl	800726c <prvProcessReceivedCommands>
		xNextExpireTime = prvGetNextExpireTime( &xListWasEmpty );
 80070be:	bf00      	nop
 80070c0:	e7f0      	b.n	80070a4 <prvTimerTask+0x8>
	...

080070c4 <prvProcessTimerOrBlockTask>:
	}
}
/*-----------------------------------------------------------*/

static void prvProcessTimerOrBlockTask( const TickType_t xNextExpireTime, BaseType_t xListWasEmpty )
{
 80070c4:	b580      	push	{r7, lr}
 80070c6:	b084      	sub	sp, #16
 80070c8:	af00      	add	r7, sp, #0
 80070ca:	6078      	str	r0, [r7, #4]
 80070cc:	6039      	str	r1, [r7, #0]
TickType_t xTimeNow;
BaseType_t xTimerListsWereSwitched;

	vTaskSuspendAll();
 80070ce:	f7ff f969 	bl	80063a4 <vTaskSuspendAll>
		/* Obtain the time now to make an assessment as to whether the timer
		has expired or not.  If obtaining the time causes the lists to switch
		then don't process this timer as any timers that remained in the list
		when the lists were switched will have been processed within the
		prvSampleTimeNow() function. */
		xTimeNow = prvSampleTimeNow( &xTimerListsWereSwitched );
 80070d2:	f107 0308 	add.w	r3, r7, #8
 80070d6:	4618      	mov	r0, r3
 80070d8:	f000 f866 	bl	80071a8 <prvSampleTimeNow>
 80070dc:	60f8      	str	r0, [r7, #12]
		if( xTimerListsWereSwitched == pdFALSE )
 80070de:	68bb      	ldr	r3, [r7, #8]
 80070e0:	2b00      	cmp	r3, #0
 80070e2:	d130      	bne.n	8007146 <prvProcessTimerOrBlockTask+0x82>
		{
			/* The tick count has not overflowed, has the timer expired? */
			if( ( xListWasEmpty == pdFALSE ) && ( xNextExpireTime <= xTimeNow ) )
 80070e4:	683b      	ldr	r3, [r7, #0]
 80070e6:	2b00      	cmp	r3, #0
 80070e8:	d10a      	bne.n	8007100 <prvProcessTimerOrBlockTask+0x3c>
 80070ea:	687a      	ldr	r2, [r7, #4]
 80070ec:	68fb      	ldr	r3, [r7, #12]
 80070ee:	429a      	cmp	r2, r3
 80070f0:	d806      	bhi.n	8007100 <prvProcessTimerOrBlockTask+0x3c>
			{
				( void ) xTaskResumeAll();
 80070f2:	f7ff f965 	bl	80063c0 <xTaskResumeAll>
				prvProcessExpiredTimer( xNextExpireTime, xTimeNow );
 80070f6:	68f9      	ldr	r1, [r7, #12]
 80070f8:	6878      	ldr	r0, [r7, #4]
 80070fa:	f7ff ff7f 	bl	8006ffc <prvProcessExpiredTimer>
		else
		{
			( void ) xTaskResumeAll();
		}
	}
}
 80070fe:	e024      	b.n	800714a <prvProcessTimerOrBlockTask+0x86>
				if( xListWasEmpty != pdFALSE )
 8007100:	683b      	ldr	r3, [r7, #0]
 8007102:	2b00      	cmp	r3, #0
 8007104:	d008      	beq.n	8007118 <prvProcessTimerOrBlockTask+0x54>
					xListWasEmpty = listLIST_IS_EMPTY( pxOverflowTimerList );
 8007106:	4b13      	ldr	r3, [pc, #76]	@ (8007154 <prvProcessTimerOrBlockTask+0x90>)
 8007108:	681b      	ldr	r3, [r3, #0]
 800710a:	681b      	ldr	r3, [r3, #0]
 800710c:	2b00      	cmp	r3, #0
 800710e:	d101      	bne.n	8007114 <prvProcessTimerOrBlockTask+0x50>
 8007110:	2301      	movs	r3, #1
 8007112:	e000      	b.n	8007116 <prvProcessTimerOrBlockTask+0x52>
 8007114:	2300      	movs	r3, #0
 8007116:	603b      	str	r3, [r7, #0]
				vQueueWaitForMessageRestricted( xTimerQueue, ( xNextExpireTime - xTimeNow ), xListWasEmpty );
 8007118:	4b0f      	ldr	r3, [pc, #60]	@ (8007158 <prvProcessTimerOrBlockTask+0x94>)
 800711a:	6818      	ldr	r0, [r3, #0]
 800711c:	687a      	ldr	r2, [r7, #4]
 800711e:	68fb      	ldr	r3, [r7, #12]
 8007120:	1ad3      	subs	r3, r2, r3
 8007122:	683a      	ldr	r2, [r7, #0]
 8007124:	4619      	mov	r1, r3
 8007126:	f7fe fe97 	bl	8005e58 <vQueueWaitForMessageRestricted>
				if( xTaskResumeAll() == pdFALSE )
 800712a:	f7ff f949 	bl	80063c0 <xTaskResumeAll>
 800712e:	4603      	mov	r3, r0
 8007130:	2b00      	cmp	r3, #0
 8007132:	d10a      	bne.n	800714a <prvProcessTimerOrBlockTask+0x86>
					portYIELD_WITHIN_API();
 8007134:	4b09      	ldr	r3, [pc, #36]	@ (800715c <prvProcessTimerOrBlockTask+0x98>)
 8007136:	f04f 5280 	mov.w	r2, #268435456	@ 0x10000000
 800713a:	601a      	str	r2, [r3, #0]
 800713c:	f3bf 8f4f 	dsb	sy
 8007140:	f3bf 8f6f 	isb	sy
}
 8007144:	e001      	b.n	800714a <prvProcessTimerOrBlockTask+0x86>
			( void ) xTaskResumeAll();
 8007146:	f7ff f93b 	bl	80063c0 <xTaskResumeAll>
}
 800714a:	bf00      	nop
 800714c:	3710      	adds	r7, #16
 800714e:	46bd      	mov	sp, r7
 8007150:	bd80      	pop	{r7, pc}
 8007152:	bf00      	nop
 8007154:	20000ea4 	.word	0x20000ea4
 8007158:	20000ea8 	.word	0x20000ea8
 800715c:	e000ed04 	.word	0xe000ed04

08007160 <prvGetNextExpireTime>:
/*-----------------------------------------------------------*/

static TickType_t prvGetNextExpireTime( BaseType_t * const pxListWasEmpty )
{
 8007160:	b480      	push	{r7}
 8007162:	b085      	sub	sp, #20
 8007164:	af00      	add	r7, sp, #0
 8007166:	6078      	str	r0, [r7, #4]
	the timer with the nearest expiry time will expire.  If there are no
	active timers then just set the next expire time to 0.  That will cause
	this task to unblock when the tick count overflows, at which point the
	timer lists will be switched and the next expiry time can be
	re-assessed.  */
	*pxListWasEmpty = listLIST_IS_EMPTY( pxCurrentTimerList );
 8007168:	4b0e      	ldr	r3, [pc, #56]	@ (80071a4 <prvGetNextExpireTime+0x44>)
 800716a:	681b      	ldr	r3, [r3, #0]
 800716c:	681b      	ldr	r3, [r3, #0]
 800716e:	2b00      	cmp	r3, #0
 8007170:	d101      	bne.n	8007176 <prvGetNextExpireTime+0x16>
 8007172:	2201      	movs	r2, #1
 8007174:	e000      	b.n	8007178 <prvGetNextExpireTime+0x18>
 8007176:	2200      	movs	r2, #0
 8007178:	687b      	ldr	r3, [r7, #4]
 800717a:	601a      	str	r2, [r3, #0]
	if( *pxListWasEmpty == pdFALSE )
 800717c:	687b      	ldr	r3, [r7, #4]
 800717e:	681b      	ldr	r3, [r3, #0]
 8007180:	2b00      	cmp	r3, #0
 8007182:	d105      	bne.n	8007190 <prvGetNextExpireTime+0x30>
	{
		xNextExpireTime = listGET_ITEM_VALUE_OF_HEAD_ENTRY( pxCurrentTimerList );
 8007184:	4b07      	ldr	r3, [pc, #28]	@ (80071a4 <prvGetNextExpireTime+0x44>)
 8007186:	681b      	ldr	r3, [r3, #0]
 8007188:	68db      	ldr	r3, [r3, #12]
 800718a:	681b      	ldr	r3, [r3, #0]
 800718c:	60fb      	str	r3, [r7, #12]
 800718e:	e001      	b.n	8007194 <prvGetNextExpireTime+0x34>
	}
	else
	{
		/* Ensure the task unblocks when the tick count rolls over. */
		xNextExpireTime = ( TickType_t ) 0U;
 8007190:	2300      	movs	r3, #0
 8007192:	60fb      	str	r3, [r7, #12]
	}

	return xNextExpireTime;
 8007194:	68fb      	ldr	r3, [r7, #12]
}
 8007196:	4618      	mov	r0, r3
 8007198:	3714      	adds	r7, #20
 800719a:	46bd      	mov	sp, r7
 800719c:	f85d 7b04 	ldr.w	r7, [sp], #4
 80071a0:	4770      	bx	lr
 80071a2:	bf00      	nop
 80071a4:	20000ea0 	.word	0x20000ea0

080071a8 <prvSampleTimeNow>:
/*-----------------------------------------------------------*/

static TickType_t prvSampleTimeNow( BaseType_t * const pxTimerListsWereSwitched )
{
 80071a8:	b580      	push	{r7, lr}
 80071aa:	b084      	sub	sp, #16
 80071ac:	af00      	add	r7, sp, #0
 80071ae:	6078      	str	r0, [r7, #4]
TickType_t xTimeNow;
PRIVILEGED_DATA static TickType_t xLastTime = ( TickType_t ) 0U; /*lint !e956 Variable is only accessible to one task. */

	xTimeNow = xTaskGetTickCount();
 80071b0:	f7ff f9a6 	bl	8006500 <xTaskGetTickCount>
 80071b4:	60f8      	str	r0, [r7, #12]

	if( xTimeNow < xLastTime )
 80071b6:	4b0b      	ldr	r3, [pc, #44]	@ (80071e4 <prvSampleTimeNow+0x3c>)
 80071b8:	681b      	ldr	r3, [r3, #0]
 80071ba:	68fa      	ldr	r2, [r7, #12]
 80071bc:	429a      	cmp	r2, r3
 80071be:	d205      	bcs.n	80071cc <prvSampleTimeNow+0x24>
	{
		prvSwitchTimerLists();
 80071c0:	f000 f940 	bl	8007444 <prvSwitchTimerLists>
		*pxTimerListsWereSwitched = pdTRUE;
 80071c4:	687b      	ldr	r3, [r7, #4]
 80071c6:	2201      	movs	r2, #1
 80071c8:	601a      	str	r2, [r3, #0]
 80071ca:	e002      	b.n	80071d2 <prvSampleTimeNow+0x2a>
	}
	else
	{
		*pxTimerListsWereSwitched = pdFALSE;
 80071cc:	687b      	ldr	r3, [r7, #4]
 80071ce:	2200      	movs	r2, #0
 80071d0:	601a      	str	r2, [r3, #0]
	}

	xLastTime = xTimeNow;
 80071d2:	4a04      	ldr	r2, [pc, #16]	@ (80071e4 <prvSampleTimeNow+0x3c>)
 80071d4:	68fb      	ldr	r3, [r7, #12]
 80071d6:	6013      	str	r3, [r2, #0]

	return xTimeNow;
 80071d8:	68fb      	ldr	r3, [r7, #12]
}
 80071da:	4618      	mov	r0, r3
 80071dc:	3710      	adds	r7, #16
 80071de:	46bd      	mov	sp, r7
 80071e0:	bd80      	pop	{r7, pc}
 80071e2:	bf00      	nop
 80071e4:	20000eb0 	.word	0x20000eb0

080071e8 <prvInsertTimerInActiveList>:
/*-----------------------------------------------------------*/

static BaseType_t prvInsertTimerInActiveList( Timer_t * const pxTimer, const TickType_t xNextExpiryTime, const TickType_t xTimeNow, const TickType_t xCommandTime )
{
 80071e8:	b580      	push	{r7, lr}
 80071ea:	b086      	sub	sp, #24
 80071ec:	af00      	add	r7, sp, #0
 80071ee:	60f8      	str	r0, [r7, #12]
 80071f0:	60b9      	str	r1, [r7, #8]
 80071f2:	607a      	str	r2, [r7, #4]
 80071f4:	603b      	str	r3, [r7, #0]
BaseType_t xProcessTimerNow = pdFALSE;
 80071f6:	2300      	movs	r3, #0
 80071f8:	617b      	str	r3, [r7, #20]

	listSET_LIST_ITEM_VALUE( &( pxTimer->xTimerListItem ), xNextExpiryTime );
 80071fa:	68fb      	ldr	r3, [r7, #12]
 80071fc:	68ba      	ldr	r2, [r7, #8]
 80071fe:	605a      	str	r2, [r3, #4]
	listSET_LIST_ITEM_OWNER( &( pxTimer->xTimerListItem ), pxTimer );
 8007200:	68fb      	ldr	r3, [r7, #12]
 8007202:	68fa      	ldr	r2, [r7, #12]
 8007204:	611a      	str	r2, [r3, #16]

	if( xNextExpiryTime <= xTimeNow )
 8007206:	68ba      	ldr	r2, [r7, #8]
 8007208:	687b      	ldr	r3, [r7, #4]
 800720a:	429a      	cmp	r2, r3
 800720c:	d812      	bhi.n	8007234 <prvInsertTimerInActiveList+0x4c>
	{
		/* Has the expiry time elapsed between the command to start/reset a
		timer was issued, and the time the command was processed? */
		if( ( ( TickType_t ) ( xTimeNow - xCommandTime ) ) >= pxTimer->xTimerPeriodInTicks ) /*lint !e961 MISRA exception as the casts are only redundant for some ports. */
 800720e:	687a      	ldr	r2, [r7, #4]
 8007210:	683b      	ldr	r3, [r7, #0]
 8007212:	1ad2      	subs	r2, r2, r3
 8007214:	68fb      	ldr	r3, [r7, #12]
 8007216:	699b      	ldr	r3, [r3, #24]
 8007218:	429a      	cmp	r2, r3
 800721a:	d302      	bcc.n	8007222 <prvInsertTimerInActiveList+0x3a>
		{
			/* The time between a command being issued and the command being
			processed actually exceeds the timers period.  */
			xProcessTimerNow = pdTRUE;
 800721c:	2301      	movs	r3, #1
 800721e:	617b      	str	r3, [r7, #20]
 8007220:	e01b      	b.n	800725a <prvInsertTimerInActiveList+0x72>
		}
		else
		{
			vListInsert( pxOverflowTimerList, &( pxTimer->xTimerListItem ) );
 8007222:	4b10      	ldr	r3, [pc, #64]	@ (8007264 <prvInsertTimerInActiveList+0x7c>)
 8007224:	681a      	ldr	r2, [r3, #0]
 8007226:	68fb      	ldr	r3, [r7, #12]
 8007228:	3304      	adds	r3, #4
 800722a:	4619      	mov	r1, r3
 800722c:	4610      	mov	r0, r2
 800722e:	f7fe f83a 	bl	80052a6 <vListInsert>
 8007232:	e012      	b.n	800725a <prvInsertTimerInActiveList+0x72>
		}
	}
	else
	{
		if( ( xTimeNow < xCommandTime ) && ( xNextExpiryTime >= xCommandTime ) )
 8007234:	687a      	ldr	r2, [r7, #4]
 8007236:	683b      	ldr	r3, [r7, #0]
 8007238:	429a      	cmp	r2, r3
 800723a:	d206      	bcs.n	800724a <prvInsertTimerInActiveList+0x62>
 800723c:	68ba      	ldr	r2, [r7, #8]
 800723e:	683b      	ldr	r3, [r7, #0]
 8007240:	429a      	cmp	r2, r3
 8007242:	d302      	bcc.n	800724a <prvInsertTimerInActiveList+0x62>
		{
			/* If, since the command was issued, the tick count has overflowed
			but the expiry time has not, then the timer must have already passed
			its expiry time and should be processed immediately. */
			xProcessTimerNow = pdTRUE;
 8007244:	2301      	movs	r3, #1
 8007246:	617b      	str	r3, [r7, #20]
 8007248:	e007      	b.n	800725a <prvInsertTimerInActiveList+0x72>
		}
		else
		{
			vListInsert( pxCurrentTimerList, &( pxTimer->xTimerListItem ) );
 800724a:	4b07      	ldr	r3, [pc, #28]	@ (8007268 <prvInsertTimerInActiveList+0x80>)
 800724c:	681a      	ldr	r2, [r3, #0]
 800724e:	68fb      	ldr	r3, [r7, #12]
 8007250:	3304      	adds	r3, #4
 8007252:	4619      	mov	r1, r3
 8007254:	4610      	mov	r0, r2
 8007256:	f7fe f826 	bl	80052a6 <vListInsert>
		}
	}

	return xProcessTimerNow;
 800725a:	697b      	ldr	r3, [r7, #20]
}
 800725c:	4618      	mov	r0, r3
 800725e:	3718      	adds	r7, #24
 8007260:	46bd      	mov	sp, r7
 8007262:	bd80      	pop	{r7, pc}
 8007264:	20000ea4 	.word	0x20000ea4
 8007268:	20000ea0 	.word	0x20000ea0

0800726c <prvProcessReceivedCommands>:
/*-----------------------------------------------------------*/

static void	prvProcessReceivedCommands( void )
{
 800726c:	b580      	push	{r7, lr}
 800726e:	b08e      	sub	sp, #56	@ 0x38
 8007270:	af02      	add	r7, sp, #8
DaemonTaskMessage_t xMessage;
Timer_t *pxTimer;
BaseType_t xTimerListsWereSwitched, xResult;
TickType_t xTimeNow;

	while( xQueueReceive( xTimerQueue, &xMessage, tmrNO_DELAY ) != pdFAIL ) /*lint !e603 xMessage does not have to be initialised as it is passed out, not in, and it is not used unless xQueueReceive() returns pdTRUE. */
 8007272:	e0d4      	b.n	800741e <prvProcessReceivedCommands+0x1b2>
	{
		#if ( INCLUDE_xTimerPendFunctionCall == 1 )
		{
			/* Negative commands are pended function calls rather than timer
			commands. */
			if( xMessage.xMessageID < ( BaseType_t ) 0 )
 8007274:	687b      	ldr	r3, [r7, #4]
 8007276:	2b00      	cmp	r3, #0
 8007278:	da1b      	bge.n	80072b2 <prvProcessReceivedCommands+0x46>
			{
				const CallbackParameters_t * const pxCallback = &( xMessage.u.xCallbackParameters );
 800727a:	1d3b      	adds	r3, r7, #4
 800727c:	3304      	adds	r3, #4
 800727e:	62fb      	str	r3, [r7, #44]	@ 0x2c

				/* The timer uses the xCallbackParameters member to request a
				callback be executed.  Check the callback is not NULL. */
				configASSERT( pxCallback );
 8007280:	6afb      	ldr	r3, [r7, #44]	@ 0x2c
 8007282:	2b00      	cmp	r3, #0
 8007284:	d10d      	bne.n	80072a2 <prvProcessReceivedCommands+0x36>
	__asm volatile
 8007286:	f04f 0350 	mov.w	r3, #80	@ 0x50
 800728a:	b672      	cpsid	i
 800728c:	f383 8811 	msr	BASEPRI, r3
 8007290:	f3bf 8f6f 	isb	sy
 8007294:	f3bf 8f4f 	dsb	sy
 8007298:	b662      	cpsie	i
 800729a:	61fb      	str	r3, [r7, #28]
}
 800729c:	bf00      	nop
 800729e:	bf00      	nop
 80072a0:	e7fd      	b.n	800729e <prvProcessReceivedCommands+0x32>

				/* Call the function. */
				pxCallback->pxCallbackFunction( pxCallback->pvParameter1, pxCallback->ulParameter2 );
 80072a2:	6afb      	ldr	r3, [r7, #44]	@ 0x2c
 80072a4:	681b      	ldr	r3, [r3, #0]
 80072a6:	6afa      	ldr	r2, [r7, #44]	@ 0x2c
 80072a8:	6850      	ldr	r0, [r2, #4]
 80072aa:	6afa      	ldr	r2, [r7, #44]	@ 0x2c
 80072ac:	6892      	ldr	r2, [r2, #8]
 80072ae:	4611      	mov	r1, r2
 80072b0:	4798      	blx	r3
		}
		#endif /* INCLUDE_xTimerPendFunctionCall */

		/* Commands that are positive are timer commands rather than pended
		function calls. */
		if( xMessage.xMessageID >= ( BaseType_t ) 0 )
 80072b2:	687b      	ldr	r3, [r7, #4]
 80072b4:	2b00      	cmp	r3, #0
 80072b6:	f2c0 80b2 	blt.w	800741e <prvProcessReceivedCommands+0x1b2>
		{
			/* The messages uses the xTimerParameters member to work on a
			software timer. */
			pxTimer = xMessage.u.xTimerParameters.pxTimer;
 80072ba:	68fb      	ldr	r3, [r7, #12]
 80072bc:	62bb      	str	r3, [r7, #40]	@ 0x28

			if( listIS_CONTAINED_WITHIN( NULL, &( pxTimer->xTimerListItem ) ) == pdFALSE ) /*lint !e961. The cast is only redundant when NULL is passed into the macro. */
 80072be:	6abb      	ldr	r3, [r7, #40]	@ 0x28
 80072c0:	695b      	ldr	r3, [r3, #20]
 80072c2:	2b00      	cmp	r3, #0
 80072c4:	d004      	beq.n	80072d0 <prvProcessReceivedCommands+0x64>
			{
				/* The timer is in a list, remove it. */
				( void ) uxListRemove( &( pxTimer->xTimerListItem ) );
 80072c6:	6abb      	ldr	r3, [r7, #40]	@ 0x28
 80072c8:	3304      	adds	r3, #4
 80072ca:	4618      	mov	r0, r3
 80072cc:	f7fe f824 	bl	8005318 <uxListRemove>
			it must be present in the function call.  prvSampleTimeNow() must be
			called after the message is received from xTimerQueue so there is no
			possibility of a higher priority task adding a message to the message
			queue with a time that is ahead of the timer daemon task (because it
			pre-empted the timer daemon task after the xTimeNow value was set). */
			xTimeNow = prvSampleTimeNow( &xTimerListsWereSwitched );
 80072d0:	463b      	mov	r3, r7
 80072d2:	4618      	mov	r0, r3
 80072d4:	f7ff ff68 	bl	80071a8 <prvSampleTimeNow>
 80072d8:	6278      	str	r0, [r7, #36]	@ 0x24

			switch( xMessage.xMessageID )
 80072da:	687b      	ldr	r3, [r7, #4]
 80072dc:	2b09      	cmp	r3, #9
 80072de:	f200 809b 	bhi.w	8007418 <prvProcessReceivedCommands+0x1ac>
 80072e2:	a201      	add	r2, pc, #4	@ (adr r2, 80072e8 <prvProcessReceivedCommands+0x7c>)
 80072e4:	f852 f023 	ldr.w	pc, [r2, r3, lsl #2]
 80072e8:	08007311 	.word	0x08007311
 80072ec:	08007311 	.word	0x08007311
 80072f0:	08007311 	.word	0x08007311
 80072f4:	0800738b 	.word	0x0800738b
 80072f8:	0800739f 	.word	0x0800739f
 80072fc:	080073ef 	.word	0x080073ef
 8007300:	08007311 	.word	0x08007311
 8007304:	08007311 	.word	0x08007311
 8007308:	0800738b 	.word	0x0800738b
 800730c:	0800739f 	.word	0x0800739f
				case tmrCOMMAND_START_FROM_ISR :
				case tmrCOMMAND_RESET :
				case tmrCOMMAND_RESET_FROM_ISR :
				case tmrCOMMAND_START_DONT_TRACE :
					/* Start or restart a timer. */
					pxTimer->ucStatus |= tmrSTATUS_IS_ACTIVE;
 8007310:	6abb      	ldr	r3, [r7, #40]	@ 0x28
 8007312:	f893 3028 	ldrb.w	r3, [r3, #40]	@ 0x28
 8007316:	f043 0301 	orr.w	r3, r3, #1
 800731a:	b2da      	uxtb	r2, r3
 800731c:	6abb      	ldr	r3, [r7, #40]	@ 0x28
 800731e:	f883 2028 	strb.w	r2, [r3, #40]	@ 0x28
					if( prvInsertTimerInActiveList( pxTimer,  xMessage.u.xTimerParameters.xMessageValue + pxTimer->xTimerPeriodInTicks, xTimeNow, xMessage.u.xTimerParameters.xMessageValue ) != pdFALSE )
 8007322:	68ba      	ldr	r2, [r7, #8]
 8007324:	6abb      	ldr	r3, [r7, #40]	@ 0x28
 8007326:	699b      	ldr	r3, [r3, #24]
 8007328:	18d1      	adds	r1, r2, r3
 800732a:	68bb      	ldr	r3, [r7, #8]
 800732c:	6a7a      	ldr	r2, [r7, #36]	@ 0x24
 800732e:	6ab8      	ldr	r0, [r7, #40]	@ 0x28
 8007330:	f7ff ff5a 	bl	80071e8 <prvInsertTimerInActiveList>
 8007334:	4603      	mov	r3, r0
 8007336:	2b00      	cmp	r3, #0
 8007338:	d070      	beq.n	800741c <prvProcessReceivedCommands+0x1b0>
					{
						/* The timer expired before it was added to the active
						timer list.  Process it now. */
						pxTimer->pxCallbackFunction( ( TimerHandle_t ) pxTimer );
 800733a:	6abb      	ldr	r3, [r7, #40]	@ 0x28
 800733c:	6a1b      	ldr	r3, [r3, #32]
 800733e:	6ab8      	ldr	r0, [r7, #40]	@ 0x28
 8007340:	4798      	blx	r3
						traceTIMER_EXPIRED( pxTimer );

						if( ( pxTimer->ucStatus & tmrSTATUS_IS_AUTORELOAD ) != 0 )
 8007342:	6abb      	ldr	r3, [r7, #40]	@ 0x28
 8007344:	f893 3028 	ldrb.w	r3, [r3, #40]	@ 0x28
 8007348:	f003 0304 	and.w	r3, r3, #4
 800734c:	2b00      	cmp	r3, #0
 800734e:	d065      	beq.n	800741c <prvProcessReceivedCommands+0x1b0>
						{
							xResult = xTimerGenericCommand( pxTimer, tmrCOMMAND_START_DONT_TRACE, xMessage.u.xTimerParameters.xMessageValue + pxTimer->xTimerPeriodInTicks, NULL, tmrNO_DELAY );
 8007350:	68ba      	ldr	r2, [r7, #8]
 8007352:	6abb      	ldr	r3, [r7, #40]	@ 0x28
 8007354:	699b      	ldr	r3, [r3, #24]
 8007356:	441a      	add	r2, r3
 8007358:	2300      	movs	r3, #0
 800735a:	9300      	str	r3, [sp, #0]
 800735c:	2300      	movs	r3, #0
 800735e:	2100      	movs	r1, #0
 8007360:	6ab8      	ldr	r0, [r7, #40]	@ 0x28
 8007362:	f7ff fdfb 	bl	8006f5c <xTimerGenericCommand>
 8007366:	6238      	str	r0, [r7, #32]
							configASSERT( xResult );
 8007368:	6a3b      	ldr	r3, [r7, #32]
 800736a:	2b00      	cmp	r3, #0
 800736c:	d156      	bne.n	800741c <prvProcessReceivedCommands+0x1b0>
	__asm volatile
 800736e:	f04f 0350 	mov.w	r3, #80	@ 0x50
 8007372:	b672      	cpsid	i
 8007374:	f383 8811 	msr	BASEPRI, r3
 8007378:	f3bf 8f6f 	isb	sy
 800737c:	f3bf 8f4f 	dsb	sy
 8007380:	b662      	cpsie	i
 8007382:	61bb      	str	r3, [r7, #24]
}
 8007384:	bf00      	nop
 8007386:	bf00      	nop
 8007388:	e7fd      	b.n	8007386 <prvProcessReceivedCommands+0x11a>
					break;

				case tmrCOMMAND_STOP :
				case tmrCOMMAND_STOP_FROM_ISR :
					/* The timer has already been removed from the active list. */
					pxTimer->ucStatus &= ~tmrSTATUS_IS_ACTIVE;
 800738a:	6abb      	ldr	r3, [r7, #40]	@ 0x28
 800738c:	f893 3028 	ldrb.w	r3, [r3, #40]	@ 0x28
 8007390:	f023 0301 	bic.w	r3, r3, #1
 8007394:	b2da      	uxtb	r2, r3
 8007396:	6abb      	ldr	r3, [r7, #40]	@ 0x28
 8007398:	f883 2028 	strb.w	r2, [r3, #40]	@ 0x28
					break;
 800739c:	e03f      	b.n	800741e <prvProcessReceivedCommands+0x1b2>

				case tmrCOMMAND_CHANGE_PERIOD :
				case tmrCOMMAND_CHANGE_PERIOD_FROM_ISR :
					pxTimer->ucStatus |= tmrSTATUS_IS_ACTIVE;
 800739e:	6abb      	ldr	r3, [r7, #40]	@ 0x28
 80073a0:	f893 3028 	ldrb.w	r3, [r3, #40]	@ 0x28
 80073a4:	f043 0301 	orr.w	r3, r3, #1
 80073a8:	b2da      	uxtb	r2, r3
 80073aa:	6abb      	ldr	r3, [r7, #40]	@ 0x28
 80073ac:	f883 2028 	strb.w	r2, [r3, #40]	@ 0x28
					pxTimer->xTimerPeriodInTicks = xMessage.u.xTimerParameters.xMessageValue;
 80073b0:	68ba      	ldr	r2, [r7, #8]
 80073b2:	6abb      	ldr	r3, [r7, #40]	@ 0x28
 80073b4:	619a      	str	r2, [r3, #24]
					configASSERT( ( pxTimer->xTimerPeriodInTicks > 0 ) );
 80073b6:	6abb      	ldr	r3, [r7, #40]	@ 0x28
 80073b8:	699b      	ldr	r3, [r3, #24]
 80073ba:	2b00      	cmp	r3, #0
 80073bc:	d10d      	bne.n	80073da <prvProcessReceivedCommands+0x16e>
	__asm volatile
 80073be:	f04f 0350 	mov.w	r3, #80	@ 0x50
 80073c2:	b672      	cpsid	i
 80073c4:	f383 8811 	msr	BASEPRI, r3
 80073c8:	f3bf 8f6f 	isb	sy
 80073cc:	f3bf 8f4f 	dsb	sy
 80073d0:	b662      	cpsie	i
 80073d2:	617b      	str	r3, [r7, #20]
}
 80073d4:	bf00      	nop
 80073d6:	bf00      	nop
 80073d8:	e7fd      	b.n	80073d6 <prvProcessReceivedCommands+0x16a>
					be longer or shorter than the old one.  The command time is
					therefore set to the current time, and as the period cannot
					be zero the next expiry time can only be in the future,
					meaning (unlike for the xTimerStart() case above) there is
					no fail case that needs to be handled here. */
					( void ) prvInsertTimerInActiveList( pxTimer, ( xTimeNow + pxTimer->xTimerPeriodInTicks ), xTimeNow, xTimeNow );
 80073da:	6abb      	ldr	r3, [r7, #40]	@ 0x28
 80073dc:	699a      	ldr	r2, [r3, #24]
 80073de:	6a7b      	ldr	r3, [r7, #36]	@ 0x24
 80073e0:	18d1      	adds	r1, r2, r3
 80073e2:	6a7b      	ldr	r3, [r7, #36]	@ 0x24
 80073e4:	6a7a      	ldr	r2, [r7, #36]	@ 0x24
 80073e6:	6ab8      	ldr	r0, [r7, #40]	@ 0x28
 80073e8:	f7ff fefe 	bl	80071e8 <prvInsertTimerInActiveList>
					break;
 80073ec:	e017      	b.n	800741e <prvProcessReceivedCommands+0x1b2>
					#if ( configSUPPORT_DYNAMIC_ALLOCATION == 1 )
					{
						/* The timer has already been removed from the active list,
						just free up the memory if the memory was dynamically
						allocated. */
						if( ( pxTimer->ucStatus & tmrSTATUS_IS_STATICALLY_ALLOCATED ) == ( uint8_t ) 0 )
 80073ee:	6abb      	ldr	r3, [r7, #40]	@ 0x28
 80073f0:	f893 3028 	ldrb.w	r3, [r3, #40]	@ 0x28
 80073f4:	f003 0302 	and.w	r3, r3, #2
 80073f8:	2b00      	cmp	r3, #0
 80073fa:	d103      	bne.n	8007404 <prvProcessReceivedCommands+0x198>
						{
							vPortFree( pxTimer );
 80073fc:	6ab8      	ldr	r0, [r7, #40]	@ 0x28
 80073fe:	f000 fbf9 	bl	8007bf4 <vPortFree>
						no need to free the memory - just mark the timer as
						"not active". */
						pxTimer->ucStatus &= ~tmrSTATUS_IS_ACTIVE;
					}
					#endif /* configSUPPORT_DYNAMIC_ALLOCATION */
					break;
 8007402:	e00c      	b.n	800741e <prvProcessReceivedCommands+0x1b2>
							pxTimer->ucStatus &= ~tmrSTATUS_IS_ACTIVE;
 8007404:	6abb      	ldr	r3, [r7, #40]	@ 0x28
 8007406:	f893 3028 	ldrb.w	r3, [r3, #40]	@ 0x28
 800740a:	f023 0301 	bic.w	r3, r3, #1
 800740e:	b2da      	uxtb	r2, r3
 8007410:	6abb      	ldr	r3, [r7, #40]	@ 0x28
 8007412:	f883 2028 	strb.w	r2, [r3, #40]	@ 0x28
					break;
 8007416:	e002      	b.n	800741e <prvProcessReceivedCommands+0x1b2>

				default	:
					/* Don't expect to get here. */
					break;
 8007418:	bf00      	nop
 800741a:	e000      	b.n	800741e <prvProcessReceivedCommands+0x1b2>
					break;
 800741c:	bf00      	nop
	while( xQueueReceive( xTimerQueue, &xMessage, tmrNO_DELAY ) != pdFAIL ) /*lint !e603 xMessage does not have to be initialised as it is passed out, not in, and it is not used unless xQueueReceive() returns pdTRUE. */
 800741e:	4b08      	ldr	r3, [pc, #32]	@ (8007440 <prvProcessReceivedCommands+0x1d4>)
 8007420:	681b      	ldr	r3, [r3, #0]
 8007422:	1d39      	adds	r1, r7, #4
 8007424:	2200      	movs	r2, #0
 8007426:	4618      	mov	r0, r3
 8007428:	f7fe faf4 	bl	8005a14 <xQueueReceive>
 800742c:	4603      	mov	r3, r0
 800742e:	2b00      	cmp	r3, #0
 8007430:	f47f af20 	bne.w	8007274 <prvProcessReceivedCommands+0x8>
			}
		}
	}
}
 8007434:	bf00      	nop
 8007436:	bf00      	nop
 8007438:	3730      	adds	r7, #48	@ 0x30
 800743a:	46bd      	mov	sp, r7
 800743c:	bd80      	pop	{r7, pc}
 800743e:	bf00      	nop
 8007440:	20000ea8 	.word	0x20000ea8

08007444 <prvSwitchTimerLists>:
/*-----------------------------------------------------------*/

static void prvSwitchTimerLists( void )
{
 8007444:	b580      	push	{r7, lr}
 8007446:	b088      	sub	sp, #32
 8007448:	af02      	add	r7, sp, #8

	/* The tick count has overflowed.  The timer lists must be switched.
	If there are any timers still referenced from the current timer list
	then they must have expired and should be processed before the lists
	are switched. */
	while( listLIST_IS_EMPTY( pxCurrentTimerList ) == pdFALSE )
 800744a:	e04b      	b.n	80074e4 <prvSwitchTimerLists+0xa0>
	{
		xNextExpireTime = listGET_ITEM_VALUE_OF_HEAD_ENTRY( pxCurrentTimerList );
 800744c:	4b2f      	ldr	r3, [pc, #188]	@ (800750c <prvSwitchTimerLists+0xc8>)
 800744e:	681b      	ldr	r3, [r3, #0]
 8007450:	68db      	ldr	r3, [r3, #12]
 8007452:	681b      	ldr	r3, [r3, #0]
 8007454:	613b      	str	r3, [r7, #16]

		/* Remove the timer from the list. */
		pxTimer = ( Timer_t * ) listGET_OWNER_OF_HEAD_ENTRY( pxCurrentTimerList ); /*lint !e9087 !e9079 void * is used as this macro is used with tasks and co-routines too.  Alignment is known to be fine as the type of the pointer stored and retrieved is the same. */
 8007456:	4b2d      	ldr	r3, [pc, #180]	@ (800750c <prvSwitchTimerLists+0xc8>)
 8007458:	681b      	ldr	r3, [r3, #0]
 800745a:	68db      	ldr	r3, [r3, #12]
 800745c:	68db      	ldr	r3, [r3, #12]
 800745e:	60fb      	str	r3, [r7, #12]
		( void ) uxListRemove( &( pxTimer->xTimerListItem ) );
 8007460:	68fb      	ldr	r3, [r7, #12]
 8007462:	3304      	adds	r3, #4
 8007464:	4618      	mov	r0, r3
 8007466:	f7fd ff57 	bl	8005318 <uxListRemove>
		traceTIMER_EXPIRED( pxTimer );

		/* Execute its callback, then send a command to restart the timer if
		it is an auto-reload timer.  It cannot be restarted here as the lists
		have not yet been switched. */
		pxTimer->pxCallbackFunction( ( TimerHandle_t ) pxTimer );
 800746a:	68fb      	ldr	r3, [r7, #12]
 800746c:	6a1b      	ldr	r3, [r3, #32]
 800746e:	68f8      	ldr	r0, [r7, #12]
 8007470:	4798      	blx	r3

		if( ( pxTimer->ucStatus & tmrSTATUS_IS_AUTORELOAD ) != 0 )
 8007472:	68fb      	ldr	r3, [r7, #12]
 8007474:	f893 3028 	ldrb.w	r3, [r3, #40]	@ 0x28
 8007478:	f003 0304 	and.w	r3, r3, #4
 800747c:	2b00      	cmp	r3, #0
 800747e:	d031      	beq.n	80074e4 <prvSwitchTimerLists+0xa0>
			the timer going into the same timer list then it has already expired
			and the timer should be re-inserted into the current list so it is
			processed again within this loop.  Otherwise a command should be sent
			to restart the timer to ensure it is only inserted into a list after
			the lists have been swapped. */
			xReloadTime = ( xNextExpireTime + pxTimer->xTimerPeriodInTicks );
 8007480:	68fb      	ldr	r3, [r7, #12]
 8007482:	699b      	ldr	r3, [r3, #24]
 8007484:	693a      	ldr	r2, [r7, #16]
 8007486:	4413      	add	r3, r2
 8007488:	60bb      	str	r3, [r7, #8]
			if( xReloadTime > xNextExpireTime )
 800748a:	68ba      	ldr	r2, [r7, #8]
 800748c:	693b      	ldr	r3, [r7, #16]
 800748e:	429a      	cmp	r2, r3
 8007490:	d90e      	bls.n	80074b0 <prvSwitchTimerLists+0x6c>
			{
				listSET_LIST_ITEM_VALUE( &( pxTimer->xTimerListItem ), xReloadTime );
 8007492:	68fb      	ldr	r3, [r7, #12]
 8007494:	68ba      	ldr	r2, [r7, #8]
 8007496:	605a      	str	r2, [r3, #4]
				listSET_LIST_ITEM_OWNER( &( pxTimer->xTimerListItem ), pxTimer );
 8007498:	68fb      	ldr	r3, [r7, #12]
 800749a:	68fa      	ldr	r2, [r7, #12]
 800749c:	611a      	str	r2, [r3, #16]
				vListInsert( pxCurrentTimerList, &( pxTimer->xTimerListItem ) );
 800749e:	4b1b      	ldr	r3, [pc, #108]	@ (800750c <prvSwitchTimerLists+0xc8>)
 80074a0:	681a      	ldr	r2, [r3, #0]
 80074a2:	68fb      	ldr	r3, [r7, #12]
 80074a4:	3304      	adds	r3, #4
 80074a6:	4619      	mov	r1, r3
 80074a8:	4610      	mov	r0, r2
 80074aa:	f7fd fefc 	bl	80052a6 <vListInsert>
 80074ae:	e019      	b.n	80074e4 <prvSwitchTimerLists+0xa0>
			}
			else
			{
				xResult = xTimerGenericCommand( pxTimer, tmrCOMMAND_START_DONT_TRACE, xNextExpireTime, NULL, tmrNO_DELAY );
 80074b0:	2300      	movs	r3, #0
 80074b2:	9300      	str	r3, [sp, #0]
 80074b4:	2300      	movs	r3, #0
 80074b6:	693a      	ldr	r2, [r7, #16]
 80074b8:	2100      	movs	r1, #0
 80074ba:	68f8      	ldr	r0, [r7, #12]
 80074bc:	f7ff fd4e 	bl	8006f5c <xTimerGenericCommand>
 80074c0:	6078      	str	r0, [r7, #4]
				configASSERT( xResult );
 80074c2:	687b      	ldr	r3, [r7, #4]
 80074c4:	2b00      	cmp	r3, #0
 80074c6:	d10d      	bne.n	80074e4 <prvSwitchTimerLists+0xa0>
	__asm volatile
 80074c8:	f04f 0350 	mov.w	r3, #80	@ 0x50
 80074cc:	b672      	cpsid	i
 80074ce:	f383 8811 	msr	BASEPRI, r3
 80074d2:	f3bf 8f6f 	isb	sy
 80074d6:	f3bf 8f4f 	dsb	sy
 80074da:	b662      	cpsie	i
 80074dc:	603b      	str	r3, [r7, #0]
}
 80074de:	bf00      	nop
 80074e0:	bf00      	nop
 80074e2:	e7fd      	b.n	80074e0 <prvSwitchTimerLists+0x9c>
	while( listLIST_IS_EMPTY( pxCurrentTimerList ) == pdFALSE )
 80074e4:	4b09      	ldr	r3, [pc, #36]	@ (800750c <prvSwitchTimerLists+0xc8>)
 80074e6:	681b      	ldr	r3, [r3, #0]
 80074e8:	681b      	ldr	r3, [r3, #0]
 80074ea:	2b00      	cmp	r3, #0
 80074ec:	d1ae      	bne.n	800744c <prvSwitchTimerLists+0x8>
		{
			mtCOVERAGE_TEST_MARKER();
		}
	}

	pxTemp = pxCurrentTimerList;
 80074ee:	4b07      	ldr	r3, [pc, #28]	@ (800750c <prvSwitchTimerLists+0xc8>)
 80074f0:	681b      	ldr	r3, [r3, #0]
 80074f2:	617b      	str	r3, [r7, #20]
	pxCurrentTimerList = pxOverflowTimerList;
 80074f4:	4b06      	ldr	r3, [pc, #24]	@ (8007510 <prvSwitchTimerLists+0xcc>)
 80074f6:	681b      	ldr	r3, [r3, #0]
 80074f8:	4a04      	ldr	r2, [pc, #16]	@ (800750c <prvSwitchTimerLists+0xc8>)
 80074fa:	6013      	str	r3, [r2, #0]
	pxOverflowTimerList = pxTemp;
 80074fc:	4a04      	ldr	r2, [pc, #16]	@ (8007510 <prvSwitchTimerLists+0xcc>)
 80074fe:	697b      	ldr	r3, [r7, #20]
 8007500:	6013      	str	r3, [r2, #0]
}
 8007502:	bf00      	nop
 8007504:	3718      	adds	r7, #24
 8007506:	46bd      	mov	sp, r7
 8007508:	bd80      	pop	{r7, pc}
 800750a:	bf00      	nop
 800750c:	20000ea0 	.word	0x20000ea0
 8007510:	20000ea4 	.word	0x20000ea4

08007514 <prvCheckForValidListAndQueue>:
/*-----------------------------------------------------------*/

static void prvCheckForValidListAndQueue( void )
{
 8007514:	b580      	push	{r7, lr}
 8007516:	b082      	sub	sp, #8
 8007518:	af02      	add	r7, sp, #8
	/* Check that the list from which active timers are referenced, and the
	queue used to communicate with the timer service, have been
	initialised. */
	taskENTER_CRITICAL();
 800751a:	f000 f96f 	bl	80077fc <vPortEnterCritical>
	{
		if( xTimerQueue == NULL )
 800751e:	4b15      	ldr	r3, [pc, #84]	@ (8007574 <prvCheckForValidListAndQueue+0x60>)
 8007520:	681b      	ldr	r3, [r3, #0]
 8007522:	2b00      	cmp	r3, #0
 8007524:	d120      	bne.n	8007568 <prvCheckForValidListAndQueue+0x54>
		{
			vListInitialise( &xActiveTimerList1 );
 8007526:	4814      	ldr	r0, [pc, #80]	@ (8007578 <prvCheckForValidListAndQueue+0x64>)
 8007528:	f7fd fe6c 	bl	8005204 <vListInitialise>
			vListInitialise( &xActiveTimerList2 );
 800752c:	4813      	ldr	r0, [pc, #76]	@ (800757c <prvCheckForValidListAndQueue+0x68>)
 800752e:	f7fd fe69 	bl	8005204 <vListInitialise>
			pxCurrentTimerList = &xActiveTimerList1;
 8007532:	4b13      	ldr	r3, [pc, #76]	@ (8007580 <prvCheckForValidListAndQueue+0x6c>)
 8007534:	4a10      	ldr	r2, [pc, #64]	@ (8007578 <prvCheckForValidListAndQueue+0x64>)
 8007536:	601a      	str	r2, [r3, #0]
			pxOverflowTimerList = &xActiveTimerList2;
 8007538:	4b12      	ldr	r3, [pc, #72]	@ (8007584 <prvCheckForValidListAndQueue+0x70>)
 800753a:	4a10      	ldr	r2, [pc, #64]	@ (800757c <prvCheckForValidListAndQueue+0x68>)
 800753c:	601a      	str	r2, [r3, #0]
				/* The timer queue is allocated statically in case
				configSUPPORT_DYNAMIC_ALLOCATION is 0. */
				static StaticQueue_t xStaticTimerQueue; /*lint !e956 Ok to declare in this manner to prevent additional conditional compilation guards in other locations. */
				static uint8_t ucStaticTimerQueueStorage[ ( size_t ) configTIMER_QUEUE_LENGTH * sizeof( DaemonTaskMessage_t ) ]; /*lint !e956 Ok to declare in this manner to prevent additional conditional compilation guards in other locations. */

				xTimerQueue = xQueueCreateStatic( ( UBaseType_t ) configTIMER_QUEUE_LENGTH, ( UBaseType_t ) sizeof( DaemonTaskMessage_t ), &( ucStaticTimerQueueStorage[ 0 ] ), &xStaticTimerQueue );
 800753e:	2300      	movs	r3, #0
 8007540:	9300      	str	r3, [sp, #0]
 8007542:	4b11      	ldr	r3, [pc, #68]	@ (8007588 <prvCheckForValidListAndQueue+0x74>)
 8007544:	4a11      	ldr	r2, [pc, #68]	@ (800758c <prvCheckForValidListAndQueue+0x78>)
 8007546:	2110      	movs	r1, #16
 8007548:	200a      	movs	r0, #10
 800754a:	f7fd ff7b 	bl	8005444 <xQueueGenericCreateStatic>
 800754e:	4603      	mov	r3, r0
 8007550:	4a08      	ldr	r2, [pc, #32]	@ (8007574 <prvCheckForValidListAndQueue+0x60>)
 8007552:	6013      	str	r3, [r2, #0]
			}
			#endif

			#if ( configQUEUE_REGISTRY_SIZE > 0 )
			{
				if( xTimerQueue != NULL )
 8007554:	4b07      	ldr	r3, [pc, #28]	@ (8007574 <prvCheckForValidListAndQueue+0x60>)
 8007556:	681b      	ldr	r3, [r3, #0]
 8007558:	2b00      	cmp	r3, #0
 800755a:	d005      	beq.n	8007568 <prvCheckForValidListAndQueue+0x54>
				{
					vQueueAddToRegistry( xTimerQueue, "TmrQ" );
 800755c:	4b05      	ldr	r3, [pc, #20]	@ (8007574 <prvCheckForValidListAndQueue+0x60>)
 800755e:	681b      	ldr	r3, [r3, #0]
 8007560:	490b      	ldr	r1, [pc, #44]	@ (8007590 <prvCheckForValidListAndQueue+0x7c>)
 8007562:	4618      	mov	r0, r3
 8007564:	f7fe fc4e 	bl	8005e04 <vQueueAddToRegistry>
		else
		{
			mtCOVERAGE_TEST_MARKER();
		}
	}
	taskEXIT_CRITICAL();
 8007568:	f000 f97e 	bl	8007868 <vPortExitCritical>
}
 800756c:	bf00      	nop
 800756e:	46bd      	mov	sp, r7
 8007570:	bd80      	pop	{r7, pc}
 8007572:	bf00      	nop
 8007574:	20000ea8 	.word	0x20000ea8
 8007578:	20000e78 	.word	0x20000e78
 800757c:	20000e8c 	.word	0x20000e8c
 8007580:	20000ea0 	.word	0x20000ea0
 8007584:	20000ea4 	.word	0x20000ea4
 8007588:	20000f54 	.word	0x20000f54
 800758c:	20000eb4 	.word	0x20000eb4
 8007590:	080080b0 	.word	0x080080b0

08007594 <pvTimerGetTimerID>:
	return xReturn;
} /*lint !e818 Can't be pointer to const due to the typedef. */
/*-----------------------------------------------------------*/

void *pvTimerGetTimerID( const TimerHandle_t xTimer )
{
 8007594:	b580      	push	{r7, lr}
 8007596:	b086      	sub	sp, #24
 8007598:	af00      	add	r7, sp, #0
 800759a:	6078      	str	r0, [r7, #4]
Timer_t * const pxTimer = xTimer;
 800759c:	687b      	ldr	r3, [r7, #4]
 800759e:	617b      	str	r3, [r7, #20]
void *pvReturn;

	configASSERT( xTimer );
 80075a0:	687b      	ldr	r3, [r7, #4]
 80075a2:	2b00      	cmp	r3, #0
 80075a4:	d10d      	bne.n	80075c2 <pvTimerGetTimerID+0x2e>
	__asm volatile
 80075a6:	f04f 0350 	mov.w	r3, #80	@ 0x50
 80075aa:	b672      	cpsid	i
 80075ac:	f383 8811 	msr	BASEPRI, r3
 80075b0:	f3bf 8f6f 	isb	sy
 80075b4:	f3bf 8f4f 	dsb	sy
 80075b8:	b662      	cpsie	i
 80075ba:	60fb      	str	r3, [r7, #12]
}
 80075bc:	bf00      	nop
 80075be:	bf00      	nop
 80075c0:	e7fd      	b.n	80075be <pvTimerGetTimerID+0x2a>

	taskENTER_CRITICAL();
 80075c2:	f000 f91b 	bl	80077fc <vPortEnterCritical>
	{
		pvReturn = pxTimer->pvTimerID;
 80075c6:	697b      	ldr	r3, [r7, #20]
 80075c8:	69db      	ldr	r3, [r3, #28]
 80075ca:	613b      	str	r3, [r7, #16]
	}
	taskEXIT_CRITICAL();
 80075cc:	f000 f94c 	bl	8007868 <vPortExitCritical>

	return pvReturn;
 80075d0:	693b      	ldr	r3, [r7, #16]
}
 80075d2:	4618      	mov	r0, r3
 80075d4:	3718      	adds	r7, #24
 80075d6:	46bd      	mov	sp, r7
 80075d8:	bd80      	pop	{r7, pc}
	...

080075dc <pxPortInitialiseStack>:

/*
 * See header file for description.
 */
StackType_t *pxPortInitialiseStack( StackType_t *pxTopOfStack, TaskFunction_t pxCode, void *pvParameters )
{
 80075dc:	b480      	push	{r7}
 80075de:	b085      	sub	sp, #20
 80075e0:	af00      	add	r7, sp, #0
 80075e2:	60f8      	str	r0, [r7, #12]
 80075e4:	60b9      	str	r1, [r7, #8]
 80075e6:	607a      	str	r2, [r7, #4]
	/* Simulate the stack frame as it would be created by a context switch
	interrupt. */

	/* Offset added to account for the way the MCU uses the stack on entry/exit
	of interrupts, and to ensure alignment. */
	pxTopOfStack--;
 80075e8:	68fb      	ldr	r3, [r7, #12]
 80075ea:	3b04      	subs	r3, #4
 80075ec:	60fb      	str	r3, [r7, #12]

	*pxTopOfStack = portINITIAL_XPSR;	/* xPSR */
 80075ee:	68fb      	ldr	r3, [r7, #12]
 80075f0:	f04f 7280 	mov.w	r2, #16777216	@ 0x1000000
 80075f4:	601a      	str	r2, [r3, #0]
	pxTopOfStack--;
 80075f6:	68fb      	ldr	r3, [r7, #12]
 80075f8:	3b04      	subs	r3, #4
 80075fa:	60fb      	str	r3, [r7, #12]
	*pxTopOfStack = ( ( StackType_t ) pxCode ) & portSTART_ADDRESS_MASK;	/* PC */
 80075fc:	68bb      	ldr	r3, [r7, #8]
 80075fe:	f023 0201 	bic.w	r2, r3, #1
 8007602:	68fb      	ldr	r3, [r7, #12]
 8007604:	601a      	str	r2, [r3, #0]
	pxTopOfStack--;
 8007606:	68fb      	ldr	r3, [r7, #12]
 8007608:	3b04      	subs	r3, #4
 800760a:	60fb      	str	r3, [r7, #12]
	*pxTopOfStack = ( StackType_t ) portTASK_RETURN_ADDRESS;	/* LR */
 800760c:	4a0c      	ldr	r2, [pc, #48]	@ (8007640 <pxPortInitialiseStack+0x64>)
 800760e:	68fb      	ldr	r3, [r7, #12]
 8007610:	601a      	str	r2, [r3, #0]

	/* Save code space by skipping register initialisation. */
	pxTopOfStack -= 5;	/* R12, R3, R2 and R1. */
 8007612:	68fb      	ldr	r3, [r7, #12]
 8007614:	3b14      	subs	r3, #20
 8007616:	60fb      	str	r3, [r7, #12]
	*pxTopOfStack = ( StackType_t ) pvParameters;	/* R0 */
 8007618:	687a      	ldr	r2, [r7, #4]
 800761a:	68fb      	ldr	r3, [r7, #12]
 800761c:	601a      	str	r2, [r3, #0]

	/* A save method is being used that requires each task to maintain its
	own exec return value. */
	pxTopOfStack--;
 800761e:	68fb      	ldr	r3, [r7, #12]
 8007620:	3b04      	subs	r3, #4
 8007622:	60fb      	str	r3, [r7, #12]
	*pxTopOfStack = portINITIAL_EXC_RETURN;
 8007624:	68fb      	ldr	r3, [r7, #12]
 8007626:	f06f 0202 	mvn.w	r2, #2
 800762a:	601a      	str	r2, [r3, #0]

	pxTopOfStack -= 8;	/* R11, R10, R9, R8, R7, R6, R5 and R4. */
 800762c:	68fb      	ldr	r3, [r7, #12]
 800762e:	3b20      	subs	r3, #32
 8007630:	60fb      	str	r3, [r7, #12]

	return pxTopOfStack;
 8007632:	68fb      	ldr	r3, [r7, #12]
}
 8007634:	4618      	mov	r0, r3
 8007636:	3714      	adds	r7, #20
 8007638:	46bd      	mov	sp, r7
 800763a:	f85d 7b04 	ldr.w	r7, [sp], #4
 800763e:	4770      	bx	lr
 8007640:	08007645 	.word	0x08007645

08007644 <prvTaskExitError>:
/*-----------------------------------------------------------*/

static void prvTaskExitError( void )
{
 8007644:	b480      	push	{r7}
 8007646:	b085      	sub	sp, #20
 8007648:	af00      	add	r7, sp, #0
volatile uint32_t ulDummy = 0;
 800764a:	2300      	movs	r3, #0
 800764c:	607b      	str	r3, [r7, #4]
	its caller as there is nothing to return to.  If a task wants to exit it
	should instead call vTaskDelete( NULL ).

	Artificially force an assert() to be triggered if configASSERT() is
	defined, then stop here so application writers can catch the error. */
	configASSERT( uxCriticalNesting == ~0UL );
 800764e:	4b15      	ldr	r3, [pc, #84]	@ (80076a4 <prvTaskExitError+0x60>)
 8007650:	681b      	ldr	r3, [r3, #0]
 8007652:	f1b3 3fff 	cmp.w	r3, #4294967295
 8007656:	d00d      	beq.n	8007674 <prvTaskExitError+0x30>
	__asm volatile
 8007658:	f04f 0350 	mov.w	r3, #80	@ 0x50
 800765c:	b672      	cpsid	i
 800765e:	f383 8811 	msr	BASEPRI, r3
 8007662:	f3bf 8f6f 	isb	sy
 8007666:	f3bf 8f4f 	dsb	sy
 800766a:	b662      	cpsie	i
 800766c:	60fb      	str	r3, [r7, #12]
}
 800766e:	bf00      	nop
 8007670:	bf00      	nop
 8007672:	e7fd      	b.n	8007670 <prvTaskExitError+0x2c>
	__asm volatile
 8007674:	f04f 0350 	mov.w	r3, #80	@ 0x50
 8007678:	b672      	cpsid	i
 800767a:	f383 8811 	msr	BASEPRI, r3
 800767e:	f3bf 8f6f 	isb	sy
 8007682:	f3bf 8f4f 	dsb	sy
 8007686:	b662      	cpsie	i
 8007688:	60bb      	str	r3, [r7, #8]
}
 800768a:	bf00      	nop
	portDISABLE_INTERRUPTS();
	while( ulDummy == 0 )
 800768c:	bf00      	nop
 800768e:	687b      	ldr	r3, [r7, #4]
 8007690:	2b00      	cmp	r3, #0
 8007692:	d0fc      	beq.n	800768e <prvTaskExitError+0x4a>
		about code appearing after this function is called - making ulDummy
		volatile makes the compiler think the function could return and
		therefore not output an 'unreachable code' warning for code that appears
		after it. */
	}
}
 8007694:	bf00      	nop
 8007696:	bf00      	nop
 8007698:	3714      	adds	r7, #20
 800769a:	46bd      	mov	sp, r7
 800769c:	f85d 7b04 	ldr.w	r7, [sp], #4
 80076a0:	4770      	bx	lr
 80076a2:	bf00      	nop
 80076a4:	2000000c 	.word	0x2000000c
	...

080076b0 <SVC_Handler>:
/*-----------------------------------------------------------*/

void vPortSVCHandler( void )
{
	__asm volatile (
 80076b0:	4b07      	ldr	r3, [pc, #28]	@ (80076d0 <pxCurrentTCBConst2>)
 80076b2:	6819      	ldr	r1, [r3, #0]
 80076b4:	6808      	ldr	r0, [r1, #0]
 80076b6:	e8b0 4ff0 	ldmia.w	r0!, {r4, r5, r6, r7, r8, r9, sl, fp, lr}
 80076ba:	f380 8809 	msr	PSP, r0
 80076be:	f3bf 8f6f 	isb	sy
 80076c2:	f04f 0000 	mov.w	r0, #0
 80076c6:	f380 8811 	msr	BASEPRI, r0
 80076ca:	4770      	bx	lr
 80076cc:	f3af 8000 	nop.w

080076d0 <pxCurrentTCBConst2>:
 80076d0:	20000978 	.word	0x20000978
					"	bx r14							\n"
					"									\n"
					"	.align 4						\n"
					"pxCurrentTCBConst2: .word pxCurrentTCB				\n"
				);
}
 80076d4:	bf00      	nop
 80076d6:	bf00      	nop

080076d8 <prvPortStartFirstTask>:
{
	/* Start the first task.  This also clears the bit that indicates the FPU is
	in use in case the FPU was used before the scheduler was started - which
	would otherwise result in the unnecessary leaving of space in the SVC stack
	for lazy saving of FPU registers. */
	__asm volatile(
 80076d8:	4808      	ldr	r0, [pc, #32]	@ (80076fc <prvPortStartFirstTask+0x24>)
 80076da:	6800      	ldr	r0, [r0, #0]
 80076dc:	6800      	ldr	r0, [r0, #0]
 80076de:	f380 8808 	msr	MSP, r0
 80076e2:	f04f 0000 	mov.w	r0, #0
 80076e6:	f380 8814 	msr	CONTROL, r0
 80076ea:	b662      	cpsie	i
 80076ec:	b661      	cpsie	f
 80076ee:	f3bf 8f4f 	dsb	sy
 80076f2:	f3bf 8f6f 	isb	sy
 80076f6:	df00      	svc	0
 80076f8:	bf00      	nop
					" dsb					\n"
					" isb					\n"
					" svc 0					\n" /* System call to start first task. */
					" nop					\n"
				);
}
 80076fa:	bf00      	nop
 80076fc:	e000ed08 	.word	0xe000ed08

08007700 <xPortStartScheduler>:

/*
 * See header file for description.
 */
BaseType_t xPortStartScheduler( void )
{
 8007700:	b580      	push	{r7, lr}
 8007702:	b084      	sub	sp, #16
 8007704:	af00      	add	r7, sp, #0
	configASSERT( configMAX_SYSCALL_INTERRUPT_PRIORITY );

	#if( configASSERT_DEFINED == 1 )
	{
		volatile uint32_t ulOriginalPriority;
		volatile uint8_t * const pucFirstUserPriorityRegister = ( volatile uint8_t * const ) ( portNVIC_IP_REGISTERS_OFFSET_16 + portFIRST_USER_INTERRUPT_NUMBER );
 8007706:	4b37      	ldr	r3, [pc, #220]	@ (80077e4 <xPortStartScheduler+0xe4>)
 8007708:	60fb      	str	r3, [r7, #12]
		functions can be called.  ISR safe functions are those that end in
		"FromISR".  FreeRTOS maintains separate thread and ISR API functions to
		ensure interrupt entry is as fast and simple as possible.

		Save the interrupt priority value that is about to be clobbered. */
		ulOriginalPriority = *pucFirstUserPriorityRegister;
 800770a:	68fb      	ldr	r3, [r7, #12]
 800770c:	781b      	ldrb	r3, [r3, #0]
 800770e:	b2db      	uxtb	r3, r3
 8007710:	607b      	str	r3, [r7, #4]

		/* Determine the number of priority bits available.  First write to all
		possible bits. */
		*pucFirstUserPriorityRegister = portMAX_8_BIT_VALUE;
 8007712:	68fb      	ldr	r3, [r7, #12]
 8007714:	22ff      	movs	r2, #255	@ 0xff
 8007716:	701a      	strb	r2, [r3, #0]

		/* Read the value back to see how many bits stuck. */
		ucMaxPriorityValue = *pucFirstUserPriorityRegister;
 8007718:	68fb      	ldr	r3, [r7, #12]
 800771a:	781b      	ldrb	r3, [r3, #0]
 800771c:	b2db      	uxtb	r3, r3
 800771e:	70fb      	strb	r3, [r7, #3]

		/* Use the same mask on the maximum system call priority. */
		ucMaxSysCallPriority = configMAX_SYSCALL_INTERRUPT_PRIORITY & ucMaxPriorityValue;
 8007720:	78fb      	ldrb	r3, [r7, #3]
 8007722:	b2db      	uxtb	r3, r3
 8007724:	f003 0350 	and.w	r3, r3, #80	@ 0x50
 8007728:	b2da      	uxtb	r2, r3
 800772a:	4b2f      	ldr	r3, [pc, #188]	@ (80077e8 <xPortStartScheduler+0xe8>)
 800772c:	701a      	strb	r2, [r3, #0]

		/* Calculate the maximum acceptable priority group value for the number
		of bits read back. */
		ulMaxPRIGROUPValue = portMAX_PRIGROUP_BITS;
 800772e:	4b2f      	ldr	r3, [pc, #188]	@ (80077ec <xPortStartScheduler+0xec>)
 8007730:	2207      	movs	r2, #7
 8007732:	601a      	str	r2, [r3, #0]
		while( ( ucMaxPriorityValue & portTOP_BIT_OF_BYTE ) == portTOP_BIT_OF_BYTE )
 8007734:	e009      	b.n	800774a <xPortStartScheduler+0x4a>
		{
			ulMaxPRIGROUPValue--;
 8007736:	4b2d      	ldr	r3, [pc, #180]	@ (80077ec <xPortStartScheduler+0xec>)
 8007738:	681b      	ldr	r3, [r3, #0]
 800773a:	3b01      	subs	r3, #1
 800773c:	4a2b      	ldr	r2, [pc, #172]	@ (80077ec <xPortStartScheduler+0xec>)
 800773e:	6013      	str	r3, [r2, #0]
			ucMaxPriorityValue <<= ( uint8_t ) 0x01;
 8007740:	78fb      	ldrb	r3, [r7, #3]
 8007742:	b2db      	uxtb	r3, r3
 8007744:	005b      	lsls	r3, r3, #1
 8007746:	b2db      	uxtb	r3, r3
 8007748:	70fb      	strb	r3, [r7, #3]
		while( ( ucMaxPriorityValue & portTOP_BIT_OF_BYTE ) == portTOP_BIT_OF_BYTE )
 800774a:	78fb      	ldrb	r3, [r7, #3]
 800774c:	b2db      	uxtb	r3, r3
 800774e:	f003 0380 	and.w	r3, r3, #128	@ 0x80
 8007752:	2b80      	cmp	r3, #128	@ 0x80
 8007754:	d0ef      	beq.n	8007736 <xPortStartScheduler+0x36>
		#ifdef configPRIO_BITS
		{
			/* Check the FreeRTOS configuration that defines the number of
			priority bits matches the number of priority bits actually queried
			from the hardware. */
			configASSERT( ( portMAX_PRIGROUP_BITS - ulMaxPRIGROUPValue ) == configPRIO_BITS );
 8007756:	4b25      	ldr	r3, [pc, #148]	@ (80077ec <xPortStartScheduler+0xec>)
 8007758:	681b      	ldr	r3, [r3, #0]
 800775a:	f1c3 0307 	rsb	r3, r3, #7
 800775e:	2b04      	cmp	r3, #4
 8007760:	d00d      	beq.n	800777e <xPortStartScheduler+0x7e>
	__asm volatile
 8007762:	f04f 0350 	mov.w	r3, #80	@ 0x50
 8007766:	b672      	cpsid	i
 8007768:	f383 8811 	msr	BASEPRI, r3
 800776c:	f3bf 8f6f 	isb	sy
 8007770:	f3bf 8f4f 	dsb	sy
 8007774:	b662      	cpsie	i
 8007776:	60bb      	str	r3, [r7, #8]
}
 8007778:	bf00      	nop
 800777a:	bf00      	nop
 800777c:	e7fd      	b.n	800777a <xPortStartScheduler+0x7a>
		}
		#endif

		/* Shift the priority group value back to its position within the AIRCR
		register. */
		ulMaxPRIGROUPValue <<= portPRIGROUP_SHIFT;
 800777e:	4b1b      	ldr	r3, [pc, #108]	@ (80077ec <xPortStartScheduler+0xec>)
 8007780:	681b      	ldr	r3, [r3, #0]
 8007782:	021b      	lsls	r3, r3, #8
 8007784:	4a19      	ldr	r2, [pc, #100]	@ (80077ec <xPortStartScheduler+0xec>)
 8007786:	6013      	str	r3, [r2, #0]
		ulMaxPRIGROUPValue &= portPRIORITY_GROUP_MASK;
 8007788:	4b18      	ldr	r3, [pc, #96]	@ (80077ec <xPortStartScheduler+0xec>)
 800778a:	681b      	ldr	r3, [r3, #0]
 800778c:	f403 63e0 	and.w	r3, r3, #1792	@ 0x700
 8007790:	4a16      	ldr	r2, [pc, #88]	@ (80077ec <xPortStartScheduler+0xec>)
 8007792:	6013      	str	r3, [r2, #0]

		/* Restore the clobbered interrupt priority register to its original
		value. */
		*pucFirstUserPriorityRegister = ulOriginalPriority;
 8007794:	687b      	ldr	r3, [r7, #4]
 8007796:	b2da      	uxtb	r2, r3
 8007798:	68fb      	ldr	r3, [r7, #12]
 800779a:	701a      	strb	r2, [r3, #0]
	}
	#endif /* conifgASSERT_DEFINED */

	/* Make PendSV and SysTick the lowest priority interrupts. */
	portNVIC_SYSPRI2_REG |= portNVIC_PENDSV_PRI;
 800779c:	4b14      	ldr	r3, [pc, #80]	@ (80077f0 <xPortStartScheduler+0xf0>)
 800779e:	681b      	ldr	r3, [r3, #0]
 80077a0:	4a13      	ldr	r2, [pc, #76]	@ (80077f0 <xPortStartScheduler+0xf0>)
 80077a2:	f443 0370 	orr.w	r3, r3, #15728640	@ 0xf00000
 80077a6:	6013      	str	r3, [r2, #0]
	portNVIC_SYSPRI2_REG |= portNVIC_SYSTICK_PRI;
 80077a8:	4b11      	ldr	r3, [pc, #68]	@ (80077f0 <xPortStartScheduler+0xf0>)
 80077aa:	681b      	ldr	r3, [r3, #0]
 80077ac:	4a10      	ldr	r2, [pc, #64]	@ (80077f0 <xPortStartScheduler+0xf0>)
 80077ae:	f043 4370 	orr.w	r3, r3, #4026531840	@ 0xf0000000
 80077b2:	6013      	str	r3, [r2, #0]

	/* Start the timer that generates the tick ISR.  Interrupts are disabled
	here already. */
	vPortSetupTimerInterrupt();
 80077b4:	f000 f8dc 	bl	8007970 <vPortSetupTimerInterrupt>

	/* Initialise the critical nesting count ready for the first task. */
	uxCriticalNesting = 0;
 80077b8:	4b0e      	ldr	r3, [pc, #56]	@ (80077f4 <xPortStartScheduler+0xf4>)
 80077ba:	2200      	movs	r2, #0
 80077bc:	601a      	str	r2, [r3, #0]

	/* Ensure the VFP is enabled - it should be anyway. */
	vPortEnableVFP();
 80077be:	f000 f8fb 	bl	80079b8 <vPortEnableVFP>

	/* Lazy save always. */
	*( portFPCCR ) |= portASPEN_AND_LSPEN_BITS;
 80077c2:	4b0d      	ldr	r3, [pc, #52]	@ (80077f8 <xPortStartScheduler+0xf8>)
 80077c4:	681b      	ldr	r3, [r3, #0]
 80077c6:	4a0c      	ldr	r2, [pc, #48]	@ (80077f8 <xPortStartScheduler+0xf8>)
 80077c8:	f043 4340 	orr.w	r3, r3, #3221225472	@ 0xc0000000
 80077cc:	6013      	str	r3, [r2, #0]

	/* Start the first task. */
	prvPortStartFirstTask();
 80077ce:	f7ff ff83 	bl	80076d8 <prvPortStartFirstTask>
	exit error function to prevent compiler warnings about a static function
	not being called in the case that the application writer overrides this
	functionality by defining configTASK_RETURN_ADDRESS.  Call
	vTaskSwitchContext() so link time optimisation does not remove the
	symbol. */
	vTaskSwitchContext();
 80077d2:	f7fe ff61 	bl	8006698 <vTaskSwitchContext>
	prvTaskExitError();
 80077d6:	f7ff ff35 	bl	8007644 <prvTaskExitError>

	/* Should not get here! */
	return 0;
 80077da:	2300      	movs	r3, #0
}
 80077dc:	4618      	mov	r0, r3
 80077de:	3710      	adds	r7, #16
 80077e0:	46bd      	mov	sp, r7
 80077e2:	bd80      	pop	{r7, pc}
 80077e4:	e000e400 	.word	0xe000e400
 80077e8:	20000fa4 	.word	0x20000fa4
 80077ec:	20000fa8 	.word	0x20000fa8
 80077f0:	e000ed20 	.word	0xe000ed20
 80077f4:	2000000c 	.word	0x2000000c
 80077f8:	e000ef34 	.word	0xe000ef34

080077fc <vPortEnterCritical>:
	configASSERT( uxCriticalNesting == 1000UL );
}
/*-----------------------------------------------------------*/

void vPortEnterCritical( void )
{
 80077fc:	b480      	push	{r7}
 80077fe:	b083      	sub	sp, #12
 8007800:	af00      	add	r7, sp, #0
	__asm volatile
 8007802:	f04f 0350 	mov.w	r3, #80	@ 0x50
 8007806:	b672      	cpsid	i
 8007808:	f383 8811 	msr	BASEPRI, r3
 800780c:	f3bf 8f6f 	isb	sy
 8007810:	f3bf 8f4f 	dsb	sy
 8007814:	b662      	cpsie	i
 8007816:	607b      	str	r3, [r7, #4]
}
 8007818:	bf00      	nop
	portDISABLE_INTERRUPTS();
	uxCriticalNesting++;
 800781a:	4b11      	ldr	r3, [pc, #68]	@ (8007860 <vPortEnterCritical+0x64>)
 800781c:	681b      	ldr	r3, [r3, #0]
 800781e:	3301      	adds	r3, #1
 8007820:	4a0f      	ldr	r2, [pc, #60]	@ (8007860 <vPortEnterCritical+0x64>)
 8007822:	6013      	str	r3, [r2, #0]
	/* This is not the interrupt safe version of the enter critical function so
	assert() if it is being called from an interrupt context.  Only API
	functions that end in "FromISR" can be used in an interrupt.  Only assert if
	the critical nesting count is 1 to protect against recursive calls if the
	assert function also uses a critical section. */
	if( uxCriticalNesting == 1 )
 8007824:	4b0e      	ldr	r3, [pc, #56]	@ (8007860 <vPortEnterCritical+0x64>)
 8007826:	681b      	ldr	r3, [r3, #0]
 8007828:	2b01      	cmp	r3, #1
 800782a:	d112      	bne.n	8007852 <vPortEnterCritical+0x56>
	{
		configASSERT( ( portNVIC_INT_CTRL_REG & portVECTACTIVE_MASK ) == 0 );
 800782c:	4b0d      	ldr	r3, [pc, #52]	@ (8007864 <vPortEnterCritical+0x68>)
 800782e:	681b      	ldr	r3, [r3, #0]
 8007830:	b2db      	uxtb	r3, r3
 8007832:	2b00      	cmp	r3, #0
 8007834:	d00d      	beq.n	8007852 <vPortEnterCritical+0x56>
	__asm volatile
 8007836:	f04f 0350 	mov.w	r3, #80	@ 0x50
 800783a:	b672      	cpsid	i
 800783c:	f383 8811 	msr	BASEPRI, r3
 8007840:	f3bf 8f6f 	isb	sy
 8007844:	f3bf 8f4f 	dsb	sy
 8007848:	b662      	cpsie	i
 800784a:	603b      	str	r3, [r7, #0]
}
 800784c:	bf00      	nop
 800784e:	bf00      	nop
 8007850:	e7fd      	b.n	800784e <vPortEnterCritical+0x52>
	}
}
 8007852:	bf00      	nop
 8007854:	370c      	adds	r7, #12
 8007856:	46bd      	mov	sp, r7
 8007858:	f85d 7b04 	ldr.w	r7, [sp], #4
 800785c:	4770      	bx	lr
 800785e:	bf00      	nop
 8007860:	2000000c 	.word	0x2000000c
 8007864:	e000ed04 	.word	0xe000ed04

08007868 <vPortExitCritical>:
/*-----------------------------------------------------------*/

void vPortExitCritical( void )
{
 8007868:	b480      	push	{r7}
 800786a:	b083      	sub	sp, #12
 800786c:	af00      	add	r7, sp, #0
	configASSERT( uxCriticalNesting );
 800786e:	4b13      	ldr	r3, [pc, #76]	@ (80078bc <vPortExitCritical+0x54>)
 8007870:	681b      	ldr	r3, [r3, #0]
 8007872:	2b00      	cmp	r3, #0
 8007874:	d10d      	bne.n	8007892 <vPortExitCritical+0x2a>
	__asm volatile
 8007876:	f04f 0350 	mov.w	r3, #80	@ 0x50
 800787a:	b672      	cpsid	i
 800787c:	f383 8811 	msr	BASEPRI, r3
 8007880:	f3bf 8f6f 	isb	sy
 8007884:	f3bf 8f4f 	dsb	sy
 8007888:	b662      	cpsie	i
 800788a:	607b      	str	r3, [r7, #4]
}
 800788c:	bf00      	nop
 800788e:	bf00      	nop
 8007890:	e7fd      	b.n	800788e <vPortExitCritical+0x26>
	uxCriticalNesting--;
 8007892:	4b0a      	ldr	r3, [pc, #40]	@ (80078bc <vPortExitCritical+0x54>)
 8007894:	681b      	ldr	r3, [r3, #0]
 8007896:	3b01      	subs	r3, #1
 8007898:	4a08      	ldr	r2, [pc, #32]	@ (80078bc <vPortExitCritical+0x54>)
 800789a:	6013      	str	r3, [r2, #0]
	if( uxCriticalNesting == 0 )
 800789c:	4b07      	ldr	r3, [pc, #28]	@ (80078bc <vPortExitCritical+0x54>)
 800789e:	681b      	ldr	r3, [r3, #0]
 80078a0:	2b00      	cmp	r3, #0
 80078a2:	d105      	bne.n	80078b0 <vPortExitCritical+0x48>
 80078a4:	2300      	movs	r3, #0
 80078a6:	603b      	str	r3, [r7, #0]
	__asm volatile
 80078a8:	683b      	ldr	r3, [r7, #0]
 80078aa:	f383 8811 	msr	BASEPRI, r3
}
 80078ae:	bf00      	nop
	{
		portENABLE_INTERRUPTS();
	}
}
 80078b0:	bf00      	nop
 80078b2:	370c      	adds	r7, #12
 80078b4:	46bd      	mov	sp, r7
 80078b6:	f85d 7b04 	ldr.w	r7, [sp], #4
 80078ba:	4770      	bx	lr
 80078bc:	2000000c 	.word	0x2000000c

080078c0 <PendSV_Handler>:

void xPortPendSVHandler( void )
{
	/* This is a naked function. */

	__asm volatile
 80078c0:	f3ef 8009 	mrs	r0, PSP
 80078c4:	f3bf 8f6f 	isb	sy
 80078c8:	4b15      	ldr	r3, [pc, #84]	@ (8007920 <pxCurrentTCBConst>)
 80078ca:	681a      	ldr	r2, [r3, #0]
 80078cc:	f01e 0f10 	tst.w	lr, #16
 80078d0:	bf08      	it	eq
 80078d2:	ed20 8a10 	vstmdbeq	r0!, {s16-s31}
 80078d6:	e920 4ff0 	stmdb	r0!, {r4, r5, r6, r7, r8, r9, sl, fp, lr}
 80078da:	6010      	str	r0, [r2, #0]
 80078dc:	e92d 0009 	stmdb	sp!, {r0, r3}
 80078e0:	f04f 0050 	mov.w	r0, #80	@ 0x50
 80078e4:	b672      	cpsid	i
 80078e6:	f380 8811 	msr	BASEPRI, r0
 80078ea:	f3bf 8f4f 	dsb	sy
 80078ee:	f3bf 8f6f 	isb	sy
 80078f2:	b662      	cpsie	i
 80078f4:	f7fe fed0 	bl	8006698 <vTaskSwitchContext>
 80078f8:	f04f 0000 	mov.w	r0, #0
 80078fc:	f380 8811 	msr	BASEPRI, r0
 8007900:	bc09      	pop	{r0, r3}
 8007902:	6819      	ldr	r1, [r3, #0]
 8007904:	6808      	ldr	r0, [r1, #0]
 8007906:	e8b0 4ff0 	ldmia.w	r0!, {r4, r5, r6, r7, r8, r9, sl, fp, lr}
 800790a:	f01e 0f10 	tst.w	lr, #16
 800790e:	bf08      	it	eq
 8007910:	ecb0 8a10 	vldmiaeq	r0!, {s16-s31}
 8007914:	f380 8809 	msr	PSP, r0
 8007918:	f3bf 8f6f 	isb	sy
 800791c:	4770      	bx	lr
 800791e:	bf00      	nop

08007920 <pxCurrentTCBConst>:
 8007920:	20000978 	.word	0x20000978
	"										\n"
	"	.align 4							\n"
	"pxCurrentTCBConst: .word pxCurrentTCB	\n"
	::"i"(configMAX_SYSCALL_INTERRUPT_PRIORITY)
	);
}
 8007924:	bf00      	nop
 8007926:	bf00      	nop

08007928 <SysTick_Handler>:
/*-----------------------------------------------------------*/

void xPortSysTickHandler( void )
{
 8007928:	b580      	push	{r7, lr}
 800792a:	b082      	sub	sp, #8
 800792c:	af00      	add	r7, sp, #0
	__asm volatile
 800792e:	f04f 0350 	mov.w	r3, #80	@ 0x50
 8007932:	b672      	cpsid	i
 8007934:	f383 8811 	msr	BASEPRI, r3
 8007938:	f3bf 8f6f 	isb	sy
 800793c:	f3bf 8f4f 	dsb	sy
 8007940:	b662      	cpsie	i
 8007942:	607b      	str	r3, [r7, #4]
}
 8007944:	bf00      	nop
	save and then restore the interrupt mask value as its value is already
	known. */
	portDISABLE_INTERRUPTS();
	{
		/* Increment the RTOS tick. */
		if( xTaskIncrementTick() != pdFALSE )
 8007946:	f7fe fdeb 	bl	8006520 <xTaskIncrementTick>
 800794a:	4603      	mov	r3, r0
 800794c:	2b00      	cmp	r3, #0
 800794e:	d003      	beq.n	8007958 <SysTick_Handler+0x30>
		{
			/* A context switch is required.  Context switching is performed in
			the PendSV interrupt.  Pend the PendSV interrupt. */
			portNVIC_INT_CTRL_REG = portNVIC_PENDSVSET_BIT;
 8007950:	4b06      	ldr	r3, [pc, #24]	@ (800796c <SysTick_Handler+0x44>)
 8007952:	f04f 5280 	mov.w	r2, #268435456	@ 0x10000000
 8007956:	601a      	str	r2, [r3, #0]
 8007958:	2300      	movs	r3, #0
 800795a:	603b      	str	r3, [r7, #0]
	__asm volatile
 800795c:	683b      	ldr	r3, [r7, #0]
 800795e:	f383 8811 	msr	BASEPRI, r3
}
 8007962:	bf00      	nop
		}
	}
	portENABLE_INTERRUPTS();
}
 8007964:	bf00      	nop
 8007966:	3708      	adds	r7, #8
 8007968:	46bd      	mov	sp, r7
 800796a:	bd80      	pop	{r7, pc}
 800796c:	e000ed04 	.word	0xe000ed04

08007970 <vPortSetupTimerInterrupt>:
/*
 * Setup the systick timer to generate the tick interrupts at the required
 * frequency.
 */
__attribute__(( weak )) void vPortSetupTimerInterrupt( void )
{
 8007970:	b480      	push	{r7}
 8007972:	af00      	add	r7, sp, #0
		ulStoppedTimerCompensation = portMISSED_COUNTS_FACTOR / ( configCPU_CLOCK_HZ / configSYSTICK_CLOCK_HZ );
	}
	#endif /* configUSE_TICKLESS_IDLE */

	/* Stop and clear the SysTick. */
	portNVIC_SYSTICK_CTRL_REG = 0UL;
 8007974:	4b0b      	ldr	r3, [pc, #44]	@ (80079a4 <vPortSetupTimerInterrupt+0x34>)
 8007976:	2200      	movs	r2, #0
 8007978:	601a      	str	r2, [r3, #0]
	portNVIC_SYSTICK_CURRENT_VALUE_REG = 0UL;
 800797a:	4b0b      	ldr	r3, [pc, #44]	@ (80079a8 <vPortSetupTimerInterrupt+0x38>)
 800797c:	2200      	movs	r2, #0
 800797e:	601a      	str	r2, [r3, #0]

	/* Configure SysTick to interrupt at the requested rate. */
	portNVIC_SYSTICK_LOAD_REG = ( configSYSTICK_CLOCK_HZ / configTICK_RATE_HZ ) - 1UL;
 8007980:	4b0a      	ldr	r3, [pc, #40]	@ (80079ac <vPortSetupTimerInterrupt+0x3c>)
 8007982:	681b      	ldr	r3, [r3, #0]
 8007984:	4a0a      	ldr	r2, [pc, #40]	@ (80079b0 <vPortSetupTimerInterrupt+0x40>)
 8007986:	fba2 2303 	umull	r2, r3, r2, r3
 800798a:	099b      	lsrs	r3, r3, #6
 800798c:	4a09      	ldr	r2, [pc, #36]	@ (80079b4 <vPortSetupTimerInterrupt+0x44>)
 800798e:	3b01      	subs	r3, #1
 8007990:	6013      	str	r3, [r2, #0]
	portNVIC_SYSTICK_CTRL_REG = ( portNVIC_SYSTICK_CLK_BIT | portNVIC_SYSTICK_INT_BIT | portNVIC_SYSTICK_ENABLE_BIT );
 8007992:	4b04      	ldr	r3, [pc, #16]	@ (80079a4 <vPortSetupTimerInterrupt+0x34>)
 8007994:	2207      	movs	r2, #7
 8007996:	601a      	str	r2, [r3, #0]
}
 8007998:	bf00      	nop
 800799a:	46bd      	mov	sp, r7
 800799c:	f85d 7b04 	ldr.w	r7, [sp], #4
 80079a0:	4770      	bx	lr
 80079a2:	bf00      	nop
 80079a4:	e000e010 	.word	0xe000e010
 80079a8:	e000e018 	.word	0xe000e018
 80079ac:	20000000 	.word	0x20000000
 80079b0:	10624dd3 	.word	0x10624dd3
 80079b4:	e000e014 	.word	0xe000e014

080079b8 <vPortEnableVFP>:
/*-----------------------------------------------------------*/

/* This is a naked function. */
static void vPortEnableVFP( void )
{
	__asm volatile
 80079b8:	f8df 000c 	ldr.w	r0, [pc, #12]	@ 80079c8 <vPortEnableVFP+0x10>
 80079bc:	6801      	ldr	r1, [r0, #0]
 80079be:	f441 0170 	orr.w	r1, r1, #15728640	@ 0xf00000
 80079c2:	6001      	str	r1, [r0, #0]
 80079c4:	4770      	bx	lr
		"								\n"
		"	orr r1, r1, #( 0xf << 20 )	\n" /* Enable CP10 and CP11 coprocessors, then save back. */
		"	str r1, [r0]				\n"
		"	bx r14						"
	);
}
 80079c6:	bf00      	nop
 80079c8:	e000ed88 	.word	0xe000ed88

080079cc <vPortValidateInterruptPriority>:
/*-----------------------------------------------------------*/

#if( configASSERT_DEFINED == 1 )

	void vPortValidateInterruptPriority( void )
	{
 80079cc:	b480      	push	{r7}
 80079ce:	b085      	sub	sp, #20
 80079d0:	af00      	add	r7, sp, #0
	uint32_t ulCurrentInterrupt;
	uint8_t ucCurrentPriority;

		/* Obtain the number of the currently executing interrupt. */
		__asm volatile( "mrs %0, ipsr" : "=r"( ulCurrentInterrupt ) :: "memory" );
 80079d2:	f3ef 8305 	mrs	r3, IPSR
 80079d6:	60fb      	str	r3, [r7, #12]

		/* Is the interrupt number a user defined interrupt? */
		if( ulCurrentInterrupt >= portFIRST_USER_INTERRUPT_NUMBER )
 80079d8:	68fb      	ldr	r3, [r7, #12]
 80079da:	2b0f      	cmp	r3, #15
 80079dc:	d917      	bls.n	8007a0e <vPortValidateInterruptPriority+0x42>
		{
			/* Look up the interrupt's priority. */
			ucCurrentPriority = pcInterruptPriorityRegisters[ ulCurrentInterrupt ];
 80079de:	4a1a      	ldr	r2, [pc, #104]	@ (8007a48 <vPortValidateInterruptPriority+0x7c>)
 80079e0:	68fb      	ldr	r3, [r7, #12]
 80079e2:	4413      	add	r3, r2
 80079e4:	781b      	ldrb	r3, [r3, #0]
 80079e6:	72fb      	strb	r3, [r7, #11]
			interrupt entry is as fast and simple as possible.

			The following links provide detailed information:
			http://www.freertos.org/RTOS-Cortex-M3-M4.html
			http://www.freertos.org/FAQHelp.html */
			configASSERT( ucCurrentPriority >= ucMaxSysCallPriority );
 80079e8:	4b18      	ldr	r3, [pc, #96]	@ (8007a4c <vPortValidateInterruptPriority+0x80>)
 80079ea:	781b      	ldrb	r3, [r3, #0]
 80079ec:	7afa      	ldrb	r2, [r7, #11]
 80079ee:	429a      	cmp	r2, r3
 80079f0:	d20d      	bcs.n	8007a0e <vPortValidateInterruptPriority+0x42>
	__asm volatile
 80079f2:	f04f 0350 	mov.w	r3, #80	@ 0x50
 80079f6:	b672      	cpsid	i
 80079f8:	f383 8811 	msr	BASEPRI, r3
 80079fc:	f3bf 8f6f 	isb	sy
 8007a00:	f3bf 8f4f 	dsb	sy
 8007a04:	b662      	cpsie	i
 8007a06:	607b      	str	r3, [r7, #4]
}
 8007a08:	bf00      	nop
 8007a0a:	bf00      	nop
 8007a0c:	e7fd      	b.n	8007a0a <vPortValidateInterruptPriority+0x3e>
		configuration then the correct setting can be achieved on all Cortex-M
		devices by calling NVIC_SetPriorityGrouping( 0 ); before starting the
		scheduler.  Note however that some vendor specific peripheral libraries
		assume a non-zero priority group setting, in which cases using a value
		of zero will result in unpredictable behaviour. */
		configASSERT( ( portAIRCR_REG & portPRIORITY_GROUP_MASK ) <= ulMaxPRIGROUPValue );
 8007a0e:	4b10      	ldr	r3, [pc, #64]	@ (8007a50 <vPortValidateInterruptPriority+0x84>)
 8007a10:	681b      	ldr	r3, [r3, #0]
 8007a12:	f403 62e0 	and.w	r2, r3, #1792	@ 0x700
 8007a16:	4b0f      	ldr	r3, [pc, #60]	@ (8007a54 <vPortValidateInterruptPriority+0x88>)
 8007a18:	681b      	ldr	r3, [r3, #0]
 8007a1a:	429a      	cmp	r2, r3
 8007a1c:	d90d      	bls.n	8007a3a <vPortValidateInterruptPriority+0x6e>
	__asm volatile
 8007a1e:	f04f 0350 	mov.w	r3, #80	@ 0x50
 8007a22:	b672      	cpsid	i
 8007a24:	f383 8811 	msr	BASEPRI, r3
 8007a28:	f3bf 8f6f 	isb	sy
 8007a2c:	f3bf 8f4f 	dsb	sy
 8007a30:	b662      	cpsie	i
 8007a32:	603b      	str	r3, [r7, #0]
}
 8007a34:	bf00      	nop
 8007a36:	bf00      	nop
 8007a38:	e7fd      	b.n	8007a36 <vPortValidateInterruptPriority+0x6a>
	}
 8007a3a:	bf00      	nop
 8007a3c:	3714      	adds	r7, #20
 8007a3e:	46bd      	mov	sp, r7
 8007a40:	f85d 7b04 	ldr.w	r7, [sp], #4
 8007a44:	4770      	bx	lr
 8007a46:	bf00      	nop
 8007a48:	e000e3f0 	.word	0xe000e3f0
 8007a4c:	20000fa4 	.word	0x20000fa4
 8007a50:	e000ed0c 	.word	0xe000ed0c
 8007a54:	20000fa8 	.word	0x20000fa8

08007a58 <pvPortMalloc>:
static size_t xBlockAllocatedBit = 0;

/*-----------------------------------------------------------*/

void *pvPortMalloc( size_t xWantedSize )
{
 8007a58:	b580      	push	{r7, lr}
 8007a5a:	b08a      	sub	sp, #40	@ 0x28
 8007a5c:	af00      	add	r7, sp, #0
 8007a5e:	6078      	str	r0, [r7, #4]
BlockLink_t *pxBlock, *pxPreviousBlock, *pxNewBlockLink;
void *pvReturn = NULL;
 8007a60:	2300      	movs	r3, #0
 8007a62:	61fb      	str	r3, [r7, #28]

	vTaskSuspendAll();
 8007a64:	f7fe fc9e 	bl	80063a4 <vTaskSuspendAll>
	{
		/* If this is the first call to malloc then the heap will require
		initialisation to setup the list of free blocks. */
		if( pxEnd == NULL )
 8007a68:	4b5d      	ldr	r3, [pc, #372]	@ (8007be0 <pvPortMalloc+0x188>)
 8007a6a:	681b      	ldr	r3, [r3, #0]
 8007a6c:	2b00      	cmp	r3, #0
 8007a6e:	d101      	bne.n	8007a74 <pvPortMalloc+0x1c>
		{
			prvHeapInit();
 8007a70:	f000 f920 	bl	8007cb4 <prvHeapInit>

		/* Check the requested block size is not so large that the top bit is
		set.  The top bit of the block size member of the BlockLink_t structure
		is used to determine who owns the block - the application or the
		kernel, so it must be free. */
		if( ( xWantedSize & xBlockAllocatedBit ) == 0 )
 8007a74:	4b5b      	ldr	r3, [pc, #364]	@ (8007be4 <pvPortMalloc+0x18c>)
 8007a76:	681a      	ldr	r2, [r3, #0]
 8007a78:	687b      	ldr	r3, [r7, #4]
 8007a7a:	4013      	ands	r3, r2
 8007a7c:	2b00      	cmp	r3, #0
 8007a7e:	f040 8094 	bne.w	8007baa <pvPortMalloc+0x152>
		{
			/* The wanted size is increased so it can contain a BlockLink_t
			structure in addition to the requested amount of bytes. */
			if( xWantedSize > 0 )
 8007a82:	687b      	ldr	r3, [r7, #4]
 8007a84:	2b00      	cmp	r3, #0
 8007a86:	d020      	beq.n	8007aca <pvPortMalloc+0x72>
			{
				xWantedSize += xHeapStructSize;
 8007a88:	2208      	movs	r2, #8
 8007a8a:	687b      	ldr	r3, [r7, #4]
 8007a8c:	4413      	add	r3, r2
 8007a8e:	607b      	str	r3, [r7, #4]

				/* Ensure that blocks are always aligned to the required number
				of bytes. */
				if( ( xWantedSize & portBYTE_ALIGNMENT_MASK ) != 0x00 )
 8007a90:	687b      	ldr	r3, [r7, #4]
 8007a92:	f003 0307 	and.w	r3, r3, #7
 8007a96:	2b00      	cmp	r3, #0
 8007a98:	d017      	beq.n	8007aca <pvPortMalloc+0x72>
				{
					/* Byte alignment required. */
					xWantedSize += ( portBYTE_ALIGNMENT - ( xWantedSize & portBYTE_ALIGNMENT_MASK ) );
 8007a9a:	687b      	ldr	r3, [r7, #4]
 8007a9c:	f023 0307 	bic.w	r3, r3, #7
 8007aa0:	3308      	adds	r3, #8
 8007aa2:	607b      	str	r3, [r7, #4]
					configASSERT( ( xWantedSize & portBYTE_ALIGNMENT_MASK ) == 0 );
 8007aa4:	687b      	ldr	r3, [r7, #4]
 8007aa6:	f003 0307 	and.w	r3, r3, #7
 8007aaa:	2b00      	cmp	r3, #0
 8007aac:	d00d      	beq.n	8007aca <pvPortMalloc+0x72>
	__asm volatile
 8007aae:	f04f 0350 	mov.w	r3, #80	@ 0x50
 8007ab2:	b672      	cpsid	i
 8007ab4:	f383 8811 	msr	BASEPRI, r3
 8007ab8:	f3bf 8f6f 	isb	sy
 8007abc:	f3bf 8f4f 	dsb	sy
 8007ac0:	b662      	cpsie	i
 8007ac2:	617b      	str	r3, [r7, #20]
}
 8007ac4:	bf00      	nop
 8007ac6:	bf00      	nop
 8007ac8:	e7fd      	b.n	8007ac6 <pvPortMalloc+0x6e>
			else
			{
				mtCOVERAGE_TEST_MARKER();
			}

			if( ( xWantedSize > 0 ) && ( xWantedSize <= xFreeBytesRemaining ) )
 8007aca:	687b      	ldr	r3, [r7, #4]
 8007acc:	2b00      	cmp	r3, #0
 8007ace:	d06c      	beq.n	8007baa <pvPortMalloc+0x152>
 8007ad0:	4b45      	ldr	r3, [pc, #276]	@ (8007be8 <pvPortMalloc+0x190>)
 8007ad2:	681b      	ldr	r3, [r3, #0]
 8007ad4:	687a      	ldr	r2, [r7, #4]
 8007ad6:	429a      	cmp	r2, r3
 8007ad8:	d867      	bhi.n	8007baa <pvPortMalloc+0x152>
			{
				/* Traverse the list from the start	(lowest address) block until
				one	of adequate size is found. */
				pxPreviousBlock = &xStart;
 8007ada:	4b44      	ldr	r3, [pc, #272]	@ (8007bec <pvPortMalloc+0x194>)
 8007adc:	623b      	str	r3, [r7, #32]
				pxBlock = xStart.pxNextFreeBlock;
 8007ade:	4b43      	ldr	r3, [pc, #268]	@ (8007bec <pvPortMalloc+0x194>)
 8007ae0:	681b      	ldr	r3, [r3, #0]
 8007ae2:	627b      	str	r3, [r7, #36]	@ 0x24
				while( ( pxBlock->xBlockSize < xWantedSize ) && ( pxBlock->pxNextFreeBlock != NULL ) )
 8007ae4:	e004      	b.n	8007af0 <pvPortMalloc+0x98>
				{
					pxPreviousBlock = pxBlock;
 8007ae6:	6a7b      	ldr	r3, [r7, #36]	@ 0x24
 8007ae8:	623b      	str	r3, [r7, #32]
					pxBlock = pxBlock->pxNextFreeBlock;
 8007aea:	6a7b      	ldr	r3, [r7, #36]	@ 0x24
 8007aec:	681b      	ldr	r3, [r3, #0]
 8007aee:	627b      	str	r3, [r7, #36]	@ 0x24
				while( ( pxBlock->xBlockSize < xWantedSize ) && ( pxBlock->pxNextFreeBlock != NULL ) )
 8007af0:	6a7b      	ldr	r3, [r7, #36]	@ 0x24
 8007af2:	685b      	ldr	r3, [r3, #4]
 8007af4:	687a      	ldr	r2, [r7, #4]
 8007af6:	429a      	cmp	r2, r3
 8007af8:	d903      	bls.n	8007b02 <pvPortMalloc+0xaa>
 8007afa:	6a7b      	ldr	r3, [r7, #36]	@ 0x24
 8007afc:	681b      	ldr	r3, [r3, #0]
 8007afe:	2b00      	cmp	r3, #0
 8007b00:	d1f1      	bne.n	8007ae6 <pvPortMalloc+0x8e>
				}

				/* If the end marker was reached then a block of adequate size
				was	not found. */
				if( pxBlock != pxEnd )
 8007b02:	4b37      	ldr	r3, [pc, #220]	@ (8007be0 <pvPortMalloc+0x188>)
 8007b04:	681b      	ldr	r3, [r3, #0]
 8007b06:	6a7a      	ldr	r2, [r7, #36]	@ 0x24
 8007b08:	429a      	cmp	r2, r3
 8007b0a:	d04e      	beq.n	8007baa <pvPortMalloc+0x152>
				{
					/* Return the memory space pointed to - jumping over the
					BlockLink_t structure at its start. */
					pvReturn = ( void * ) ( ( ( uint8_t * ) pxPreviousBlock->pxNextFreeBlock ) + xHeapStructSize );
 8007b0c:	6a3b      	ldr	r3, [r7, #32]
 8007b0e:	681b      	ldr	r3, [r3, #0]
 8007b10:	2208      	movs	r2, #8
 8007b12:	4413      	add	r3, r2
 8007b14:	61fb      	str	r3, [r7, #28]

					/* This block is being returned for use so must be taken out
					of the list of free blocks. */
					pxPreviousBlock->pxNextFreeBlock = pxBlock->pxNextFreeBlock;
 8007b16:	6a7b      	ldr	r3, [r7, #36]	@ 0x24
 8007b18:	681a      	ldr	r2, [r3, #0]
 8007b1a:	6a3b      	ldr	r3, [r7, #32]
 8007b1c:	601a      	str	r2, [r3, #0]

					/* If the block is larger than required it can be split into
					two. */
					if( ( pxBlock->xBlockSize - xWantedSize ) > heapMINIMUM_BLOCK_SIZE )
 8007b1e:	6a7b      	ldr	r3, [r7, #36]	@ 0x24
 8007b20:	685a      	ldr	r2, [r3, #4]
 8007b22:	687b      	ldr	r3, [r7, #4]
 8007b24:	1ad2      	subs	r2, r2, r3
 8007b26:	2308      	movs	r3, #8
 8007b28:	005b      	lsls	r3, r3, #1
 8007b2a:	429a      	cmp	r2, r3
 8007b2c:	d922      	bls.n	8007b74 <pvPortMalloc+0x11c>
					{
						/* This block is to be split into two.  Create a new
						block following the number of bytes requested. The void
						cast is used to prevent byte alignment warnings from the
						compiler. */
						pxNewBlockLink = ( void * ) ( ( ( uint8_t * ) pxBlock ) + xWantedSize );
 8007b2e:	6a7a      	ldr	r2, [r7, #36]	@ 0x24
 8007b30:	687b      	ldr	r3, [r7, #4]
 8007b32:	4413      	add	r3, r2
 8007b34:	61bb      	str	r3, [r7, #24]
						configASSERT( ( ( ( size_t ) pxNewBlockLink ) & portBYTE_ALIGNMENT_MASK ) == 0 );
 8007b36:	69bb      	ldr	r3, [r7, #24]
 8007b38:	f003 0307 	and.w	r3, r3, #7
 8007b3c:	2b00      	cmp	r3, #0
 8007b3e:	d00d      	beq.n	8007b5c <pvPortMalloc+0x104>
	__asm volatile
 8007b40:	f04f 0350 	mov.w	r3, #80	@ 0x50
 8007b44:	b672      	cpsid	i
 8007b46:	f383 8811 	msr	BASEPRI, r3
 8007b4a:	f3bf 8f6f 	isb	sy
 8007b4e:	f3bf 8f4f 	dsb	sy
 8007b52:	b662      	cpsie	i
 8007b54:	613b      	str	r3, [r7, #16]
}
 8007b56:	bf00      	nop
 8007b58:	bf00      	nop
 8007b5a:	e7fd      	b.n	8007b58 <pvPortMalloc+0x100>

						/* Calculate the sizes of two blocks split from the
						single block. */
						pxNewBlockLink->xBlockSize = pxBlock->xBlockSize - xWantedSize;
 8007b5c:	6a7b      	ldr	r3, [r7, #36]	@ 0x24
 8007b5e:	685a      	ldr	r2, [r3, #4]
 8007b60:	687b      	ldr	r3, [r7, #4]
 8007b62:	1ad2      	subs	r2, r2, r3
 8007b64:	69bb      	ldr	r3, [r7, #24]
 8007b66:	605a      	str	r2, [r3, #4]
						pxBlock->xBlockSize = xWantedSize;
 8007b68:	6a7b      	ldr	r3, [r7, #36]	@ 0x24
 8007b6a:	687a      	ldr	r2, [r7, #4]
 8007b6c:	605a      	str	r2, [r3, #4]

						/* Insert the new block into the list of free blocks. */
						prvInsertBlockIntoFreeList( pxNewBlockLink );
 8007b6e:	69b8      	ldr	r0, [r7, #24]
 8007b70:	f000 f902 	bl	8007d78 <prvInsertBlockIntoFreeList>
					else
					{
						mtCOVERAGE_TEST_MARKER();
					}

					xFreeBytesRemaining -= pxBlock->xBlockSize;
 8007b74:	4b1c      	ldr	r3, [pc, #112]	@ (8007be8 <pvPortMalloc+0x190>)
 8007b76:	681a      	ldr	r2, [r3, #0]
 8007b78:	6a7b      	ldr	r3, [r7, #36]	@ 0x24
 8007b7a:	685b      	ldr	r3, [r3, #4]
 8007b7c:	1ad3      	subs	r3, r2, r3
 8007b7e:	4a1a      	ldr	r2, [pc, #104]	@ (8007be8 <pvPortMalloc+0x190>)
 8007b80:	6013      	str	r3, [r2, #0]

					if( xFreeBytesRemaining < xMinimumEverFreeBytesRemaining )
 8007b82:	4b19      	ldr	r3, [pc, #100]	@ (8007be8 <pvPortMalloc+0x190>)
 8007b84:	681a      	ldr	r2, [r3, #0]
 8007b86:	4b1a      	ldr	r3, [pc, #104]	@ (8007bf0 <pvPortMalloc+0x198>)
 8007b88:	681b      	ldr	r3, [r3, #0]
 8007b8a:	429a      	cmp	r2, r3
 8007b8c:	d203      	bcs.n	8007b96 <pvPortMalloc+0x13e>
					{
						xMinimumEverFreeBytesRemaining = xFreeBytesRemaining;
 8007b8e:	4b16      	ldr	r3, [pc, #88]	@ (8007be8 <pvPortMalloc+0x190>)
 8007b90:	681b      	ldr	r3, [r3, #0]
 8007b92:	4a17      	ldr	r2, [pc, #92]	@ (8007bf0 <pvPortMalloc+0x198>)
 8007b94:	6013      	str	r3, [r2, #0]
						mtCOVERAGE_TEST_MARKER();
					}

					/* The block is being returned - it is allocated and owned
					by the application and has no "next" block. */
					pxBlock->xBlockSize |= xBlockAllocatedBit;
 8007b96:	6a7b      	ldr	r3, [r7, #36]	@ 0x24
 8007b98:	685a      	ldr	r2, [r3, #4]
 8007b9a:	4b12      	ldr	r3, [pc, #72]	@ (8007be4 <pvPortMalloc+0x18c>)
 8007b9c:	681b      	ldr	r3, [r3, #0]
 8007b9e:	431a      	orrs	r2, r3
 8007ba0:	6a7b      	ldr	r3, [r7, #36]	@ 0x24
 8007ba2:	605a      	str	r2, [r3, #4]
					pxBlock->pxNextFreeBlock = NULL;
 8007ba4:	6a7b      	ldr	r3, [r7, #36]	@ 0x24
 8007ba6:	2200      	movs	r2, #0
 8007ba8:	601a      	str	r2, [r3, #0]
			mtCOVERAGE_TEST_MARKER();
		}

		traceMALLOC( pvReturn, xWantedSize );
	}
	( void ) xTaskResumeAll();
 8007baa:	f7fe fc09 	bl	80063c0 <xTaskResumeAll>
			mtCOVERAGE_TEST_MARKER();
		}
	}
	#endif

	configASSERT( ( ( ( size_t ) pvReturn ) & ( size_t ) portBYTE_ALIGNMENT_MASK ) == 0 );
 8007bae:	69fb      	ldr	r3, [r7, #28]
 8007bb0:	f003 0307 	and.w	r3, r3, #7
 8007bb4:	2b00      	cmp	r3, #0
 8007bb6:	d00d      	beq.n	8007bd4 <pvPortMalloc+0x17c>
	__asm volatile
 8007bb8:	f04f 0350 	mov.w	r3, #80	@ 0x50
 8007bbc:	b672      	cpsid	i
 8007bbe:	f383 8811 	msr	BASEPRI, r3
 8007bc2:	f3bf 8f6f 	isb	sy
 8007bc6:	f3bf 8f4f 	dsb	sy
 8007bca:	b662      	cpsie	i
 8007bcc:	60fb      	str	r3, [r7, #12]
}
 8007bce:	bf00      	nop
 8007bd0:	bf00      	nop
 8007bd2:	e7fd      	b.n	8007bd0 <pvPortMalloc+0x178>
	return pvReturn;
 8007bd4:	69fb      	ldr	r3, [r7, #28]
}
 8007bd6:	4618      	mov	r0, r3
 8007bd8:	3728      	adds	r7, #40	@ 0x28
 8007bda:	46bd      	mov	sp, r7
 8007bdc:	bd80      	pop	{r7, pc}
 8007bde:	bf00      	nop
 8007be0:	20004bb4 	.word	0x20004bb4
 8007be4:	20004bc0 	.word	0x20004bc0
 8007be8:	20004bb8 	.word	0x20004bb8
 8007bec:	20004bac 	.word	0x20004bac
 8007bf0:	20004bbc 	.word	0x20004bbc

08007bf4 <vPortFree>:
/*-----------------------------------------------------------*/

void vPortFree( void *pv )
{
 8007bf4:	b580      	push	{r7, lr}
 8007bf6:	b086      	sub	sp, #24
 8007bf8:	af00      	add	r7, sp, #0
 8007bfa:	6078      	str	r0, [r7, #4]
uint8_t *puc = ( uint8_t * ) pv;
 8007bfc:	687b      	ldr	r3, [r7, #4]
 8007bfe:	617b      	str	r3, [r7, #20]
BlockLink_t *pxLink;

	if( pv != NULL )
 8007c00:	687b      	ldr	r3, [r7, #4]
 8007c02:	2b00      	cmp	r3, #0
 8007c04:	d04e      	beq.n	8007ca4 <vPortFree+0xb0>
	{
		/* The memory being freed will have an BlockLink_t structure immediately
		before it. */
		puc -= xHeapStructSize;
 8007c06:	2308      	movs	r3, #8
 8007c08:	425b      	negs	r3, r3
 8007c0a:	697a      	ldr	r2, [r7, #20]
 8007c0c:	4413      	add	r3, r2
 8007c0e:	617b      	str	r3, [r7, #20]

		/* This casting is to keep the compiler from issuing warnings. */
		pxLink = ( void * ) puc;
 8007c10:	697b      	ldr	r3, [r7, #20]
 8007c12:	613b      	str	r3, [r7, #16]

		/* Check the block is actually allocated. */
		configASSERT( ( pxLink->xBlockSize & xBlockAllocatedBit ) != 0 );
 8007c14:	693b      	ldr	r3, [r7, #16]
 8007c16:	685a      	ldr	r2, [r3, #4]
 8007c18:	4b24      	ldr	r3, [pc, #144]	@ (8007cac <vPortFree+0xb8>)
 8007c1a:	681b      	ldr	r3, [r3, #0]
 8007c1c:	4013      	ands	r3, r2
 8007c1e:	2b00      	cmp	r3, #0
 8007c20:	d10d      	bne.n	8007c3e <vPortFree+0x4a>
	__asm volatile
 8007c22:	f04f 0350 	mov.w	r3, #80	@ 0x50
 8007c26:	b672      	cpsid	i
 8007c28:	f383 8811 	msr	BASEPRI, r3
 8007c2c:	f3bf 8f6f 	isb	sy
 8007c30:	f3bf 8f4f 	dsb	sy
 8007c34:	b662      	cpsie	i
 8007c36:	60fb      	str	r3, [r7, #12]
}
 8007c38:	bf00      	nop
 8007c3a:	bf00      	nop
 8007c3c:	e7fd      	b.n	8007c3a <vPortFree+0x46>
		configASSERT( pxLink->pxNextFreeBlock == NULL );
 8007c3e:	693b      	ldr	r3, [r7, #16]
 8007c40:	681b      	ldr	r3, [r3, #0]
 8007c42:	2b00      	cmp	r3, #0
 8007c44:	d00d      	beq.n	8007c62 <vPortFree+0x6e>
	__asm volatile
 8007c46:	f04f 0350 	mov.w	r3, #80	@ 0x50
 8007c4a:	b672      	cpsid	i
 8007c4c:	f383 8811 	msr	BASEPRI, r3
 8007c50:	f3bf 8f6f 	isb	sy
 8007c54:	f3bf 8f4f 	dsb	sy
 8007c58:	b662      	cpsie	i
 8007c5a:	60bb      	str	r3, [r7, #8]
}
 8007c5c:	bf00      	nop
 8007c5e:	bf00      	nop
 8007c60:	e7fd      	b.n	8007c5e <vPortFree+0x6a>

		if( ( pxLink->xBlockSize & xBlockAllocatedBit ) != 0 )
 8007c62:	693b      	ldr	r3, [r7, #16]
 8007c64:	685a      	ldr	r2, [r3, #4]
 8007c66:	4b11      	ldr	r3, [pc, #68]	@ (8007cac <vPortFree+0xb8>)
 8007c68:	681b      	ldr	r3, [r3, #0]
 8007c6a:	4013      	ands	r3, r2
 8007c6c:	2b00      	cmp	r3, #0
 8007c6e:	d019      	beq.n	8007ca4 <vPortFree+0xb0>
		{
			if( pxLink->pxNextFreeBlock == NULL )
 8007c70:	693b      	ldr	r3, [r7, #16]
 8007c72:	681b      	ldr	r3, [r3, #0]
 8007c74:	2b00      	cmp	r3, #0
 8007c76:	d115      	bne.n	8007ca4 <vPortFree+0xb0>
			{
				/* The block is being returned to the heap - it is no longer
				allocated. */
				pxLink->xBlockSize &= ~xBlockAllocatedBit;
 8007c78:	693b      	ldr	r3, [r7, #16]
 8007c7a:	685a      	ldr	r2, [r3, #4]
 8007c7c:	4b0b      	ldr	r3, [pc, #44]	@ (8007cac <vPortFree+0xb8>)
 8007c7e:	681b      	ldr	r3, [r3, #0]
 8007c80:	43db      	mvns	r3, r3
 8007c82:	401a      	ands	r2, r3
 8007c84:	693b      	ldr	r3, [r7, #16]
 8007c86:	605a      	str	r2, [r3, #4]

				vTaskSuspendAll();
 8007c88:	f7fe fb8c 	bl	80063a4 <vTaskSuspendAll>
				{
					/* Add this block to the list of free blocks. */
					xFreeBytesRemaining += pxLink->xBlockSize;
 8007c8c:	693b      	ldr	r3, [r7, #16]
 8007c8e:	685a      	ldr	r2, [r3, #4]
 8007c90:	4b07      	ldr	r3, [pc, #28]	@ (8007cb0 <vPortFree+0xbc>)
 8007c92:	681b      	ldr	r3, [r3, #0]
 8007c94:	4413      	add	r3, r2
 8007c96:	4a06      	ldr	r2, [pc, #24]	@ (8007cb0 <vPortFree+0xbc>)
 8007c98:	6013      	str	r3, [r2, #0]
					traceFREE( pv, pxLink->xBlockSize );
					prvInsertBlockIntoFreeList( ( ( BlockLink_t * ) pxLink ) );
 8007c9a:	6938      	ldr	r0, [r7, #16]
 8007c9c:	f000 f86c 	bl	8007d78 <prvInsertBlockIntoFreeList>
				}
				( void ) xTaskResumeAll();
 8007ca0:	f7fe fb8e 	bl	80063c0 <xTaskResumeAll>
		else
		{
			mtCOVERAGE_TEST_MARKER();
		}
	}
}
 8007ca4:	bf00      	nop
 8007ca6:	3718      	adds	r7, #24
 8007ca8:	46bd      	mov	sp, r7
 8007caa:	bd80      	pop	{r7, pc}
 8007cac:	20004bc0 	.word	0x20004bc0
 8007cb0:	20004bb8 	.word	0x20004bb8

08007cb4 <prvHeapInit>:
	/* This just exists to keep the linker quiet. */
}
/*-----------------------------------------------------------*/

static void prvHeapInit( void )
{
 8007cb4:	b480      	push	{r7}
 8007cb6:	b085      	sub	sp, #20
 8007cb8:	af00      	add	r7, sp, #0
BlockLink_t *pxFirstFreeBlock;
uint8_t *pucAlignedHeap;
size_t uxAddress;
size_t xTotalHeapSize = configTOTAL_HEAP_SIZE;
 8007cba:	f44f 5370 	mov.w	r3, #15360	@ 0x3c00
 8007cbe:	60bb      	str	r3, [r7, #8]

	/* Ensure the heap starts on a correctly aligned boundary. */
	uxAddress = ( size_t ) ucHeap;
 8007cc0:	4b27      	ldr	r3, [pc, #156]	@ (8007d60 <prvHeapInit+0xac>)
 8007cc2:	60fb      	str	r3, [r7, #12]

	if( ( uxAddress & portBYTE_ALIGNMENT_MASK ) != 0 )
 8007cc4:	68fb      	ldr	r3, [r7, #12]
 8007cc6:	f003 0307 	and.w	r3, r3, #7
 8007cca:	2b00      	cmp	r3, #0
 8007ccc:	d00c      	beq.n	8007ce8 <prvHeapInit+0x34>
	{
		uxAddress += ( portBYTE_ALIGNMENT - 1 );
 8007cce:	68fb      	ldr	r3, [r7, #12]
 8007cd0:	3307      	adds	r3, #7
 8007cd2:	60fb      	str	r3, [r7, #12]
		uxAddress &= ~( ( size_t ) portBYTE_ALIGNMENT_MASK );
 8007cd4:	68fb      	ldr	r3, [r7, #12]
 8007cd6:	f023 0307 	bic.w	r3, r3, #7
 8007cda:	60fb      	str	r3, [r7, #12]
		xTotalHeapSize -= uxAddress - ( size_t ) ucHeap;
 8007cdc:	68ba      	ldr	r2, [r7, #8]
 8007cde:	68fb      	ldr	r3, [r7, #12]
 8007ce0:	1ad3      	subs	r3, r2, r3
 8007ce2:	4a1f      	ldr	r2, [pc, #124]	@ (8007d60 <prvHeapInit+0xac>)
 8007ce4:	4413      	add	r3, r2
 8007ce6:	60bb      	str	r3, [r7, #8]
	}

	pucAlignedHeap = ( uint8_t * ) uxAddress;
 8007ce8:	68fb      	ldr	r3, [r7, #12]
 8007cea:	607b      	str	r3, [r7, #4]

	/* xStart is used to hold a pointer to the first item in the list of free
	blocks.  The void cast is used to prevent compiler warnings. */
	xStart.pxNextFreeBlock = ( void * ) pucAlignedHeap;
 8007cec:	4a1d      	ldr	r2, [pc, #116]	@ (8007d64 <prvHeapInit+0xb0>)
 8007cee:	687b      	ldr	r3, [r7, #4]
 8007cf0:	6013      	str	r3, [r2, #0]
	xStart.xBlockSize = ( size_t ) 0;
 8007cf2:	4b1c      	ldr	r3, [pc, #112]	@ (8007d64 <prvHeapInit+0xb0>)
 8007cf4:	2200      	movs	r2, #0
 8007cf6:	605a      	str	r2, [r3, #4]

	/* pxEnd is used to mark the end of the list of free blocks and is inserted
	at the end of the heap space. */
	uxAddress = ( ( size_t ) pucAlignedHeap ) + xTotalHeapSize;
 8007cf8:	687b      	ldr	r3, [r7, #4]
 8007cfa:	68ba      	ldr	r2, [r7, #8]
 8007cfc:	4413      	add	r3, r2
 8007cfe:	60fb      	str	r3, [r7, #12]
	uxAddress -= xHeapStructSize;
 8007d00:	2208      	movs	r2, #8
 8007d02:	68fb      	ldr	r3, [r7, #12]
 8007d04:	1a9b      	subs	r3, r3, r2
 8007d06:	60fb      	str	r3, [r7, #12]
	uxAddress &= ~( ( size_t ) portBYTE_ALIGNMENT_MASK );
 8007d08:	68fb      	ldr	r3, [r7, #12]
 8007d0a:	f023 0307 	bic.w	r3, r3, #7
 8007d0e:	60fb      	str	r3, [r7, #12]
	pxEnd = ( void * ) uxAddress;
 8007d10:	68fb      	ldr	r3, [r7, #12]
 8007d12:	4a15      	ldr	r2, [pc, #84]	@ (8007d68 <prvHeapInit+0xb4>)
 8007d14:	6013      	str	r3, [r2, #0]
	pxEnd->xBlockSize = 0;
 8007d16:	4b14      	ldr	r3, [pc, #80]	@ (8007d68 <prvHeapInit+0xb4>)
 8007d18:	681b      	ldr	r3, [r3, #0]
 8007d1a:	2200      	movs	r2, #0
 8007d1c:	605a      	str	r2, [r3, #4]
	pxEnd->pxNextFreeBlock = NULL;
 8007d1e:	4b12      	ldr	r3, [pc, #72]	@ (8007d68 <prvHeapInit+0xb4>)
 8007d20:	681b      	ldr	r3, [r3, #0]
 8007d22:	2200      	movs	r2, #0
 8007d24:	601a      	str	r2, [r3, #0]

	/* To start with there is a single free block that is sized to take up the
	entire heap space, minus the space taken by pxEnd. */
	pxFirstFreeBlock = ( void * ) pucAlignedHeap;
 8007d26:	687b      	ldr	r3, [r7, #4]
 8007d28:	603b      	str	r3, [r7, #0]
	pxFirstFreeBlock->xBlockSize = uxAddress - ( size_t ) pxFirstFreeBlock;
 8007d2a:	683b      	ldr	r3, [r7, #0]
 8007d2c:	68fa      	ldr	r2, [r7, #12]
 8007d2e:	1ad2      	subs	r2, r2, r3
 8007d30:	683b      	ldr	r3, [r7, #0]
 8007d32:	605a      	str	r2, [r3, #4]
	pxFirstFreeBlock->pxNextFreeBlock = pxEnd;
 8007d34:	4b0c      	ldr	r3, [pc, #48]	@ (8007d68 <prvHeapInit+0xb4>)
 8007d36:	681a      	ldr	r2, [r3, #0]
 8007d38:	683b      	ldr	r3, [r7, #0]
 8007d3a:	601a      	str	r2, [r3, #0]

	/* Only one block exists - and it covers the entire usable heap space. */
	xMinimumEverFreeBytesRemaining = pxFirstFreeBlock->xBlockSize;
 8007d3c:	683b      	ldr	r3, [r7, #0]
 8007d3e:	685b      	ldr	r3, [r3, #4]
 8007d40:	4a0a      	ldr	r2, [pc, #40]	@ (8007d6c <prvHeapInit+0xb8>)
 8007d42:	6013      	str	r3, [r2, #0]
	xFreeBytesRemaining = pxFirstFreeBlock->xBlockSize;
 8007d44:	683b      	ldr	r3, [r7, #0]
 8007d46:	685b      	ldr	r3, [r3, #4]
 8007d48:	4a09      	ldr	r2, [pc, #36]	@ (8007d70 <prvHeapInit+0xbc>)
 8007d4a:	6013      	str	r3, [r2, #0]

	/* Work out the position of the top bit in a size_t variable. */
	xBlockAllocatedBit = ( ( size_t ) 1 ) << ( ( sizeof( size_t ) * heapBITS_PER_BYTE ) - 1 );
 8007d4c:	4b09      	ldr	r3, [pc, #36]	@ (8007d74 <prvHeapInit+0xc0>)
 8007d4e:	f04f 4200 	mov.w	r2, #2147483648	@ 0x80000000
 8007d52:	601a      	str	r2, [r3, #0]
}
 8007d54:	bf00      	nop
 8007d56:	3714      	adds	r7, #20
 8007d58:	46bd      	mov	sp, r7
 8007d5a:	f85d 7b04 	ldr.w	r7, [sp], #4
 8007d5e:	4770      	bx	lr
 8007d60:	20000fac 	.word	0x20000fac
 8007d64:	20004bac 	.word	0x20004bac
 8007d68:	20004bb4 	.word	0x20004bb4
 8007d6c:	20004bbc 	.word	0x20004bbc
 8007d70:	20004bb8 	.word	0x20004bb8
 8007d74:	20004bc0 	.word	0x20004bc0

08007d78 <prvInsertBlockIntoFreeList>:
/*-----------------------------------------------------------*/

static void prvInsertBlockIntoFreeList( BlockLink_t *pxBlockToInsert )
{
 8007d78:	b480      	push	{r7}
 8007d7a:	b085      	sub	sp, #20
 8007d7c:	af00      	add	r7, sp, #0
 8007d7e:	6078      	str	r0, [r7, #4]
BlockLink_t *pxIterator;
uint8_t *puc;

	/* Iterate through the list until a block is found that has a higher address
	than the block being inserted. */
	for( pxIterator = &xStart; pxIterator->pxNextFreeBlock < pxBlockToInsert; pxIterator = pxIterator->pxNextFreeBlock )
 8007d80:	4b28      	ldr	r3, [pc, #160]	@ (8007e24 <prvInsertBlockIntoFreeList+0xac>)
 8007d82:	60fb      	str	r3, [r7, #12]
 8007d84:	e002      	b.n	8007d8c <prvInsertBlockIntoFreeList+0x14>
 8007d86:	68fb      	ldr	r3, [r7, #12]
 8007d88:	681b      	ldr	r3, [r3, #0]
 8007d8a:	60fb      	str	r3, [r7, #12]
 8007d8c:	68fb      	ldr	r3, [r7, #12]
 8007d8e:	681b      	ldr	r3, [r3, #0]
 8007d90:	687a      	ldr	r2, [r7, #4]
 8007d92:	429a      	cmp	r2, r3
 8007d94:	d8f7      	bhi.n	8007d86 <prvInsertBlockIntoFreeList+0xe>
		/* Nothing to do here, just iterate to the right position. */
	}

	/* Do the block being inserted, and the block it is being inserted after
	make a contiguous block of memory? */
	puc = ( uint8_t * ) pxIterator;
 8007d96:	68fb      	ldr	r3, [r7, #12]
 8007d98:	60bb      	str	r3, [r7, #8]
	if( ( puc + pxIterator->xBlockSize ) == ( uint8_t * ) pxBlockToInsert )
 8007d9a:	68fb      	ldr	r3, [r7, #12]
 8007d9c:	685b      	ldr	r3, [r3, #4]
 8007d9e:	68ba      	ldr	r2, [r7, #8]
 8007da0:	4413      	add	r3, r2
 8007da2:	687a      	ldr	r2, [r7, #4]
 8007da4:	429a      	cmp	r2, r3
 8007da6:	d108      	bne.n	8007dba <prvInsertBlockIntoFreeList+0x42>
	{
		pxIterator->xBlockSize += pxBlockToInsert->xBlockSize;
 8007da8:	68fb      	ldr	r3, [r7, #12]
 8007daa:	685a      	ldr	r2, [r3, #4]
 8007dac:	687b      	ldr	r3, [r7, #4]
 8007dae:	685b      	ldr	r3, [r3, #4]
 8007db0:	441a      	add	r2, r3
 8007db2:	68fb      	ldr	r3, [r7, #12]
 8007db4:	605a      	str	r2, [r3, #4]
		pxBlockToInsert = pxIterator;
 8007db6:	68fb      	ldr	r3, [r7, #12]
 8007db8:	607b      	str	r3, [r7, #4]
		mtCOVERAGE_TEST_MARKER();
	}

	/* Do the block being inserted, and the block it is being inserted before
	make a contiguous block of memory? */
	puc = ( uint8_t * ) pxBlockToInsert;
 8007dba:	687b      	ldr	r3, [r7, #4]
 8007dbc:	60bb      	str	r3, [r7, #8]
	if( ( puc + pxBlockToInsert->xBlockSize ) == ( uint8_t * ) pxIterator->pxNextFreeBlock )
 8007dbe:	687b      	ldr	r3, [r7, #4]
 8007dc0:	685b      	ldr	r3, [r3, #4]
 8007dc2:	68ba      	ldr	r2, [r7, #8]
 8007dc4:	441a      	add	r2, r3
 8007dc6:	68fb      	ldr	r3, [r7, #12]
 8007dc8:	681b      	ldr	r3, [r3, #0]
 8007dca:	429a      	cmp	r2, r3
 8007dcc:	d118      	bne.n	8007e00 <prvInsertBlockIntoFreeList+0x88>
	{
		if( pxIterator->pxNextFreeBlock != pxEnd )
 8007dce:	68fb      	ldr	r3, [r7, #12]
 8007dd0:	681a      	ldr	r2, [r3, #0]
 8007dd2:	4b15      	ldr	r3, [pc, #84]	@ (8007e28 <prvInsertBlockIntoFreeList+0xb0>)
 8007dd4:	681b      	ldr	r3, [r3, #0]
 8007dd6:	429a      	cmp	r2, r3
 8007dd8:	d00d      	beq.n	8007df6 <prvInsertBlockIntoFreeList+0x7e>
		{
			/* Form one big block from the two blocks. */
			pxBlockToInsert->xBlockSize += pxIterator->pxNextFreeBlock->xBlockSize;
 8007dda:	687b      	ldr	r3, [r7, #4]
 8007ddc:	685a      	ldr	r2, [r3, #4]
 8007dde:	68fb      	ldr	r3, [r7, #12]
 8007de0:	681b      	ldr	r3, [r3, #0]
 8007de2:	685b      	ldr	r3, [r3, #4]
 8007de4:	441a      	add	r2, r3
 8007de6:	687b      	ldr	r3, [r7, #4]
 8007de8:	605a      	str	r2, [r3, #4]
			pxBlockToInsert->pxNextFreeBlock = pxIterator->pxNextFreeBlock->pxNextFreeBlock;
 8007dea:	68fb      	ldr	r3, [r7, #12]
 8007dec:	681b      	ldr	r3, [r3, #0]
 8007dee:	681a      	ldr	r2, [r3, #0]
 8007df0:	687b      	ldr	r3, [r7, #4]
 8007df2:	601a      	str	r2, [r3, #0]
 8007df4:	e008      	b.n	8007e08 <prvInsertBlockIntoFreeList+0x90>
		}
		else
		{
			pxBlockToInsert->pxNextFreeBlock = pxEnd;
 8007df6:	4b0c      	ldr	r3, [pc, #48]	@ (8007e28 <prvInsertBlockIntoFreeList+0xb0>)
 8007df8:	681a      	ldr	r2, [r3, #0]
 8007dfa:	687b      	ldr	r3, [r7, #4]
 8007dfc:	601a      	str	r2, [r3, #0]
 8007dfe:	e003      	b.n	8007e08 <prvInsertBlockIntoFreeList+0x90>
		}
	}
	else
	{
		pxBlockToInsert->pxNextFreeBlock = pxIterator->pxNextFreeBlock;
 8007e00:	68fb      	ldr	r3, [r7, #12]
 8007e02:	681a      	ldr	r2, [r3, #0]
 8007e04:	687b      	ldr	r3, [r7, #4]
 8007e06:	601a      	str	r2, [r3, #0]

	/* If the block being inserted plugged a gab, so was merged with the block
	before and the block after, then it's pxNextFreeBlock pointer will have
	already been set, and should not be set here as that would make it point
	to itself. */
	if( pxIterator != pxBlockToInsert )
 8007e08:	68fa      	ldr	r2, [r7, #12]
 8007e0a:	687b      	ldr	r3, [r7, #4]
 8007e0c:	429a      	cmp	r2, r3
 8007e0e:	d002      	beq.n	8007e16 <prvInsertBlockIntoFreeList+0x9e>
	{
		pxIterator->pxNextFreeBlock = pxBlockToInsert;
 8007e10:	68fb      	ldr	r3, [r7, #12]
 8007e12:	687a      	ldr	r2, [r7, #4]
 8007e14:	601a      	str	r2, [r3, #0]
	}
	else
	{
		mtCOVERAGE_TEST_MARKER();
	}
}
 8007e16:	bf00      	nop
 8007e18:	3714      	adds	r7, #20
 8007e1a:	46bd      	mov	sp, r7
 8007e1c:	f85d 7b04 	ldr.w	r7, [sp], #4
 8007e20:	4770      	bx	lr
 8007e22:	bf00      	nop
 8007e24:	20004bac 	.word	0x20004bac
 8007e28:	20004bb4 	.word	0x20004bb4

08007e2c <memset>:
 8007e2c:	4402      	add	r2, r0
 8007e2e:	4603      	mov	r3, r0
 8007e30:	4293      	cmp	r3, r2
 8007e32:	d100      	bne.n	8007e36 <memset+0xa>
 8007e34:	4770      	bx	lr
 8007e36:	f803 1b01 	strb.w	r1, [r3], #1
 8007e3a:	e7f9      	b.n	8007e30 <memset+0x4>

08007e3c <_reclaim_reent>:
 8007e3c:	4b29      	ldr	r3, [pc, #164]	@ (8007ee4 <_reclaim_reent+0xa8>)
 8007e3e:	681b      	ldr	r3, [r3, #0]
 8007e40:	4283      	cmp	r3, r0
 8007e42:	b570      	push	{r4, r5, r6, lr}
 8007e44:	4604      	mov	r4, r0
 8007e46:	d04b      	beq.n	8007ee0 <_reclaim_reent+0xa4>
 8007e48:	69c3      	ldr	r3, [r0, #28]
 8007e4a:	b1ab      	cbz	r3, 8007e78 <_reclaim_reent+0x3c>
 8007e4c:	68db      	ldr	r3, [r3, #12]
 8007e4e:	b16b      	cbz	r3, 8007e6c <_reclaim_reent+0x30>
 8007e50:	2500      	movs	r5, #0
 8007e52:	69e3      	ldr	r3, [r4, #28]
 8007e54:	68db      	ldr	r3, [r3, #12]
 8007e56:	5959      	ldr	r1, [r3, r5]
 8007e58:	2900      	cmp	r1, #0
 8007e5a:	d13b      	bne.n	8007ed4 <_reclaim_reent+0x98>
 8007e5c:	3504      	adds	r5, #4
 8007e5e:	2d80      	cmp	r5, #128	@ 0x80
 8007e60:	d1f7      	bne.n	8007e52 <_reclaim_reent+0x16>
 8007e62:	69e3      	ldr	r3, [r4, #28]
 8007e64:	4620      	mov	r0, r4
 8007e66:	68d9      	ldr	r1, [r3, #12]
 8007e68:	f000 f872 	bl	8007f50 <_free_r>
 8007e6c:	69e3      	ldr	r3, [r4, #28]
 8007e6e:	6819      	ldr	r1, [r3, #0]
 8007e70:	b111      	cbz	r1, 8007e78 <_reclaim_reent+0x3c>
 8007e72:	4620      	mov	r0, r4
 8007e74:	f000 f86c 	bl	8007f50 <_free_r>
 8007e78:	6961      	ldr	r1, [r4, #20]
 8007e7a:	b111      	cbz	r1, 8007e82 <_reclaim_reent+0x46>
 8007e7c:	4620      	mov	r0, r4
 8007e7e:	f000 f867 	bl	8007f50 <_free_r>
 8007e82:	69e1      	ldr	r1, [r4, #28]
 8007e84:	b111      	cbz	r1, 8007e8c <_reclaim_reent+0x50>
 8007e86:	4620      	mov	r0, r4
 8007e88:	f000 f862 	bl	8007f50 <_free_r>
 8007e8c:	6b21      	ldr	r1, [r4, #48]	@ 0x30
 8007e8e:	b111      	cbz	r1, 8007e96 <_reclaim_reent+0x5a>
 8007e90:	4620      	mov	r0, r4
 8007e92:	f000 f85d 	bl	8007f50 <_free_r>
 8007e96:	6b61      	ldr	r1, [r4, #52]	@ 0x34
 8007e98:	b111      	cbz	r1, 8007ea0 <_reclaim_reent+0x64>
 8007e9a:	4620      	mov	r0, r4
 8007e9c:	f000 f858 	bl	8007f50 <_free_r>
 8007ea0:	6ba1      	ldr	r1, [r4, #56]	@ 0x38
 8007ea2:	b111      	cbz	r1, 8007eaa <_reclaim_reent+0x6e>
 8007ea4:	4620      	mov	r0, r4
 8007ea6:	f000 f853 	bl	8007f50 <_free_r>
 8007eaa:	6ca1      	ldr	r1, [r4, #72]	@ 0x48
 8007eac:	b111      	cbz	r1, 8007eb4 <_reclaim_reent+0x78>
 8007eae:	4620      	mov	r0, r4
 8007eb0:	f000 f84e 	bl	8007f50 <_free_r>
 8007eb4:	6c61      	ldr	r1, [r4, #68]	@ 0x44
 8007eb6:	b111      	cbz	r1, 8007ebe <_reclaim_reent+0x82>
 8007eb8:	4620      	mov	r0, r4
 8007eba:	f000 f849 	bl	8007f50 <_free_r>
 8007ebe:	6ae1      	ldr	r1, [r4, #44]	@ 0x2c
 8007ec0:	b111      	cbz	r1, 8007ec8 <_reclaim_reent+0x8c>
 8007ec2:	4620      	mov	r0, r4
 8007ec4:	f000 f844 	bl	8007f50 <_free_r>
 8007ec8:	6a23      	ldr	r3, [r4, #32]
 8007eca:	b14b      	cbz	r3, 8007ee0 <_reclaim_reent+0xa4>
 8007ecc:	4620      	mov	r0, r4
 8007ece:	e8bd 4070 	ldmia.w	sp!, {r4, r5, r6, lr}
 8007ed2:	4718      	bx	r3
 8007ed4:	680e      	ldr	r6, [r1, #0]
 8007ed6:	4620      	mov	r0, r4
 8007ed8:	f000 f83a 	bl	8007f50 <_free_r>
 8007edc:	4631      	mov	r1, r6
 8007ede:	e7bb      	b.n	8007e58 <_reclaim_reent+0x1c>
 8007ee0:	bd70      	pop	{r4, r5, r6, pc}
 8007ee2:	bf00      	nop
 8007ee4:	20000010 	.word	0x20000010

08007ee8 <__libc_init_array>:
 8007ee8:	b570      	push	{r4, r5, r6, lr}
 8007eea:	4d0d      	ldr	r5, [pc, #52]	@ (8007f20 <__libc_init_array+0x38>)
 8007eec:	4c0d      	ldr	r4, [pc, #52]	@ (8007f24 <__libc_init_array+0x3c>)
 8007eee:	1b64      	subs	r4, r4, r5
 8007ef0:	10a4      	asrs	r4, r4, #2
 8007ef2:	2600      	movs	r6, #0
 8007ef4:	42a6      	cmp	r6, r4
 8007ef6:	d109      	bne.n	8007f0c <__libc_init_array+0x24>
 8007ef8:	4d0b      	ldr	r5, [pc, #44]	@ (8007f28 <__libc_init_array+0x40>)
 8007efa:	4c0c      	ldr	r4, [pc, #48]	@ (8007f2c <__libc_init_array+0x44>)
 8007efc:	f000 f87e 	bl	8007ffc <_init>
 8007f00:	1b64      	subs	r4, r4, r5
 8007f02:	10a4      	asrs	r4, r4, #2
 8007f04:	2600      	movs	r6, #0
 8007f06:	42a6      	cmp	r6, r4
 8007f08:	d105      	bne.n	8007f16 <__libc_init_array+0x2e>
 8007f0a:	bd70      	pop	{r4, r5, r6, pc}
 8007f0c:	f855 3b04 	ldr.w	r3, [r5], #4
 8007f10:	4798      	blx	r3
 8007f12:	3601      	adds	r6, #1
 8007f14:	e7ee      	b.n	8007ef4 <__libc_init_array+0xc>
 8007f16:	f855 3b04 	ldr.w	r3, [r5], #4
 8007f1a:	4798      	blx	r3
 8007f1c:	3601      	adds	r6, #1
 8007f1e:	e7f2      	b.n	8007f06 <__libc_init_array+0x1e>
 8007f20:	080081a4 	.word	0x080081a4
 8007f24:	080081a4 	.word	0x080081a4
 8007f28:	080081a4 	.word	0x080081a4
 8007f2c:	080081a8 	.word	0x080081a8

08007f30 <__retarget_lock_acquire_recursive>:
 8007f30:	4770      	bx	lr

08007f32 <__retarget_lock_release_recursive>:
 8007f32:	4770      	bx	lr

08007f34 <memcpy>:
 8007f34:	440a      	add	r2, r1
 8007f36:	4291      	cmp	r1, r2
 8007f38:	f100 33ff 	add.w	r3, r0, #4294967295
 8007f3c:	d100      	bne.n	8007f40 <memcpy+0xc>
 8007f3e:	4770      	bx	lr
 8007f40:	b510      	push	{r4, lr}
 8007f42:	f811 4b01 	ldrb.w	r4, [r1], #1
 8007f46:	f803 4f01 	strb.w	r4, [r3, #1]!
 8007f4a:	4291      	cmp	r1, r2
 8007f4c:	d1f9      	bne.n	8007f42 <memcpy+0xe>
 8007f4e:	bd10      	pop	{r4, pc}

08007f50 <_free_r>:
 8007f50:	b538      	push	{r3, r4, r5, lr}
 8007f52:	4605      	mov	r5, r0
 8007f54:	2900      	cmp	r1, #0
 8007f56:	d041      	beq.n	8007fdc <_free_r+0x8c>
 8007f58:	f851 3c04 	ldr.w	r3, [r1, #-4]
 8007f5c:	1f0c      	subs	r4, r1, #4
 8007f5e:	2b00      	cmp	r3, #0
 8007f60:	bfb8      	it	lt
 8007f62:	18e4      	addlt	r4, r4, r3
 8007f64:	f000 f83e 	bl	8007fe4 <__malloc_lock>
 8007f68:	4a1d      	ldr	r2, [pc, #116]	@ (8007fe0 <_free_r+0x90>)
 8007f6a:	6813      	ldr	r3, [r2, #0]
 8007f6c:	b933      	cbnz	r3, 8007f7c <_free_r+0x2c>
 8007f6e:	6063      	str	r3, [r4, #4]
 8007f70:	6014      	str	r4, [r2, #0]
 8007f72:	4628      	mov	r0, r5
 8007f74:	e8bd 4038 	ldmia.w	sp!, {r3, r4, r5, lr}
 8007f78:	f000 b83a 	b.w	8007ff0 <__malloc_unlock>
 8007f7c:	42a3      	cmp	r3, r4
 8007f7e:	d908      	bls.n	8007f92 <_free_r+0x42>
 8007f80:	6820      	ldr	r0, [r4, #0]
 8007f82:	1821      	adds	r1, r4, r0
 8007f84:	428b      	cmp	r3, r1
 8007f86:	bf01      	itttt	eq
 8007f88:	6819      	ldreq	r1, [r3, #0]
 8007f8a:	685b      	ldreq	r3, [r3, #4]
 8007f8c:	1809      	addeq	r1, r1, r0
 8007f8e:	6021      	streq	r1, [r4, #0]
 8007f90:	e7ed      	b.n	8007f6e <_free_r+0x1e>
 8007f92:	461a      	mov	r2, r3
 8007f94:	685b      	ldr	r3, [r3, #4]
 8007f96:	b10b      	cbz	r3, 8007f9c <_free_r+0x4c>
 8007f98:	42a3      	cmp	r3, r4
 8007f9a:	d9fa      	bls.n	8007f92 <_free_r+0x42>
 8007f9c:	6811      	ldr	r1, [r2, #0]
 8007f9e:	1850      	adds	r0, r2, r1
 8007fa0:	42a0      	cmp	r0, r4
 8007fa2:	d10b      	bne.n	8007fbc <_free_r+0x6c>
 8007fa4:	6820      	ldr	r0, [r4, #0]
 8007fa6:	4401      	add	r1, r0
 8007fa8:	1850      	adds	r0, r2, r1
 8007faa:	4283      	cmp	r3, r0
 8007fac:	6011      	str	r1, [r2, #0]
 8007fae:	d1e0      	bne.n	8007f72 <_free_r+0x22>
 8007fb0:	6818      	ldr	r0, [r3, #0]
 8007fb2:	685b      	ldr	r3, [r3, #4]
 8007fb4:	6053      	str	r3, [r2, #4]
 8007fb6:	4408      	add	r0, r1
 8007fb8:	6010      	str	r0, [r2, #0]
 8007fba:	e7da      	b.n	8007f72 <_free_r+0x22>
 8007fbc:	d902      	bls.n	8007fc4 <_free_r+0x74>
 8007fbe:	230c      	movs	r3, #12
 8007fc0:	602b      	str	r3, [r5, #0]
 8007fc2:	e7d6      	b.n	8007f72 <_free_r+0x22>
 8007fc4:	6820      	ldr	r0, [r4, #0]
 8007fc6:	1821      	adds	r1, r4, r0
 8007fc8:	428b      	cmp	r3, r1
 8007fca:	bf04      	itt	eq
 8007fcc:	6819      	ldreq	r1, [r3, #0]
 8007fce:	685b      	ldreq	r3, [r3, #4]
 8007fd0:	6063      	str	r3, [r4, #4]
 8007fd2:	bf04      	itt	eq
 8007fd4:	1809      	addeq	r1, r1, r0
 8007fd6:	6021      	streq	r1, [r4, #0]
 8007fd8:	6054      	str	r4, [r2, #4]
 8007fda:	e7ca      	b.n	8007f72 <_free_r+0x22>
 8007fdc:	bd38      	pop	{r3, r4, r5, pc}
 8007fde:	bf00      	nop
 8007fe0:	20004d00 	.word	0x20004d00

08007fe4 <__malloc_lock>:
 8007fe4:	4801      	ldr	r0, [pc, #4]	@ (8007fec <__malloc_lock+0x8>)
 8007fe6:	f7ff bfa3 	b.w	8007f30 <__retarget_lock_acquire_recursive>
 8007fea:	bf00      	nop
 8007fec:	20004cfc 	.word	0x20004cfc

08007ff0 <__malloc_unlock>:
 8007ff0:	4801      	ldr	r0, [pc, #4]	@ (8007ff8 <__malloc_unlock+0x8>)
 8007ff2:	f7ff bf9e 	b.w	8007f32 <__retarget_lock_release_recursive>
 8007ff6:	bf00      	nop
 8007ff8:	20004cfc 	.word	0x20004cfc

08007ffc <_init>:
 8007ffc:	b5f8      	push	{r3, r4, r5, r6, r7, lr}
 8007ffe:	bf00      	nop
 8008000:	bcf8      	pop	{r3, r4, r5, r6, r7}
 8008002:	bc08      	pop	{r3}
 8008004:	469e      	mov	lr, r3
 8008006:	4770      	bx	lr

08008008 <_fini>:
 8008008:	b5f8      	push	{r3, r4, r5, r6, r7, lr}
 800800a:	bf00      	nop
 800800c:	bcf8      	pop	{r3, r4, r5, r6, r7}
 800800e:	bc08      	pop	{r3}
 8008010:	469e      	mov	lr, r3
 8008012:	4770      	bx	lr
